Archive member included because of file (symbol)

..\..\..\..\..\..\..\lib\twrk70f120m.kds\debug\bsp\bsp.a(lwgpio_kgpio.o)
                              Sources\gpio.o (lwgpio_init)
..\..\..\..\..\..\..\lib\twrk70f120m.kds\debug\bsp\bsp.a(vectors.o)
                              (_cfm)
..\..\..\..\..\..\..\lib\twrk70f120m.kds\debug\psp\psp.a(time.o)
                              Sources\gpio.o (_time_delay)
..\..\..\..\..\..\..\lib\twrk70f120m.kds\debug\psp\psp.a(task.o)
                              ..\..\..\..\..\..\..\lib\twrk70f120m.kds\debug\psp\psp.a(time.o) (_task_get_td)
..\..\..\..\..\..\..\lib\twrk70f120m.kds\debug\psp\psp.a(sched.o)
                              ..\..\..\..\..\..\..\lib\twrk70f120m.kds\debug\psp\psp.a(time.o) (_sched_yield)
..\..\..\..\..\..\..\lib\twrk70f120m.kds\debug\psp\psp.a(queue.o)
                              ..\..\..\..\..\..\..\lib\twrk70f120m.kds\debug\psp\psp.a(time.o) (_queue_insert)
..\..\..\..\..\..\..\lib\twrk70f120m.kds\debug\psp\psp.a(mqx.o)
                              ..\..\..\..\..\..\..\lib\twrk70f120m.kds\debug\psp\psp.a(time.o) (_mqx_zero_tick_struct)
..\..\..\..\..\..\..\lib\twrk70f120m.kds\debug\psp\psp.a(mem.o)
                              ..\..\..\..\..\..\..\lib\twrk70f120m.kds\debug\psp\psp.a(task.o) (_mem_alloc)
..\..\..\..\..\..\..\lib\twrk70f120m.kds\debug\psp\psp.a(lwsem.o)
                              Sources\gpio.o (_lwsem_create)
..\..\..\..\..\..\..\lib\twrk70f120m.kds\debug\psp\psp.a(klog.o)
                              ..\..\..\..\..\..\..\lib\twrk70f120m.kds\debug\psp\psp.a(time.o) (_klog_log)
..\..\..\..\..\..\..\lib\twrk70f120m.kds\debug\psp\psp.a(int.o)
                              ..\..\..\..\..\..\..\lib\twrk70f120m.kds\debug\psp\psp.a(time.o) (_int_disable)
..\..\..\..\..\..\..\lib\twrk70f120m.kds\debug\psp\psp.a(inittask.o)
                              ..\..\..\..\..\..\..\lib\twrk70f120m.kds\debug\psp\psp.a(mqx.o) (_mqx_init_task)
..\..\..\..\..\..\..\lib\twrk70f120m.kds\debug\psp\psp.a(idletask.o)
                              ..\..\..\..\..\..\..\lib\twrk70f120m.kds\debug\psp\psp.a(mqx.o) (_mqx_idle_task)
..\..\..\..\..\..\..\lib\twrk70f120m.kds\debug\psp\psp.a(io_pntf.o)
                              Sources\gpio.o (_io_printf)
..\..\..\..\..\..\..\lib\twrk70f120m.kds\debug\psp\psp.a(io_fputc.o)
                              ..\..\..\..\..\..\..\lib\twrk70f120m.kds\debug\psp\psp.a(io_pntf.o) (_io_fputc)
..\..\..\..\..\..\..\lib\twrk70f120m.kds\debug\psp\psp.a(io_dopr.o)
                              ..\..\..\..\..\..\..\lib\twrk70f120m.kds\debug\psp\psp.a(io_pntf.o) (_io_doprint)
..\..\..\..\..\..\..\lib\twrk70f120m.kds\debug\psp\psp.a(stack_st.o)
                              ..\..\..\..\..\..\..\lib\twrk70f120m.kds\debug\psp\psp.a(task.o) (_psp_get_stack_start)
..\..\..\..\..\..\..\lib\twrk70f120m.kds\debug\psp\psp.a(stack_de.o)
                              ..\..\..\..\..\..\..\lib\twrk70f120m.kds\debug\psp\psp.a(task.o) (_psp_destroy_stack_frame)
..\..\..\..\..\..\..\lib\twrk70f120m.kds\debug\psp\psp.a(stack_bu.o)
                              ..\..\..\..\..\..\..\lib\twrk70f120m.kds\debug\psp\psp.a(task.o) (_psp_build_stack_frame)
..\..\..\..\..\..\..\lib\twrk70f120m.kds\debug\psp\psp.a(sc_irdyq.o)
                              ..\..\..\..\..\..\..\lib\twrk70f120m.kds\debug\psp\psp.a(mqx.o) (_psp_set_kernel_disable_level)
..\..\..\..\..\..\..\lib\twrk70f120m.kds\debug\psp\psp.a(psp_usti.o)
                              ..\..\..\..\..\..\..\lib\twrk70f120m.kds\debug\psp\psp.a(time.o) (_psp_usecs_to_ticks)
..\..\..\..\..\..\..\lib\twrk70f120m.kds\debug\psp\psp.a(psp_tkti.o)
                              ..\..\..\..\..\..\..\lib\twrk70f120m.kds\debug\psp\psp.a(time.o) (_psp_ticks_to_time)
..\..\..\..\..\..\..\lib\twrk70f120m.kds\debug\psp\psp.a(psp_tius.o)
                              ..\..\..\..\..\..\..\lib\twrk70f120m.kds\debug\psp\psp.a(time.o) (_psp_ticks_to_microseconds)
..\..\..\..\..\..\..\lib\twrk70f120m.kds\debug\psp\psp.a(psp_tisu.o)
                              ..\..\..\..\..\..\..\lib\twrk70f120m.kds\debug\psp\psp.a(time.o) (_psp_subtract_ticks)
..\..\..\..\..\..\..\lib\twrk70f120m.kds\debug\psp\psp.a(psp_tise.o)
                              ..\..\..\..\..\..\..\lib\twrk70f120m.kds\debug\psp\psp.a(time.o) (_psp_ticks_to_seconds)
..\..\..\..\..\..\..\lib\twrk70f120m.kds\debug\psp\psp.a(psp_tips.o)
                              ..\..\..\..\..\..\..\lib\twrk70f120m.kds\debug\psp\psp.a(time.o) (_psp_ticks_to_picoseconds)
..\..\..\..\..\..\..\lib\twrk70f120m.kds\debug\psp\psp.a(psp_tipr.o)
                              ..\..\..\..\..\..\..\lib\twrk70f120m.kds\debug\psp\psp.a(klog.o) (_psp_print_ticks)
..\..\..\..\..\..\..\lib\twrk70f120m.kds\debug\psp\psp.a(psp_tiol.o)
                              ..\..\..\..\..\..\..\lib\twrk70f120m.kds\debug\psp\psp.a(time.o) (_psp_time_to_ticks)
..\..\..\..\..\..\..\lib\twrk70f120m.kds\debug\psp\psp.a(psp_tins.o)
                              ..\..\..\..\..\..\..\lib\twrk70f120m.kds\debug\psp\psp.a(time.o) (_psp_ticks_to_nanoseconds)
..\..\..\..\..\..\..\lib\twrk70f120m.kds\debug\psp\psp.a(psp_tinm.o)
                              ..\..\..\..\..\..\..\lib\twrk70f120m.kds\debug\psp\psp.a(time.o) (_psp_normalize_ticks)
..\..\..\..\..\..\..\lib\twrk70f120m.kds\debug\psp\psp.a(psp_tims.o)
                              ..\..\..\..\..\..\..\lib\twrk70f120m.kds\debug\psp\psp.a(time.o) (_psp_ticks_to_milliseconds)
..\..\..\..\..\..\..\lib\twrk70f120m.kds\debug\psp\psp.a(psp_timn.o)
                              ..\..\..\..\..\..\..\lib\twrk70f120m.kds\debug\psp\psp.a(time.o) (_psp_ticks_to_minutes)
..\..\..\..\..\..\..\lib\twrk70f120m.kds\debug\psp\psp.a(psp_tihr.o)
                              ..\..\..\..\..\..\..\lib\twrk70f120m.kds\debug\psp\psp.a(time.o) (_psp_ticks_to_hours)
..\..\..\..\..\..\..\lib\twrk70f120m.kds\debug\psp\psp.a(psp_tida.o)
                              ..\..\..\..\..\..\..\lib\twrk70f120m.kds\debug\psp\psp.a(time.o) (_psp_ticks_to_days)
..\..\..\..\..\..\..\lib\twrk70f120m.kds\debug\psp\psp.a(psp_tiad.o)
                              ..\..\..\..\..\..\..\lib\twrk70f120m.kds\debug\psp\psp.a(time.o) (_psp_add_ticks)
..\..\..\..\..\..\..\lib\twrk70f120m.kds\debug\psp\psp.a(psp_seti.o)
                              ..\..\..\..\..\..\..\lib\twrk70f120m.kds\debug\psp\psp.a(time.o) (_psp_seconds_to_ticks)
..\..\..\..\..\..\..\lib\twrk70f120m.kds\debug\psp\psp.a(psp_psti.o)
                              ..\..\..\..\..\..\..\lib\twrk70f120m.kds\debug\psp\psp.a(time.o) (_psp_psecs_to_ticks)
..\..\..\..\..\..\..\lib\twrk70f120m.kds\debug\psp\psp.a(psp_nsti.o)
                              ..\..\..\..\..\..\..\lib\twrk70f120m.kds\debug\psp\psp.a(time.o) (_psp_nsecs_to_ticks)
..\..\..\..\..\..\..\lib\twrk70f120m.kds\debug\psp\psp.a(psp_mstiq.o)
                              ..\..\..\..\..\..\..\lib\twrk70f120m.kds\debug\psp\psp.a(time.o) (_psp_msecs_to_ticks_quick)
..\..\..\..\..\..\..\lib\twrk70f120m.kds\debug\psp\psp.a(psp_msti.o)
                              ..\..\..\..\..\..\..\lib\twrk70f120m.kds\debug\psp\psp.a(time.o) (_psp_msecs_to_ticks)
..\..\..\..\..\..\..\lib\twrk70f120m.kds\debug\psp\psp.a(psp_miti.o)
                              ..\..\..\..\..\..\..\lib\twrk70f120m.kds\debug\psp\psp.a(time.o) (_psp_minutes_to_ticks)
..\..\..\..\..\..\..\lib\twrk70f120m.kds\debug\psp\psp.a(psp_mat3.o)
                              ..\..\..\..\..\..\..\lib\twrk70f120m.kds\debug\psp\psp.a(psp_tius.o) (_psp_add_element_to_array)
..\..\..\..\..\..\..\lib\twrk70f120m.kds\debug\psp\psp.a(psp_mat2.o)
                              ..\..\..\..\..\..\..\lib\twrk70f120m.kds\debug\psp\psp.a(psp_tius.o) (_psp_div_128_by_32)
..\..\..\..\..\..\..\lib\twrk70f120m.kds\debug\psp\psp.a(psp_mat1.o)
                              ..\..\..\..\..\..\..\lib\twrk70f120m.kds\debug\psp\psp.a(psp_tius.o) (_psp_mul_128_by_32)
..\..\..\..\..\..\..\lib\twrk70f120m.kds\debug\psp\psp.a(psp_hoti.o)
                              ..\..\..\..\..\..\..\lib\twrk70f120m.kds\debug\psp\psp.a(time.o) (_psp_hours_to_ticks)
..\..\..\..\..\..\..\lib\twrk70f120m.kds\debug\psp\psp.a(psp_dati.o)
                              ..\..\..\..\..\..\..\lib\twrk70f120m.kds\debug\psp\psp.a(time.o) (_psp_days_to_ticks)
..\..\..\..\..\..\..\lib\twrk70f120m.kds\debug\psp\psp.a(nvic.o)
                              Sources\gpio.o (_nvic_int_init)
..\..\..\..\..\..\..\lib\twrk70f120m.kds\debug\psp\psp.a(k_assert.o)
                              ..\..\..\..\..\..\..\lib\twrk70f120m.kds\debug\psp\psp.a(task.o) (_mqx_assert)
..\..\..\..\..\..\..\lib\twrk70f120m.kds\debug\psp\psp.a(int_xcpt.o)
                              ..\..\..\..\..\..\..\lib\twrk70f120m.kds\debug\psp\psp.a(int.o) (_int_exception_isr)
..\..\..\..\..\..\..\lib\twrk70f120m.kds\debug\psp\psp.a(int_unx.o)
                              ..\..\..\..\..\..\..\lib\twrk70f120m.kds\debug\psp\psp.a(int.o) (_int_unexpected_isr)
..\..\..\..\..\..\..\lib\twrk70f120m.kds\debug\psp\psp.a(dispatch.o)
                              ..\..\..\..\..\..\..\lib\twrk70f120m.kds\debug\psp\psp.a(mqx.o) (_sleep_p3_loop)
..\..\..\..\..\..\..\lib\twrk70f120m.kds\debug\psp\psp.a(boot.o)
                              (__boot)
..\..\..\..\..\..\..\lib\twrk70f120m.kds\debug\psp\psp.a(lwlog.o)
                              ..\..\..\..\..\..\..\lib\twrk70f120m.kds\debug\psp\psp.a(klog.o) (_lwlog_create_at)
..\..\..\..\..\..\..\lib\twrk70f120m.kds\debug\psp\psp.a(io_ghand.o)
                              ..\..\..\..\..\..\..\lib\twrk70f120m.kds\debug\psp\psp.a(io_pntf.o) (_io_get_handle)
..\..\..\..\..\..\..\lib\twrk70f120m.kds\debug\psp\psp.a(io_fp.o)
                              ..\..\..\..\..\..\..\lib\twrk70f120m.kds\debug\psp\psp.a(io_dopr.o) (_io_dtoe)
..\..\..\..\..\..\..\lib\twrk70f120m.kds\debug\psp\psp.a(comp.o)
                              ..\..\..\..\..\..\..\lib\twrk70f120m.kds\debug\psp\psp.a(boot.o) (toolchain_startup)
..\..\..\..\..\..\..\..\KDS_v3\toolchain\lib\gcc\arm-none-eabi\4.8.4\armv7e-m\fpu\libgcc.a(_arm_addsubdf3.o)
                              ..\..\..\..\..\..\..\lib\twrk70f120m.kds\debug\psp\psp.a(io_fp.o) (__aeabi_dadd)
..\..\..\..\..\..\..\..\KDS_v3\toolchain\lib\gcc\arm-none-eabi\4.8.4\armv7e-m\fpu\libgcc.a(_arm_muldivdf3.o)
                              ..\..\..\..\..\..\..\lib\twrk70f120m.kds\debug\psp\psp.a(io_fp.o) (__aeabi_dmul)
..\..\..\..\..\..\..\..\KDS_v3\toolchain\lib\gcc\arm-none-eabi\4.8.4\armv7e-m\fpu\libgcc.a(_arm_cmpdf2.o)
                              ..\..\..\..\..\..\..\lib\twrk70f120m.kds\debug\psp\psp.a(io_fp.o) (__aeabi_dcmpeq)
..\..\..\..\..\..\..\..\KDS_v3\toolchain\lib\gcc\arm-none-eabi\4.8.4\armv7e-m\fpu\libgcc.a(_arm_fixdfsi.o)
                              ..\..\..\..\..\..\..\lib\twrk70f120m.kds\debug\psp\psp.a(io_fp.o) (__aeabi_d2iz)
..\..\..\..\..\..\..\..\KDS_v3\toolchain\lib\gcc\arm-none-eabi\4.8.4\armv7e-m\fpu\libgcc.a(_arm_fixunsdfsi.o)
                              ..\..\..\..\..\..\..\lib\twrk70f120m.kds\debug\psp\psp.a(io_fp.o) (__aeabi_d2uiz)
..\..\..\..\..\..\..\..\KDS_v3\toolchain\lib\gcc\arm-none-eabi\4.8.4\armv7e-m\fpu\libgcc.a(_aeabi_ldivmod.o)
                              ..\..\..\..\..\..\..\lib\twrk70f120m.kds\debug\psp\psp.a(io_dopr.o) (__aeabi_ldivmod)
..\..\..\..\..\..\..\..\KDS_v3\toolchain\lib\gcc\arm-none-eabi\4.8.4\armv7e-m\fpu\libgcc.a(_aeabi_uldivmod.o)
                              ..\..\..\..\..\..\..\lib\twrk70f120m.kds\debug\psp\psp.a(time.o) (__aeabi_uldivmod)
..\..\..\..\..\..\..\..\KDS_v3\toolchain\lib\gcc\arm-none-eabi\4.8.4\armv7e-m\fpu\libgcc.a(bpabi.o)
                              ..\..\..\..\..\..\..\..\KDS_v3\toolchain\lib\gcc\arm-none-eabi\4.8.4\armv7e-m\fpu\libgcc.a(_aeabi_ldivmod.o) (__gnu_ldivmod_helper)
..\..\..\..\..\..\..\..\KDS_v3\toolchain\lib\gcc\arm-none-eabi\4.8.4\armv7e-m\fpu\libgcc.a(_dvmd_tls.o)
                              ..\..\..\..\..\..\..\..\KDS_v3\toolchain\lib\gcc\arm-none-eabi\4.8.4\armv7e-m\fpu\libgcc.a(_aeabi_ldivmod.o) (__aeabi_ldiv0)
..\..\..\..\..\..\..\..\KDS_v3\toolchain\lib\gcc\arm-none-eabi\4.8.4\armv7e-m\fpu\libgcc.a(_divdi3.o)
                              ..\..\..\..\..\..\..\..\KDS_v3\toolchain\lib\gcc\arm-none-eabi\4.8.4\armv7e-m\fpu\libgcc.a(bpabi.o) (__divdi3)
..\..\..\..\..\..\..\..\KDS_v3\toolchain\lib\gcc\arm-none-eabi\4.8.4\armv7e-m\fpu\libgcc.a(_udivdi3.o)
                              ..\..\..\..\..\..\..\..\KDS_v3\toolchain\lib\gcc\arm-none-eabi\4.8.4\armv7e-m\fpu\libgcc.a(bpabi.o) (__udivdi3)
..\..\..\..\..\..\..\..\KDS_v3\toolchain\arm-none-eabi\lib\armv7e-m\fpu\libc.a(lib_a-atexit.o)
                              ..\..\..\..\..\..\..\lib\twrk70f120m.kds\debug\psp\psp.a(comp.o) (atexit)
..\..\..\..\..\..\..\..\KDS_v3\toolchain\arm-none-eabi\lib\armv7e-m\fpu\libc.a(lib_a-exit.o)
                              ..\..\..\..\..\..\..\lib\twrk70f120m.kds\debug\psp\psp.a(comp.o) (exit)
..\..\..\..\..\..\..\..\KDS_v3\toolchain\arm-none-eabi\lib\armv7e-m\fpu\libc.a(lib_a-fini.o)
                              ..\..\..\..\..\..\..\lib\twrk70f120m.kds\debug\psp\psp.a(comp.o) (__libc_fini_array)
..\..\..\..\..\..\..\..\KDS_v3\toolchain\arm-none-eabi\lib\armv7e-m\fpu\libc.a(lib_a-impure.o)
                              ..\..\..\..\..\..\..\..\KDS_v3\toolchain\arm-none-eabi\lib\armv7e-m\fpu\libc.a(lib_a-exit.o) (_global_impure_ptr)
..\..\..\..\..\..\..\..\KDS_v3\toolchain\arm-none-eabi\lib\armv7e-m\fpu\libc.a(lib_a-init.o)
                              ..\..\..\..\..\..\..\lib\twrk70f120m.kds\debug\psp\psp.a(comp.o) (__libc_init_array)
..\..\..\..\..\..\..\..\KDS_v3\toolchain\arm-none-eabi\lib\armv7e-m\fpu\libc.a(lib_a-memcpy.o)
                              ..\..\..\..\..\..\..\lib\twrk70f120m.kds\debug\psp\psp.a(mqx.o) (memcpy)
..\..\..\..\..\..\..\..\KDS_v3\toolchain\arm-none-eabi\lib\armv7e-m\fpu\libc.a(lib_a-memset.o)
                              ..\..\..\..\..\..\..\lib\twrk70f120m.kds\debug\psp\psp.a(task.o) (memset)
..\..\..\..\..\..\..\..\KDS_v3\toolchain\arm-none-eabi\lib\armv7e-m\fpu\libc.a(lib_a-s_modf.o)
                              ..\..\..\..\..\..\..\lib\twrk70f120m.kds\debug\psp\psp.a(io_fp.o) (modf)
..\..\..\..\..\..\..\..\KDS_v3\toolchain\arm-none-eabi\lib\armv7e-m\fpu\libc.a(lib_a-strncmp.o)
                              ..\..\..\..\..\..\..\lib\twrk70f120m.kds\debug\psp\psp.a(task.o) (strncmp)
..\..\..\..\..\..\..\..\KDS_v3\toolchain\arm-none-eabi\lib\armv7e-m\fpu\libc.a(lib_a-strtod.o)
                              ..\..\..\..\..\..\..\lib\twrk70f120m.kds\debug\psp\psp.a(io_fp.o) (strtod)
..\..\..\..\..\..\..\..\KDS_v3\toolchain\arm-none-eabi\lib\armv7e-m\fpu\libc.a(lib_a-__atexit.o)
                              ..\..\..\..\..\..\..\..\KDS_v3\toolchain\arm-none-eabi\lib\armv7e-m\fpu\libc.a(lib_a-atexit.o) (__register_exitproc)
..\..\..\..\..\..\..\..\KDS_v3\toolchain\arm-none-eabi\lib\armv7e-m\fpu\libc.a(lib_a-__call_atexit.o)
                              ..\..\..\..\..\..\..\..\KDS_v3\toolchain\arm-none-eabi\lib\armv7e-m\fpu\libc.a(lib_a-exit.o) (__call_exitprocs)
..\..\..\..\..\..\..\..\KDS_v3\toolchain\arm-none-eabi\lib\armv7e-m\fpu\libc.a(lib_a-gdtoa-gethex.o)
                              ..\..\..\..\..\..\..\..\KDS_v3\toolchain\arm-none-eabi\lib\armv7e-m\fpu\libc.a(lib_a-strtod.o) (__gethex)
..\..\..\..\..\..\..\..\KDS_v3\toolchain\arm-none-eabi\lib\armv7e-m\fpu\libc.a(lib_a-gdtoa-hexnan.o)
                              ..\..\..\..\..\..\..\..\KDS_v3\toolchain\arm-none-eabi\lib\armv7e-m\fpu\libc.a(lib_a-strtod.o) (__hexnan)
..\..\..\..\..\..\..\..\KDS_v3\toolchain\arm-none-eabi\lib\armv7e-m\fpu\libc.a(lib_a-locale.o)
                              ..\..\..\..\..\..\..\..\KDS_v3\toolchain\arm-none-eabi\lib\armv7e-m\fpu\libc.a(lib_a-strtod.o) (_localeconv_r)
..\..\..\..\..\..\..\..\KDS_v3\toolchain\arm-none-eabi\lib\armv7e-m\fpu\libc.a(lib_a-mprec.o)
                              ..\..\..\..\..\..\..\..\KDS_v3\toolchain\arm-none-eabi\lib\armv7e-m\fpu\libc.a(lib_a-strtod.o) (_Balloc)
..\..\..\..\..\..\..\..\KDS_v3\toolchain\arm-none-eabi\lib\armv7e-m\fpu\libc.a(lib_a-s_fpclassify.o)
                              ..\..\..\..\..\..\..\..\KDS_v3\toolchain\arm-none-eabi\lib\armv7e-m\fpu\libc.a(lib_a-strtod.o) (__fpclassifyd)
..\..\..\..\..\..\..\..\KDS_v3\toolchain\arm-none-eabi\lib\armv7e-m\fpu\libc.a(lib_a-sf_nan.o)
                              ..\..\..\..\..\..\..\..\KDS_v3\toolchain\arm-none-eabi\lib\armv7e-m\fpu\libc.a(lib_a-strtod.o) (nanf)
..\..\..\..\..\..\..\..\KDS_v3\toolchain\arm-none-eabi\lib\armv7e-m\fpu\libc.a(lib_a-strcmp.o)
                              ..\..\..\..\..\..\..\..\KDS_v3\toolchain\arm-none-eabi\lib\armv7e-m\fpu\libc.a(lib_a-locale.o) (strcmp)
..\..\..\..\..\..\..\..\KDS_v3\toolchain\arm-none-eabi\lib\armv7e-m\fpu\libc.a(lib_a-strlen.o)
                              ..\..\..\..\..\..\..\..\KDS_v3\toolchain\arm-none-eabi\lib\armv7e-m\fpu\libc.a(lib_a-strtod.o) (strlen)
..\..\..\..\..\..\..\..\KDS_v3\toolchain\arm-none-eabi\lib\armv7e-m\fpu\libc.a(lib_a-callocr.o)
                              ..\..\..\..\..\..\..\..\KDS_v3\toolchain\arm-none-eabi\lib\armv7e-m\fpu\libc.a(lib_a-mprec.o) (_calloc_r)
..\..\..\..\..\..\..\lib\twrk70f120m.kds\debug\bsp\bsp.a(mqx_main.o)
                              ..\..\..\..\..\..\..\lib\twrk70f120m.kds\debug\psp\psp.a(comp.o) (main)
..\..\..\..\..\..\..\lib\twrk70f120m.kds\debug\bsp\bsp.a(mqx_init.o)
                              ..\..\..\..\..\..\..\lib\twrk70f120m.kds\debug\bsp\bsp.a(mqx_main.o) (MQX_init_struct)
..\..\..\..\..\..\..\lib\twrk70f120m.kds\debug\bsp\bsp.a(init_hw.o)
                              ..\..\..\..\..\..\..\lib\twrk70f120m.kds\debug\psp\psp.a(comp.o) (init_hardware)
..\..\..\..\..\..\..\lib\twrk70f120m.kds\debug\bsp\bsp.a(init_gpio.o)
                              ..\..\..\..\..\..\..\lib\twrk70f120m.kds\debug\bsp\bsp.a(init_hw.o) (_bsp_gpio_io_init)
..\..\..\..\..\..\..\lib\twrk70f120m.kds\debug\bsp\bsp.a(init_bsp.o)
                              ..\..\..\..\..\..\..\lib\twrk70f120m.kds\debug\psp\psp.a(mqx.o) (_bsp_pre_init)
..\..\..\..\..\..\..\lib\twrk70f120m.kds\debug\bsp\bsp.a(init_adc.o)
                              ..\..\..\..\..\..\..\lib\twrk70f120m.kds\debug\bsp\bsp.a(init_bsp.o) (_bsp_adc1_init)
..\..\..\..\..\..\..\lib\twrk70f120m.kds\debug\bsp\bsp.a(bsp_cm.o)
                              ..\..\..\..\..\..\..\lib\twrk70f120m.kds\debug\bsp\bsp.a(init_bsp.o) (_bsp_set_clock_configuration)
..\..\..\..\..\..\..\lib\twrk70f120m.kds\debug\bsp\bsp.a(serl_pol_kuart.o)
                              ..\..\..\..\..\..\..\lib\twrk70f120m.kds\debug\bsp\bsp.a(init_bsp.o) (_kuart_polled_install)
..\..\..\..\..\..\..\lib\twrk70f120m.kds\debug\bsp\bsp.a(serl_pol.o)
                              ..\..\..\..\..\..\..\lib\twrk70f120m.kds\debug\bsp\bsp.a(serl_pol_kuart.o) (_io_serial_polled_install)
..\..\..\..\..\..\..\lib\twrk70f120m.kds\debug\bsp\bsp.a(io_sinit.o)
                              ..\..\..\..\..\..\..\lib\twrk70f120m.kds\debug\bsp\bsp.a(init_bsp.o) (_io_serial_default_init)
..\..\..\..\..\..\..\lib\twrk70f120m.kds\debug\bsp\bsp.a(sai_dma.o)
                              ..\..\..\..\..\..\..\lib\twrk70f120m.kds\debug\bsp\bsp.a(init_bsp.o) (_io_sai_dma_install)
..\..\..\..\..\..\..\lib\twrk70f120m.kds\debug\bsp\bsp.a(krtc.o)
                              ..\..\..\..\..\..\..\lib\twrk70f120m.kds\debug\bsp\bsp.a(init_bsp.o) (_rtc_init)
..\..\..\..\..\..\..\lib\twrk70f120m.kds\debug\bsp\bsp.a(i2c_pol_ki2c.o)
                              ..\..\..\..\..\..\..\lib\twrk70f120m.kds\debug\bsp\bsp.a(init_bsp.o) (_ki2c_polled_install)
..\..\..\..\..\..\..\lib\twrk70f120m.kds\debug\bsp\bsp.a(i2c_mk70.o)
                              ..\..\..\..\..\..\..\lib\twrk70f120m.kds\debug\bsp\bsp.a(i2c_pol_ki2c.o) (_bsp_get_i2c_base_address)
..\..\..\..\..\..\..\lib\twrk70f120m.kds\debug\bsp\bsp.a(i2c_int_ki2c_legacy.o)
                              ..\..\..\..\..\..\..\lib\twrk70f120m.kds\debug\bsp\bsp.a(init_bsp.o) (_ki2c_int_install)
..\..\..\..\..\..\..\lib\twrk70f120m.kds\debug\bsp\bsp.a(hwtimer_systick.o)
                              ..\..\..\..\..\..\..\lib\twrk70f120m.kds\debug\bsp\bsp.a(init_bsp.o) (systick_devif)
..\..\..\..\..\..\..\lib\twrk70f120m.kds\debug\bsp\bsp.a(hwtimer_kinetis.o)
                              ..\..\..\..\..\..\..\lib\twrk70f120m.kds\debug\bsp\bsp.a(hwtimer_systick.o) (systick_get_vector)
..\..\..\..\..\..\..\lib\twrk70f120m.kds\debug\bsp\bsp.a(hwtimer.o)
                              ..\..\..\..\..\..\..\lib\twrk70f120m.kds\debug\bsp\bsp.a(init_bsp.o) (hwtimer_init)
..\..\..\..\..\..\..\lib\twrk70f120m.kds\debug\bsp\bsp.a(esdhc.o)
                              ..\..\..\..\..\..\..\lib\twrk70f120m.kds\debug\bsp\bsp.a(init_bsp.o) (_esdhc_install)
..\..\..\..\..\..\..\lib\twrk70f120m.kds\debug\bsp\bsp.a(dma.o)
                              ..\..\..\..\..\..\..\lib\twrk70f120m.kds\debug\bsp\bsp.a(init_bsp.o) (dma_init)
..\..\..\..\..\..\..\lib\twrk70f120m.kds\debug\bsp\bsp.a(adc.o)
                              ..\..\..\..\..\..\..\lib\twrk70f120m.kds\debug\bsp\bsp.a(init_bsp.o) (_io_adc_install)
..\..\..\..\..\..\..\lib\twrk70f120m.kds\debug\bsp\bsp.a(init_usb.o)
                              ..\..\..\..\..\..\..\lib\twrk70f120m.kds\debug\bsp\bsp.a(init_gpio.o) (_ehci0_dev_init_param)
..\..\..\..\..\..\..\lib\twrk70f120m.kds\debug\bsp\bsp.a(init_sci.o)
                              ..\..\..\..\..\..\..\lib\twrk70f120m.kds\debug\bsp\bsp.a(init_bsp.o) (_bsp_sci2_init)
..\..\..\..\..\..\..\lib\twrk70f120m.kds\debug\bsp\bsp.a(init_sai.o)
                              ..\..\..\..\..\..\..\lib\twrk70f120m.kds\debug\bsp\bsp.a(init_bsp.o) (_bsp_sai_init)
..\..\..\..\..\..\..\lib\twrk70f120m.kds\debug\bsp\bsp.a(init_i2c.o)
                              ..\..\..\..\..\..\..\lib\twrk70f120m.kds\debug\bsp\bsp.a(init_bsp.o) (_bsp_i2c0_init)
..\..\..\..\..\..\..\lib\twrk70f120m.kds\debug\bsp\bsp.a(init_esdhc.o)
                              ..\..\..\..\..\..\..\lib\twrk70f120m.kds\debug\bsp\bsp.a(init_bsp.o) (_bsp_esdhc0_init)
..\..\..\..\..\..\..\lib\twrk70f120m.kds\debug\bsp\bsp.a(init_dma.o)
                              ..\..\..\..\..\..\..\lib\twrk70f120m.kds\debug\bsp\bsp.a(init_bsp.o) (_bsp_dma_devif_list)
..\..\..\..\..\..\..\lib\twrk70f120m.kds\debug\bsp\bsp.a(serl_mk70.o)
                              ..\..\..\..\..\..\..\lib\twrk70f120m.kds\debug\bsp\bsp.a(serl_pol_kuart.o) (_bsp_get_serial_base_address)
..\..\..\..\..\..\..\lib\twrk70f120m.kds\debug\bsp\bsp.a(sai_dma_ksai.o)
                              ..\..\..\..\..\..\..\lib\twrk70f120m.kds\debug\bsp\bsp.a(init_sai.o) (_ksai_dma_init)
..\..\..\..\..\..\..\lib\twrk70f120m.kds\debug\bsp\bsp.a(i2c_pol.o)
                              ..\..\..\..\..\..\..\lib\twrk70f120m.kds\debug\bsp\bsp.a(i2c_pol_ki2c.o) (_io_i2c_polled_install)
..\..\..\..\..\..\..\lib\twrk70f120m.kds\debug\bsp\bsp.a(i2c_int.o)
                              ..\..\..\..\..\..\..\lib\twrk70f120m.kds\debug\bsp\bsp.a(i2c_int_ki2c_legacy.o) (_io_i2c_int_install)
..\..\..\..\..\..\..\lib\twrk70f120m.kds\debug\bsp\bsp.a(esdhc_mk70.o)
                              ..\..\..\..\..\..\..\lib\twrk70f120m.kds\debug\bsp\bsp.a(esdhc.o) (_bsp_get_esdhc_base_address)
..\..\..\..\..\..\..\lib\twrk70f120m.kds\debug\bsp\bsp.a(edma.o)
                              ..\..\..\..\..\..\..\lib\twrk70f120m.kds\debug\bsp\bsp.a(init_dma.o) (edma_devif)
..\..\..\..\..\..\..\lib\twrk70f120m.kds\debug\bsp\bsp.a(adt_kpdb.o)
                              ..\..\..\..\..\..\..\lib\twrk70f120m.kds\debug\bsp\bsp.a(adc.o) (_adt_hw_ioctl)
..\..\..\..\..\..\..\lib\twrk70f120m.kds\debug\bsp\bsp.a(adc_kadc.o)
                              ..\..\..\..\..\..\..\lib\twrk70f120m.kds\debug\bsp\bsp.a(adt_kpdb.o) (adc_bundle)
..\..\..\..\..\..\..\lib\twrk70f120m.kds\debug\bsp\bsp.a(adc_mk70.o)
                              ..\..\..\..\..\..\..\lib\twrk70f120m.kds\debug\bsp\bsp.a(adc_kadc.o) (_bsp_get_adc_base_address)
..\..\..\..\..\..\..\lib\twrk70f120m.kds\debug\bsp\bsp.a(sai_mk70.o)
                              ..\..\..\..\..\..\..\lib\twrk70f120m.kds\debug\bsp\bsp.a(sai_dma_ksai.o) (_bsp_get_sai_base_address)
..\..\..\..\..\..\..\lib\twrk70f120m.kds\debug\bsp\bsp.a(edma_kinetisf.o)
                              ..\..\..\..\..\..\..\lib\twrk70f120m.kds\debug\bsp\bsp.a(edma.o) (_bsp_get_edma_done_vectors)
..\..\..\..\..\..\..\lib\twrk70f120m.kds\debug\psp\psp.a(lwevent.o)
                              ..\..\..\..\..\..\..\lib\twrk70f120m.kds\debug\bsp\bsp.a(esdhc.o) (_lwevent_create)
..\..\..\..\..\..\..\lib\twrk70f120m.kds\debug\psp\psp.a(io_instx.o)
                              ..\..\..\..\..\..\..\lib\twrk70f120m.kds\debug\bsp\bsp.a(sai_dma.o) (_io_dev_install_ext)
..\..\..\..\..\..\..\lib\twrk70f120m.kds\debug\psp\psp.a(io_inst.o)
                              ..\..\..\..\..\..\..\lib\twrk70f120m.kds\debug\bsp\bsp.a(serl_pol.o) (_io_dev_install)
..\..\..\..\..\..\..\lib\twrk70f120m.kds\debug\psp\psp.a(io_init.o)
                              ..\..\..\..\..\..\..\lib\twrk70f120m.kds\debug\bsp\bsp.a(init_bsp.o) (_io_init)
..\..\..\..\..\..\..\lib\twrk70f120m.kds\debug\psp\psp.a(io_fopen.o)
                              ..\..\..\..\..\..\..\lib\twrk70f120m.kds\debug\bsp\bsp.a(io_sinit.o) (_io_fopen)
..\..\..\..\..\..\..\lib\twrk70f120m.kds\debug\psp\psp.a(psp_iinit.o)
                              ..\..\..\..\..\..\..\lib\twrk70f120m.kds\debug\bsp\bsp.a(init_bsp.o) (_psp_int_init)
..\..\..\..\..\..\..\lib\twrk70f120m.kds\debug\psp\psp.a(kinetis_mpu.o)
                              ..\..\..\..\..\..\..\lib\twrk70f120m.kds\debug\bsp\bsp.a(init_bsp.o) (_kinetis_mpu_disable)
..\..\..\..\..\..\..\lib\twrk70f120m.kds\debug\psp\psp.a(int_vtab.o)
                              ..\..\..\..\..\..\..\lib\twrk70f120m.kds\debug\bsp\bsp.a(init_bsp.o) (_int_set_vector_table)
..\..\..\..\..\..\..\lib\twrk70f120m.kds\debug\psp\psp.a(int_inst.o)
                              ..\..\..\..\..\..\..\lib\twrk70f120m.kds\debug\psp\psp.a(psp_iinit.o) (_psp_int_install)
..\..\..\..\..\..\..\lib\twrk70f120m.kds\debug\psp\psp.a(cache.o)
                              ..\..\..\..\..\..\..\lib\twrk70f120m.kds\debug\bsp\bsp.a(init_bsp.o) (_dcache_enable)
..\..\..\..\..\..\..\..\KDS_v3\toolchain\lib\gcc\arm-none-eabi\4.8.4\armv7e-m\fpu\libgcc.a(_arm_truncdfsf2.o)
                              ..\..\..\..\..\..\..\..\KDS_v3\toolchain\arm-none-eabi\lib\armv7e-m\fpu\libc.a(lib_a-strtod.o) (__aeabi_d2f)

Allocating common symbols
Common symbol       size              file

_mqx_system_stack   0x4               ..\..\..\..\..\..\..\lib\twrk70f120m.kds\debug\psp\psp.a(mqx.o)
_sleep_p3_loop_ram  0x4               ..\..\..\..\..\..\..\lib\twrk70f120m.kds\debug\psp\psp.a(mqx.o)
_BSP_sram_pool      0x4               ..\..\..\..\..\..\..\lib\twrk70f120m.kds\debug\bsp\bsp.a(init_bsp.o)
_sleep_p3_ram       0x4               ..\..\..\..\..\..\..\lib\twrk70f120m.kds\debug\psp\psp.a(mqx.o)
_tad_task_at_flag   0x4               ..\..\..\..\..\..\..\lib\twrk70f120m.kds\debug\psp\psp.a(task.o)
_sleep_p3_wfi_ram   0x4               ..\..\..\..\..\..\..\lib\twrk70f120m.kds\debug\psp\psp.a(mqx.o)
SR_reg              0x1               ..\..\..\..\..\..\..\lib\twrk70f120m.kds\debug\bsp\bsp.a(bsp_cm.o)
lwsem               0x1c              Sources\gpio.o
adc_bundle          0x4               ..\..\..\..\..\..\..\lib\twrk70f120m.kds\debug\bsp\bsp.a(adc_kadc.o)
systimer            0x40              ..\..\..\..\..\..\..\lib\twrk70f120m.kds\debug\bsp\bsp.a(init_bsp.o)

Discarded input sections

 .text          0x00000000        0x0 Sources\gpio.o
 .data          0x00000000        0x0 Sources\gpio.o
 .bss           0x00000000        0x0 Sources\gpio.o
 .text          0x00000000        0x0 ..\..\..\..\..\..\..\lib\twrk70f120m.kds\debug\bsp\bsp.a(lwgpio_kgpio.o)
 .data          0x00000000        0x0 ..\..\..\..\..\..\..\lib\twrk70f120m.kds\debug\bsp\bsp.a(lwgpio_kgpio.o)
 .bss           0x00000000        0x0 ..\..\..\..\..\..\..\lib\twrk70f120m.kds\debug\bsp\bsp.a(lwgpio_kgpio.o)
 .text.lwgpio_get_functionality
                0x00000000       0x20 ..\..\..\..\..\..\..\lib\twrk70f120m.kds\debug\bsp\bsp.a(lwgpio_kgpio.o)
 .text.lwgpio_toggle_value
                0x00000000       0x1c ..\..\..\..\..\..\..\lib\twrk70f120m.kds\debug\bsp\bsp.a(lwgpio_kgpio.o)
 .text.lwgpio_get_raw
                0x00000000       0x2c ..\..\..\..\..\..\..\lib\twrk70f120m.kds\debug\bsp\bsp.a(lwgpio_kgpio.o)
 .text.lwgpio_int_get_flag
                0x00000000       0x28 ..\..\..\..\..\..\..\lib\twrk70f120m.kds\debug\bsp\bsp.a(lwgpio_kgpio.o)
 .text          0x00000000        0x0 ..\..\..\..\..\..\..\lib\twrk70f120m.kds\debug\bsp\bsp.a(vectors.o)
 .data          0x00000000        0x0 ..\..\..\..\..\..\..\lib\twrk70f120m.kds\debug\bsp\bsp.a(vectors.o)
 .bss           0x00000000        0x0 ..\..\..\..\..\..\..\lib\twrk70f120m.kds\debug\bsp\bsp.a(vectors.o)
 .text          0x00000000        0x0 ..\..\..\..\..\..\..\lib\twrk70f120m.kds\debug\psp\psp.a(time.o)
 .data          0x00000000        0x0 ..\..\..\..\..\..\..\lib\twrk70f120m.kds\debug\psp\psp.a(time.o)
 .bss           0x00000000        0x0 ..\..\..\..\..\..\..\lib\twrk70f120m.kds\debug\psp\psp.a(time.o)
 .rodata._timezone
                0x00000000        0x4 ..\..\..\..\..\..\..\lib\twrk70f120m.kds\debug\psp\psp.a(time.o)
 .rodata._time_days_in_month_internal
                0x00000000       0x34 ..\..\..\..\..\..\..\lib\twrk70f120m.kds\debug\psp\psp.a(time.o)
 .text._time_add_day_to_ticks
                0x00000000       0x34 ..\..\..\..\..\..\..\lib\twrk70f120m.kds\debug\psp\psp.a(time.o)
 .text._time_add_hour_to_ticks
                0x00000000       0x34 ..\..\..\..\..\..\..\lib\twrk70f120m.kds\debug\psp\psp.a(time.o)
 .text._time_add_min_to_ticks
                0x00000000       0x34 ..\..\..\..\..\..\..\lib\twrk70f120m.kds\debug\psp\psp.a(time.o)
 .text._time_add_msec_to_ticks
                0x00000000       0x34 ..\..\..\..\..\..\..\lib\twrk70f120m.kds\debug\psp\psp.a(time.o)
 .text._time_add_nsec_to_ticks
                0x00000000       0x34 ..\..\..\..\..\..\..\lib\twrk70f120m.kds\debug\psp\psp.a(time.o)
 .text._time_add_psec_to_ticks
                0x00000000       0x34 ..\..\..\..\..\..\..\lib\twrk70f120m.kds\debug\psp\psp.a(time.o)
 .text._time_add_sec_to_ticks
                0x00000000       0x34 ..\..\..\..\..\..\..\lib\twrk70f120m.kds\debug\psp\psp.a(time.o)
 .text._time_add_usec_to_ticks
                0x00000000       0x34 ..\..\..\..\..\..\..\lib\twrk70f120m.kds\debug\psp\psp.a(time.o)
 .text._time_delay_ticks
                0x00000000       0xe0 ..\..\..\..\..\..\..\lib\twrk70f120m.kds\debug\psp\psp.a(time.o)
 .text._time_diff_days
                0x00000000       0x4c ..\..\..\..\..\..\..\lib\twrk70f120m.kds\debug\psp\psp.a(time.o)
 .text._time_diff
                0x00000000       0x90 ..\..\..\..\..\..\..\lib\twrk70f120m.kds\debug\psp\psp.a(time.o)
 .text._time_diff_ticks_int32
                0x00000000       0x40 ..\..\..\..\..\..\..\lib\twrk70f120m.kds\debug\psp\psp.a(time.o)
 .text._time_diff_hours
                0x00000000       0x30 ..\..\..\..\..\..\..\lib\twrk70f120m.kds\debug\psp\psp.a(time.o)
 .text._time_diff_minutes
                0x00000000       0x30 ..\..\..\..\..\..\..\lib\twrk70f120m.kds\debug\psp\psp.a(time.o)
 .text._time_diff_nanoseconds
                0x00000000       0x30 ..\..\..\..\..\..\..\lib\twrk70f120m.kds\debug\psp\psp.a(time.o)
 .text._time_diff_picoseconds
                0x00000000       0x30 ..\..\..\..\..\..\..\lib\twrk70f120m.kds\debug\psp\psp.a(time.o)
 .text._time_diff_seconds
                0x00000000       0x30 ..\..\..\..\..\..\..\lib\twrk70f120m.kds\debug\psp\psp.a(time.o)
 .text._time_diff_microseconds
                0x00000000       0x30 ..\..\..\..\..\..\..\lib\twrk70f120m.kds\debug\psp\psp.a(time.o)
 .text._time_dequeue
                0x00000000       0xe4 ..\..\..\..\..\..\..\lib\twrk70f120m.kds\debug\psp\psp.a(time.o)
 .text._time_dequeue_td
                0x00000000       0xbc ..\..\..\..\..\..\..\lib\twrk70f120m.kds\debug\psp\psp.a(time.o)
 .text._time_get_elapsed
                0x00000000       0x2c ..\..\..\..\..\..\..\lib\twrk70f120m.kds\debug\psp\psp.a(time.o)
 .text._time_get_elapsed_ticks
                0x00000000       0x5c ..\..\..\..\..\..\..\lib\twrk70f120m.kds\debug\psp\psp.a(time.o)
 .text._time_get_elapsed_ticks_fast
                0x00000000       0x54 ..\..\..\..\..\..\..\lib\twrk70f120m.kds\debug\psp\psp.a(time.o)
 .text.normalize
                0x00000000       0xc4 ..\..\..\..\..\..\..\lib\twrk70f120m.kds\debug\psp\psp.a(time.o)
 .text._time_from_date
                0x00000000      0x36c ..\..\..\..\..\..\..\lib\twrk70f120m.kds\debug\psp\psp.a(time.o)
 .text._time_get
                0x00000000       0x20 ..\..\..\..\..\..\..\lib\twrk70f120m.kds\debug\psp\psp.a(time.o)
 .text._time_get_nanoseconds
                0x00000000       0x8c ..\..\..\..\..\..\..\lib\twrk70f120m.kds\debug\psp\psp.a(time.o)
 .text._time_get_ticks_per_sec
                0x00000000       0x18 ..\..\..\..\..\..\..\lib\twrk70f120m.kds\debug\psp\psp.a(time.o)
 .text._time_get_resolution
                0x00000000       0x20 ..\..\..\..\..\..\..\lib\twrk70f120m.kds\debug\psp\psp.a(time.o)
 .text._time_get_microseconds
                0x00000000       0x60 ..\..\..\..\..\..\..\lib\twrk70f120m.kds\debug\psp\psp.a(time.o)
 .text._time_get_hwticks_per_tick
                0x00000000       0x18 ..\..\..\..\..\..\..\lib\twrk70f120m.kds\debug\psp\psp.a(time.o)
 .text._time_init_ticks
                0x00000000       0x58 ..\..\..\..\..\..\..\lib\twrk70f120m.kds\debug\psp\psp.a(time.o)
 .text._time_set
                0x00000000       0xb0 ..\..\..\..\..\..\..\lib\twrk70f120m.kds\debug\psp\psp.a(time.o)
 .text._time_set_ticks
                0x00000000       0x70 ..\..\..\..\..\..\..\lib\twrk70f120m.kds\debug\psp\psp.a(time.o)
 .text._time_check_if_leap
                0x00000000       0x70 ..\..\..\..\..\..\..\lib\twrk70f120m.kds\debug\psp\psp.a(time.o)
 .text._time_set_resolution
                0x00000000       0x4c ..\..\..\..\..\..\..\lib\twrk70f120m.kds\debug\psp\psp.a(time.o)
 .text._time_set_timer_vector
                0x00000000       0x20 ..\..\..\..\..\..\..\lib\twrk70f120m.kds\debug\psp\psp.a(time.o)
 .text._time_to_date
                0x00000000      0x224 ..\..\..\..\..\..\..\lib\twrk70f120m.kds\debug\psp\psp.a(time.o)
 .text._time_to_ticks
                0x00000000       0x48 ..\..\..\..\..\..\..\lib\twrk70f120m.kds\debug\psp\psp.a(time.o)
 .text._ticks_to_time
                0x00000000       0x2c ..\..\..\..\..\..\..\lib\twrk70f120m.kds\debug\psp\psp.a(time.o)
 .text.mktime   0x00000000       0xb0 ..\..\..\..\..\..\..\lib\twrk70f120m.kds\debug\psp\psp.a(time.o)
 .text.gmtime_r
                0x00000000       0x98 ..\..\..\..\..\..\..\lib\twrk70f120m.kds\debug\psp\psp.a(time.o)
 .text.timegm   0x00000000       0x84 ..\..\..\..\..\..\..\lib\twrk70f120m.kds\debug\psp\psp.a(time.o)
 .text.localtime_r
                0x00000000       0x64 ..\..\..\..\..\..\..\lib\twrk70f120m.kds\debug\psp\psp.a(time.o)
 .text          0x00000000        0x0 ..\..\..\..\..\..\..\lib\twrk70f120m.kds\debug\psp\psp.a(task.o)
 .data          0x00000000        0x0 ..\..\..\..\..\..\..\lib\twrk70f120m.kds\debug\psp\psp.a(task.o)
 .bss           0x00000000        0x0 ..\..\..\..\..\..\..\lib\twrk70f120m.kds\debug\psp\psp.a(task.o)
 .text._task_abort_internal
                0x00000000      0x1fc ..\..\..\..\..\..\..\lib\twrk70f120m.kds\debug\psp\psp.a(task.o)
 .text._task_abort
                0x00000000       0x1c ..\..\..\..\..\..\..\lib\twrk70f120m.kds\debug\psp\psp.a(task.o)
 .text._task_create_internal
                0x00000000      0x150 ..\..\..\..\..\..\..\lib\twrk70f120m.kds\debug\psp\psp.a(task.o)
 .text._task_create
                0x00000000       0x28 ..\..\..\..\..\..\..\lib\twrk70f120m.kds\debug\psp\psp.a(task.o)
 .text._task_create_blocked
                0x00000000      0x144 ..\..\..\..\..\..\..\lib\twrk70f120m.kds\debug\psp\psp.a(task.o)
 .text._task_create_at
                0x00000000      0x118 ..\..\..\..\..\..\..\lib\twrk70f120m.kds\debug\psp\psp.a(task.o)
 .text._task_enable_fp
                0x00000000       0xa8 ..\..\..\..\..\..\..\lib\twrk70f120m.kds\debug\psp\psp.a(task.o)
 .text._task_disable_fp
                0x00000000       0x94 ..\..\..\..\..\..\..\lib\twrk70f120m.kds\debug\psp\psp.a(task.o)
 .text._task_set_environment
                0x00000000       0xb0 ..\..\..\..\..\..\..\lib\twrk70f120m.kds\debug\psp\psp.a(task.o)
 .text._task_get_environment
                0x00000000       0x30 ..\..\..\..\..\..\..\lib\twrk70f120m.kds\debug\psp\psp.a(task.o)
 .text._task_get_exception_handler
                0x00000000       0x34 ..\..\..\..\..\..\..\lib\twrk70f120m.kds\debug\psp\psp.a(task.o)
 .text._task_set_exception_handler
                0x00000000       0xb0 ..\..\..\..\..\..\..\lib\twrk70f120m.kds\debug\psp\psp.a(task.o)
 .text._task_get_exit_handler
                0x00000000       0x34 ..\..\..\..\..\..\..\lib\twrk70f120m.kds\debug\psp\psp.a(task.o)
 .text._task_set_exit_handler
                0x00000000       0xb0 ..\..\..\..\..\..\..\lib\twrk70f120m.kds\debug\psp\psp.a(task.o)
 .text._task_get_template_ptr
                0x00000000       0x28 ..\..\..\..\..\..\..\lib\twrk70f120m.kds\debug\psp\psp.a(task.o)
 .text._task_get_template_index
                0x00000000       0x6c ..\..\..\..\..\..\..\lib\twrk70f120m.kds\debug\psp\psp.a(task.o)
 .text._task_get_id_from_td
                0x00000000       0x24 ..\..\..\..\..\..\..\lib\twrk70f120m.kds\debug\psp\psp.a(task.o)
 .text._task_get_index_from_id
                0x00000000       0x28 ..\..\..\..\..\..\..\lib\twrk70f120m.kds\debug\psp\psp.a(task.o)
 .text._task_get_parameter
                0x00000000       0x24 ..\..\..\..\..\..\..\lib\twrk70f120m.kds\debug\psp\psp.a(task.o)
 .text._task_get_parameter_for
                0x00000000       0x30 ..\..\..\..\..\..\..\lib\twrk70f120m.kds\debug\psp\psp.a(task.o)
 .text._task_get_parameter_internal
                0x00000000       0x1c ..\..\..\..\..\..\..\lib\twrk70f120m.kds\debug\psp\psp.a(task.o)
 .text._task_set_parameter
                0x00000000       0x70 ..\..\..\..\..\..\..\lib\twrk70f120m.kds\debug\psp\psp.a(task.o)
 .text._task_set_parameter_for
                0x00000000       0xa0 ..\..\..\..\..\..\..\lib\twrk70f120m.kds\debug\psp\psp.a(task.o)
 .text._task_set_parameter_internal
                0x00000000       0x28 ..\..\..\..\..\..\..\lib\twrk70f120m.kds\debug\psp\psp.a(task.o)
 .text._task_get_priority
                0x00000000       0x34 ..\..\..\..\..\..\..\lib\twrk70f120m.kds\debug\psp\psp.a(task.o)
 .text._task_set_priority
                0x00000000      0x170 ..\..\..\..\..\..\..\lib\twrk70f120m.kds\debug\psp\psp.a(task.o)
 .text._task_ready
                0x00000000      0x120 ..\..\..\..\..\..\..\lib\twrk70f120m.kds\debug\psp\psp.a(task.o)
 .text._task_restart_func
                0x00000000      0x428 ..\..\..\..\..\..\..\lib\twrk70f120m.kds\debug\psp\psp.a(task.o)
 .text._task_restart
                0x00000000       0x28 ..\..\..\..\..\..\..\lib\twrk70f120m.kds\debug\psp\psp.a(task.o)
 .text._task_start_preemption
                0x00000000       0x70 ..\..\..\..\..\..\..\lib\twrk70f120m.kds\debug\psp\psp.a(task.o)
 .text._task_allow_preemption
                0x00000000       0x88 ..\..\..\..\..\..\..\lib\twrk70f120m.kds\debug\psp\psp.a(task.o)
 .text._task_check_stack
                0x00000000       0x2c ..\..\..\..\..\..\..\lib\twrk70f120m.kds\debug\psp\psp.a(task.o)
 .text._task_get_processor
                0x00000000       0x1c ..\..\..\..\..\..\..\lib\twrk70f120m.kds\debug\psp\psp.a(task.o)
 .text._task_get_creator
                0x00000000       0x18 ..\..\..\..\..\..\..\lib\twrk70f120m.kds\debug\psp\psp.a(task.o)
 .text._task_get_error
                0x00000000       0x24 ..\..\..\..\..\..\..\lib\twrk70f120m.kds\debug\psp\psp.a(task.o)
 .text._task_get_error_ptr
                0x00000000       0x24 ..\..\..\..\..\..\..\lib\twrk70f120m.kds\debug\psp\psp.a(task.o)
 .text._task_get_id
                0x00000000       0x18 ..\..\..\..\..\..\..\lib\twrk70f120m.kds\debug\psp\psp.a(task.o)
 .text._task_build_internal
                0x00000000       0xb8 ..\..\..\..\..\..\..\lib\twrk70f120m.kds\debug\psp\psp.a(task.o)
 .text._task_exiting_function_internal
                0x00000000        0xc ..\..\..\..\..\..\..\lib\twrk70f120m.kds\debug\psp\psp.a(task.o)
 .text._task_sync_priority_internal
                0x00000000       0x18 ..\..\..\..\..\..\..\lib\twrk70f120m.kds\debug\psp\psp.a(task.o)
 COMMON         0x00000000        0x4 ..\..\..\..\..\..\..\lib\twrk70f120m.kds\debug\psp\psp.a(task.o)
 .text          0x00000000        0x0 ..\..\..\..\..\..\..\lib\twrk70f120m.kds\debug\psp\psp.a(sched.o)
 .data          0x00000000        0x0 ..\..\..\..\..\..\..\lib\twrk70f120m.kds\debug\psp\psp.a(sched.o)
 .bss           0x00000000        0x0 ..\..\..\..\..\..\..\lib\twrk70f120m.kds\debug\psp\psp.a(sched.o)
 .text._sched_get_max_priority
                0x00000000       0x18 ..\..\..\..\..\..\..\lib\twrk70f120m.kds\debug\psp\psp.a(sched.o)
 .text._sched_get_min_priority
                0x00000000       0x24 ..\..\..\..\..\..\..\lib\twrk70f120m.kds\debug\psp\psp.a(sched.o)
 .text._sched_set_policy
                0x00000000       0xa8 ..\..\..\..\..\..\..\lib\twrk70f120m.kds\debug\psp\psp.a(sched.o)
 .text._sched_get_policy
                0x00000000       0x20 ..\..\..\..\..\..\..\lib\twrk70f120m.kds\debug\psp\psp.a(sched.o)
 .text._sched_boost_priority_internal
                0x00000000       0x7c ..\..\..\..\..\..\..\lib\twrk70f120m.kds\debug\psp\psp.a(sched.o)
 .text._sched_unboost_priority_internal
                0x00000000       0x90 ..\..\..\..\..\..\..\lib\twrk70f120m.kds\debug\psp\psp.a(sched.o)
 .text._sched_insert_priorityq_internal
                0x00000000       0x3c ..\..\..\..\..\..\..\lib\twrk70f120m.kds\debug\psp\psp.a(sched.o)
 .text._sched_get_max_priority_on_q_internal
                0x00000000       0x34 ..\..\..\..\..\..\..\lib\twrk70f120m.kds\debug\psp\psp.a(sched.o)
 .text._sched_set_priority_internal
                0x00000000       0x80 ..\..\..\..\..\..\..\lib\twrk70f120m.kds\debug\psp\psp.a(sched.o)
 .text          0x00000000        0x0 ..\..\..\..\..\..\..\lib\twrk70f120m.kds\debug\psp\psp.a(queue.o)
 .data          0x00000000        0x0 ..\..\..\..\..\..\..\lib\twrk70f120m.kds\debug\psp\psp.a(queue.o)
 .bss           0x00000000        0x0 ..\..\..\..\..\..\..\lib\twrk70f120m.kds\debug\psp\psp.a(queue.o)
 .text._queue_head
                0x00000000       0x30 ..\..\..\..\..\..\..\lib\twrk70f120m.kds\debug\psp\psp.a(queue.o)
 .text._queue_next
                0x00000000       0x38 ..\..\..\..\..\..\..\lib\twrk70f120m.kds\debug\psp\psp.a(queue.o)
 .text._queue_test
                0x00000000       0xa4 ..\..\..\..\..\..\..\lib\twrk70f120m.kds\debug\psp\psp.a(queue.o)
 .text._queue_unlink
                0x00000000       0x3c ..\..\..\..\..\..\..\lib\twrk70f120m.kds\debug\psp\psp.a(queue.o)
 .text._queue_get_size
                0x00000000       0x18 ..\..\..\..\..\..\..\lib\twrk70f120m.kds\debug\psp\psp.a(queue.o)
 .text._queue_is_empty
                0x00000000       0x24 ..\..\..\..\..\..\..\lib\twrk70f120m.kds\debug\psp\psp.a(queue.o)
 .text          0x00000000        0x0 ..\..\..\..\..\..\..\lib\twrk70f120m.kds\debug\psp\psp.a(mqx.o)
 .data          0x00000000        0x0 ..\..\..\..\..\..\..\lib\twrk70f120m.kds\debug\psp\psp.a(mqx.o)
 .bss           0x00000000        0x0 ..\..\..\..\..\..\..\lib\twrk70f120m.kds\debug\psp\psp.a(mqx.o)
 .rodata._mqx_version
                0x00000000        0x4 ..\..\..\..\..\..\..\lib\twrk70f120m.kds\debug\psp\psp.a(mqx.o)
 .rodata._mqx_generic_revision
                0x00000000        0x4 ..\..\..\..\..\..\..\lib\twrk70f120m.kds\debug\psp\psp.a(mqx.o)
 .rodata._mqx_psp_revision
                0x00000000        0x4 ..\..\..\..\..\..\..\lib\twrk70f120m.kds\debug\psp\psp.a(mqx.o)
 .rodata._mqx_copyright
                0x00000000        0x4 ..\..\..\..\..\..\..\lib\twrk70f120m.kds\debug\psp\psp.a(mqx.o)
 .rodata._mqx_date
                0x00000000        0x4 ..\..\..\..\..\..\..\lib\twrk70f120m.kds\debug\psp\psp.a(mqx.o)
 .bss._mqx_monitor_type
                0x00000000        0x4 ..\..\..\..\..\..\..\lib\twrk70f120m.kds\debug\psp\psp.a(mqx.o)
 .text._mqx_set_context_switch_handler
                0x00000000       0x30 ..\..\..\..\..\..\..\lib\twrk70f120m.kds\debug\psp\psp.a(mqx.o)
 .text._mqx_get_kernel_data
                0x00000000       0x20 ..\..\..\..\..\..\..\lib\twrk70f120m.kds\debug\psp\psp.a(mqx.o)
 .text._mqx_fatal_error
                0x00000000       0x64 ..\..\..\..\..\..\..\lib\twrk70f120m.kds\debug\psp\psp.a(mqx.o)
 .text._mqx_get_counter
                0x00000000       0x40 ..\..\..\..\..\..\..\lib\twrk70f120m.kds\debug\psp\psp.a(mqx.o)
 .text._mqx_get_idle_loop_count
                0x00000000       0x2c ..\..\..\..\..\..\..\lib\twrk70f120m.kds\debug\psp\psp.a(mqx.o)
 .text._mqx_get_cpu_type
                0x00000000       0x20 ..\..\..\..\..\..\..\lib\twrk70f120m.kds\debug\psp\psp.a(mqx.o)
 .text._mqx_get_initialization
                0x00000000       0x24 ..\..\..\..\..\..\..\lib\twrk70f120m.kds\debug\psp\psp.a(mqx.o)
 .text._mqx_get_exit_handler
                0x00000000       0x10 ..\..\..\..\..\..\..\lib\twrk70f120m.kds\debug\psp\psp.a(mqx.o)
 .text._mqx_set_exit_handler
                0x00000000       0x14 ..\..\..\..\..\..\..\lib\twrk70f120m.kds\debug\psp\psp.a(mqx.o)
 .text._mqx_get_io_component_handle
                0x00000000       0x34 ..\..\..\..\..\..\..\lib\twrk70f120m.kds\debug\psp\psp.a(mqx.o)
 .text._mqx_set_io_component_handle
                0x00000000       0x68 ..\..\..\..\..\..\..\lib\twrk70f120m.kds\debug\psp\psp.a(mqx.o)
 .text._mqx_get_system_task_id
                0x00000000       0x20 ..\..\..\..\..\..\..\lib\twrk70f120m.kds\debug\psp\psp.a(mqx.o)
 .text._mqx_link_io_component_handle
                0x00000000       0xbc ..\..\..\..\..\..\..\lib\twrk70f120m.kds\debug\psp\psp.a(mqx.o)
 .text._mqx_unlink_io_component_handle
                0x00000000       0xd4 ..\..\..\..\..\..\..\lib\twrk70f120m.kds\debug\psp\psp.a(mqx.o)
 .text._crt_tls_reference
                0x00000000       0x10 ..\..\..\..\..\..\..\lib\twrk70f120m.kds\debug\psp\psp.a(mqx.o)
 .text          0x00000000        0x0 ..\..\..\..\..\..\..\lib\twrk70f120m.kds\debug\psp\psp.a(mem.o)
 .data          0x00000000        0x0 ..\..\..\..\..\..\..\lib\twrk70f120m.kds\debug\psp\psp.a(mem.o)
 .bss           0x00000000        0x0 ..\..\..\..\..\..\..\lib\twrk70f120m.kds\debug\psp\psp.a(mem.o)
 .text._mem_alloc_align
                0x00000000       0xa8 ..\..\..\..\..\..\..\lib\twrk70f120m.kds\debug\psp\psp.a(mem.o)
 .text._mem_alloc_align_uncached
                0x00000000       0x30 ..\..\..\..\..\..\..\lib\twrk70f120m.kds\debug\psp\psp.a(mem.o)
 .text._mem_alloc_align_from
                0x00000000       0xa0 ..\..\..\..\..\..\..\lib\twrk70f120m.kds\debug\psp\psp.a(mem.o)
 .text._mem_alloc_zero_from
                0x00000000       0xac ..\..\..\..\..\..\..\lib\twrk70f120m.kds\debug\psp\psp.a(mem.o)
 .text._mem_extend
                0x00000000       0x78 ..\..\..\..\..\..\..\lib\twrk70f120m.kds\debug\psp\psp.a(mem.o)
 .text._mem_extend_pool_internal
                0x00000000      0x1a8 ..\..\..\..\..\..\..\lib\twrk70f120m.kds\debug\psp\psp.a(mem.o)
 .text._mem_extend_pool
                0x00000000       0x74 ..\..\..\..\..\..\..\lib\twrk70f120m.kds\debug\psp\psp.a(mem.o)
 .text._mem_free_part
                0x00000000      0x2e8 ..\..\..\..\..\..\..\lib\twrk70f120m.kds\debug\psp\psp.a(mem.o)
 .text._mem_alloc_system_from
                0x00000000       0x9c ..\..\..\..\..\..\..\lib\twrk70f120m.kds\debug\psp\psp.a(mem.o)
 .text._mem_alloc_system_align_from
                0x00000000       0xa4 ..\..\..\..\..\..\..\lib\twrk70f120m.kds\debug\psp\psp.a(mem.o)
 .text._mem_alloc_system_uncached
                0x00000000       0xa4 ..\..\..\..\..\..\..\lib\twrk70f120m.kds\debug\psp\psp.a(mem.o)
 .text._mem_get_size
                0x00000000       0xc8 ..\..\..\..\..\..\..\lib\twrk70f120m.kds\debug\psp\psp.a(mem.o)
 .text._mem_test_all
                0x00000000       0xa8 ..\..\..\..\..\..\..\lib\twrk70f120m.kds\debug\psp\psp.a(mem.o)
 .text._mem_test_pool
                0x00000000      0x37c ..\..\..\..\..\..\..\lib\twrk70f120m.kds\debug\psp\psp.a(mem.o)
 .text._mem_test
                0x00000000       0x28 ..\..\..\..\..\..\..\lib\twrk70f120m.kds\debug\psp\psp.a(mem.o)
 .text._mem_get_highwater
                0x00000000       0x24 ..\..\..\..\..\..\..\lib\twrk70f120m.kds\debug\psp\psp.a(mem.o)
 .text._mem_get_highwater_pool
                0x00000000       0x1c ..\..\..\..\..\..\..\lib\twrk70f120m.kds\debug\psp\psp.a(mem.o)
 .text._mem_get_error
                0x00000000       0x20 ..\..\..\..\..\..\..\lib\twrk70f120m.kds\debug\psp\psp.a(mem.o)
 .text._mem_get_error_pool
                0x00000000       0x20 ..\..\..\..\..\..\..\lib\twrk70f120m.kds\debug\psp\psp.a(mem.o)
 .text._mem_set_default_pool
                0x00000000       0x30 ..\..\..\..\..\..\..\lib\twrk70f120m.kds\debug\psp\psp.a(mem.o)
 .text._mem_get_type
                0x00000000       0x20 ..\..\..\..\..\..\..\lib\twrk70f120m.kds\debug\psp\psp.a(mem.o)
 .text._mem_transfer
                0x00000000      0x1a8 ..\..\..\..\..\..\..\lib\twrk70f120m.kds\debug\psp\psp.a(mem.o)
 .text._mem_alloc_system_zero_from
                0x00000000       0xac ..\..\..\..\..\..\..\lib\twrk70f120m.kds\debug\psp\psp.a(mem.o)
 .text._mem_free_part_internal
                0x00000000      0x2c0 ..\..\..\..\..\..\..\lib\twrk70f120m.kds\debug\psp\psp.a(mem.o)
 .text._mem_alloc_extend_internal
                0x00000000      0x514 ..\..\..\..\..\..\..\lib\twrk70f120m.kds\debug\psp\psp.a(mem.o)
 .text._mem_realloc
                0x00000000      0x2e8 ..\..\..\..\..\..\..\lib\twrk70f120m.kds\debug\psp\psp.a(mem.o)
 .text._mem_swap_endian
                0x00000000       0xbc ..\..\..\..\..\..\..\lib\twrk70f120m.kds\debug\psp\psp.a(mem.o)
 .text._mem_swap_endian_len
                0x00000000       0xc8 ..\..\..\..\..\..\..\lib\twrk70f120m.kds\debug\psp\psp.a(mem.o)
 .text._mem_verify
                0x00000000       0xb0 ..\..\..\..\..\..\..\lib\twrk70f120m.kds\debug\psp\psp.a(mem.o)
 .rodata.__func__.8245
                0x00000000       0x10 ..\..\..\..\..\..\..\lib\twrk70f120m.kds\debug\psp\psp.a(mem.o)
 .text          0x00000000        0x0 ..\..\..\..\..\..\..\lib\twrk70f120m.kds\debug\psp\psp.a(lwsem.o)
 .data          0x00000000        0x0 ..\..\..\..\..\..\..\lib\twrk70f120m.kds\debug\psp\psp.a(lwsem.o)
 .bss           0x00000000        0x0 ..\..\..\..\..\..\..\lib\twrk70f120m.kds\debug\psp\psp.a(lwsem.o)
 .text._lwsem_create_hidden
                0x00000000       0x20 ..\..\..\..\..\..\..\lib\twrk70f120m.kds\debug\psp\psp.a(lwsem.o)
 .text._lwsem_is_valid
                0x00000000       0x34 ..\..\..\..\..\..\..\lib\twrk70f120m.kds\debug\psp\psp.a(lwsem.o)
 .text._lwsem_poll
                0x00000000       0xbc ..\..\..\..\..\..\..\lib\twrk70f120m.kds\debug\psp\psp.a(lwsem.o)
 .text._lwsem_test
                0x00000000      0x13c ..\..\..\..\..\..\..\lib\twrk70f120m.kds\debug\psp\psp.a(lwsem.o)
 .text._lwsem_wait_timed_internal
                0x00000000       0x64 ..\..\..\..\..\..\..\lib\twrk70f120m.kds\debug\psp\psp.a(lwsem.o)
 .text._lwsem_wait_for
                0x00000000      0x138 ..\..\..\..\..\..\..\lib\twrk70f120m.kds\debug\psp\psp.a(lwsem.o)
 .text._lwsem_wait_ticks
                0x00000000      0x194 ..\..\..\..\..\..\..\lib\twrk70f120m.kds\debug\psp\psp.a(lwsem.o)
 .text._lwsem_wait_until
                0x00000000      0x130 ..\..\..\..\..\..\..\lib\twrk70f120m.kds\debug\psp\psp.a(lwsem.o)
 .text          0x00000000        0x0 ..\..\..\..\..\..\..\lib\twrk70f120m.kds\debug\psp\psp.a(klog.o)
 .data          0x00000000        0x0 ..\..\..\..\..\..\..\lib\twrk70f120m.kds\debug\psp\psp.a(klog.o)
 .bss           0x00000000        0x0 ..\..\..\..\..\..\..\lib\twrk70f120m.kds\debug\psp\psp.a(klog.o)
 .text._klog_control
                0x00000000       0x48 ..\..\..\..\..\..\..\lib\twrk70f120m.kds\debug\psp\psp.a(klog.o)
 .text._klog_create
                0x00000000       0x30 ..\..\..\..\..\..\..\lib\twrk70f120m.kds\debug\psp\psp.a(klog.o)
 .text._klog_create_at
                0x00000000       0x34 ..\..\..\..\..\..\..\lib\twrk70f120m.kds\debug\psp\psp.a(klog.o)
 .text._klog_disable_logging_task
                0x00000000       0x30 ..\..\..\..\..\..\..\lib\twrk70f120m.kds\debug\psp\psp.a(klog.o)
 .text._klog_enable_logging_task
                0x00000000       0x30 ..\..\..\..\..\..\..\lib\twrk70f120m.kds\debug\psp\psp.a(klog.o)
 .rodata        0x00000000     0x1244 ..\..\..\..\..\..\..\lib\twrk70f120m.kds\debug\psp\psp.a(klog.o)
 .text._klog_display
                0x00000000      0x154 ..\..\..\..\..\..\..\lib\twrk70f120m.kds\debug\psp\psp.a(klog.o)
 .text._klog_get_task_stack_usage
                0x00000000       0x34 ..\..\..\..\..\..\..\lib\twrk70f120m.kds\debug\psp\psp.a(klog.o)
 .text._klog_get_task_stack_usage_internal
                0x00000000       0x74 ..\..\..\..\..\..\..\lib\twrk70f120m.kds\debug\psp\psp.a(klog.o)
 .text._klog_get_interrupt_stack_usage
                0x00000000       0x70 ..\..\..\..\..\..\..\lib\twrk70f120m.kds\debug\psp\psp.a(klog.o)
 .text._klog_show_stack_usage
                0x00000000       0xd8 ..\..\..\..\..\..\..\lib\twrk70f120m.kds\debug\psp\psp.a(klog.o)
 .text._klog_log_function
                0x00000000       0x24 ..\..\..\..\..\..\..\lib\twrk70f120m.kds\debug\psp\psp.a(klog.o)
 .text._klog_execute_scheduler_internal
                0x00000000       0x80 ..\..\..\..\..\..\..\lib\twrk70f120m.kds\debug\psp\psp.a(klog.o)
 .text._klog_get_function_name_internal
                0x00000000      0x668 ..\..\..\..\..\..\..\lib\twrk70f120m.kds\debug\psp\psp.a(klog.o)
 .text._klog_get_function_name2_internal
                0x00000000      0xd44 ..\..\..\..\..\..\..\lib\twrk70f120m.kds\debug\psp\psp.a(klog.o)
 .text          0x00000000        0x0 ..\..\..\..\..\..\..\lib\twrk70f120m.kds\debug\psp\psp.a(int.o)
 .data          0x00000000        0x0 ..\..\..\..\..\..\..\lib\twrk70f120m.kds\debug\psp\psp.a(int.o)
 .bss           0x00000000        0x0 ..\..\..\..\..\..\..\lib\twrk70f120m.kds\debug\psp\psp.a(int.o)
 .text._int_get_exception_handler
                0x00000000       0x18 ..\..\..\..\..\..\..\lib\twrk70f120m.kds\debug\psp\psp.a(int.o)
 .text._int_get_isr_depth
                0x00000000       0x20 ..\..\..\..\..\..\..\lib\twrk70f120m.kds\debug\psp\psp.a(int.o)
 .text._int_install_default_isr
                0x00000000       0x70 ..\..\..\..\..\..\..\lib\twrk70f120m.kds\debug\psp\psp.a(int.o)
 .text._int_install_exception_isr
                0x00000000       0x34 ..\..\..\..\..\..\..\lib\twrk70f120m.kds\debug\psp\psp.a(int.o)
 .text._int_install_unexpected_isr
                0x00000000       0x34 ..\..\..\..\..\..\..\lib\twrk70f120m.kds\debug\psp\psp.a(int.o)
 .text._int_set_exception_handler
                0x00000000      0x1a8 ..\..\..\..\..\..\..\lib\twrk70f120m.kds\debug\psp\psp.a(int.o)
 .text._int_set_isr_data
                0x00000000      0x128 ..\..\..\..\..\..\..\lib\twrk70f120m.kds\debug\psp\psp.a(int.o)
 .text          0x00000000        0x0 ..\..\..\..\..\..\..\lib\twrk70f120m.kds\debug\psp\psp.a(inittask.o)
 .data          0x00000000        0x0 ..\..\..\..\..\..\..\lib\twrk70f120m.kds\debug\psp\psp.a(inittask.o)
 .bss           0x00000000        0x0 ..\..\..\..\..\..\..\lib\twrk70f120m.kds\debug\psp\psp.a(inittask.o)
 .text          0x00000000        0x0 ..\..\..\..\..\..\..\lib\twrk70f120m.kds\debug\psp\psp.a(idletask.o)
 .data          0x00000000        0x0 ..\..\..\..\..\..\..\lib\twrk70f120m.kds\debug\psp\psp.a(idletask.o)
 .bss           0x00000000        0x0 ..\..\..\..\..\..\..\lib\twrk70f120m.kds\debug\psp\psp.a(idletask.o)
 .text          0x00000000        0x0 ..\..\..\..\..\..\..\lib\twrk70f120m.kds\debug\psp\psp.a(io_pntf.o)
 .data          0x00000000        0x0 ..\..\..\..\..\..\..\lib\twrk70f120m.kds\debug\psp\psp.a(io_pntf.o)
 .bss           0x00000000        0x0 ..\..\..\..\..\..\..\lib\twrk70f120m.kds\debug\psp\psp.a(io_pntf.o)
 .text          0x00000000        0x0 ..\..\..\..\..\..\..\lib\twrk70f120m.kds\debug\psp\psp.a(io_fputc.o)
 .data          0x00000000        0x0 ..\..\..\..\..\..\..\lib\twrk70f120m.kds\debug\psp\psp.a(io_fputc.o)
 .bss           0x00000000        0x0 ..\..\..\..\..\..\..\lib\twrk70f120m.kds\debug\psp\psp.a(io_fputc.o)
 .text          0x00000000        0x0 ..\..\..\..\..\..\..\lib\twrk70f120m.kds\debug\psp\psp.a(io_dopr.o)
 .data          0x00000000        0x0 ..\..\..\..\..\..\..\lib\twrk70f120m.kds\debug\psp\psp.a(io_dopr.o)
 .bss           0x00000000        0x0 ..\..\..\..\..\..\..\lib\twrk70f120m.kds\debug\psp\psp.a(io_dopr.o)
 .text          0x00000000        0x0 ..\..\..\..\..\..\..\lib\twrk70f120m.kds\debug\psp\psp.a(stack_st.o)
 .data          0x00000000        0x0 ..\..\..\..\..\..\..\lib\twrk70f120m.kds\debug\psp\psp.a(stack_st.o)
 .bss           0x00000000        0x0 ..\..\..\..\..\..\..\lib\twrk70f120m.kds\debug\psp\psp.a(stack_st.o)
 .text._psp_get_stack_start
                0x00000000       0x1c ..\..\..\..\..\..\..\lib\twrk70f120m.kds\debug\psp\psp.a(stack_st.o)
 .debug_info    0x00000000      0x70b ..\..\..\..\..\..\..\lib\twrk70f120m.kds\debug\psp\psp.a(stack_st.o)
 .debug_abbrev  0x00000000       0xf8 ..\..\..\..\..\..\..\lib\twrk70f120m.kds\debug\psp\psp.a(stack_st.o)
 .debug_loc     0x00000000       0x38 ..\..\..\..\..\..\..\lib\twrk70f120m.kds\debug\psp\psp.a(stack_st.o)
 .debug_aranges
                0x00000000       0x20 ..\..\..\..\..\..\..\lib\twrk70f120m.kds\debug\psp\psp.a(stack_st.o)
 .debug_macinfo
                0x00000000    0x9ca6a ..\..\..\..\..\..\..\lib\twrk70f120m.kds\debug\psp\psp.a(stack_st.o)
 .debug_line    0x00000000      0x5ba ..\..\..\..\..\..\..\lib\twrk70f120m.kds\debug\psp\psp.a(stack_st.o)
 .debug_str     0x00000000      0x700 ..\..\..\..\..\..\..\lib\twrk70f120m.kds\debug\psp\psp.a(stack_st.o)
 .comment       0x00000000       0x71 ..\..\..\..\..\..\..\lib\twrk70f120m.kds\debug\psp\psp.a(stack_st.o)
 .ARM.attributes
                0x00000000       0x39 ..\..\..\..\..\..\..\lib\twrk70f120m.kds\debug\psp\psp.a(stack_st.o)
 .debug_frame   0x00000000       0x2c ..\..\..\..\..\..\..\lib\twrk70f120m.kds\debug\psp\psp.a(stack_st.o)
 .text          0x00000000        0x0 ..\..\..\..\..\..\..\lib\twrk70f120m.kds\debug\psp\psp.a(stack_de.o)
 .data          0x00000000        0x0 ..\..\..\..\..\..\..\lib\twrk70f120m.kds\debug\psp\psp.a(stack_de.o)
 .bss           0x00000000        0x0 ..\..\..\..\..\..\..\lib\twrk70f120m.kds\debug\psp\psp.a(stack_de.o)
 .text          0x00000000        0x0 ..\..\..\..\..\..\..\lib\twrk70f120m.kds\debug\psp\psp.a(stack_bu.o)
 .data          0x00000000        0x0 ..\..\..\..\..\..\..\lib\twrk70f120m.kds\debug\psp\psp.a(stack_bu.o)
 .bss           0x00000000        0x0 ..\..\..\..\..\..\..\lib\twrk70f120m.kds\debug\psp\psp.a(stack_bu.o)
 .text          0x00000000        0x0 ..\..\..\..\..\..\..\lib\twrk70f120m.kds\debug\psp\psp.a(sc_irdyq.o)
 .data          0x00000000        0x0 ..\..\..\..\..\..\..\lib\twrk70f120m.kds\debug\psp\psp.a(sc_irdyq.o)
 .bss           0x00000000        0x0 ..\..\..\..\..\..\..\lib\twrk70f120m.kds\debug\psp\psp.a(sc_irdyq.o)
 .text          0x00000000        0x0 ..\..\..\..\..\..\..\lib\twrk70f120m.kds\debug\psp\psp.a(psp_usti.o)
 .data          0x00000000        0x0 ..\..\..\..\..\..\..\lib\twrk70f120m.kds\debug\psp\psp.a(psp_usti.o)
 .bss           0x00000000        0x0 ..\..\..\..\..\..\..\lib\twrk70f120m.kds\debug\psp\psp.a(psp_usti.o)
 .text._psp_usecs_to_ticks
                0x00000000       0xd0 ..\..\..\..\..\..\..\lib\twrk70f120m.kds\debug\psp\psp.a(psp_usti.o)
 .debug_info    0x00000000     0x102f ..\..\..\..\..\..\..\lib\twrk70f120m.kds\debug\psp\psp.a(psp_usti.o)
 .debug_abbrev  0x00000000      0x13c ..\..\..\..\..\..\..\lib\twrk70f120m.kds\debug\psp\psp.a(psp_usti.o)
 .debug_loc     0x00000000       0x38 ..\..\..\..\..\..\..\lib\twrk70f120m.kds\debug\psp\psp.a(psp_usti.o)
 .debug_aranges
                0x00000000       0x20 ..\..\..\..\..\..\..\lib\twrk70f120m.kds\debug\psp\psp.a(psp_usti.o)
 .debug_macinfo
                0x00000000    0x9ca6a ..\..\..\..\..\..\..\lib\twrk70f120m.kds\debug\psp\psp.a(psp_usti.o)
 .debug_line    0x00000000      0x5c2 ..\..\..\..\..\..\..\lib\twrk70f120m.kds\debug\psp\psp.a(psp_usti.o)
 .debug_str     0x00000000      0xfea ..\..\..\..\..\..\..\lib\twrk70f120m.kds\debug\psp\psp.a(psp_usti.o)
 .comment       0x00000000       0x71 ..\..\..\..\..\..\..\lib\twrk70f120m.kds\debug\psp\psp.a(psp_usti.o)
 .ARM.attributes
                0x00000000       0x39 ..\..\..\..\..\..\..\lib\twrk70f120m.kds\debug\psp\psp.a(psp_usti.o)
 .debug_frame   0x00000000       0x34 ..\..\..\..\..\..\..\lib\twrk70f120m.kds\debug\psp\psp.a(psp_usti.o)
 .text          0x00000000        0x0 ..\..\..\..\..\..\..\lib\twrk70f120m.kds\debug\psp\psp.a(psp_tkti.o)
 .data          0x00000000        0x0 ..\..\..\..\..\..\..\lib\twrk70f120m.kds\debug\psp\psp.a(psp_tkti.o)
 .bss           0x00000000        0x0 ..\..\..\..\..\..\..\lib\twrk70f120m.kds\debug\psp\psp.a(psp_tkti.o)
 .text._psp_ticks_to_time
                0x00000000      0x10c ..\..\..\..\..\..\..\lib\twrk70f120m.kds\debug\psp\psp.a(psp_tkti.o)
 .debug_info    0x00000000     0x107f ..\..\..\..\..\..\..\lib\twrk70f120m.kds\debug\psp\psp.a(psp_tkti.o)
 .debug_abbrev  0x00000000      0x13e ..\..\..\..\..\..\..\lib\twrk70f120m.kds\debug\psp\psp.a(psp_tkti.o)
 .debug_loc     0x00000000       0x38 ..\..\..\..\..\..\..\lib\twrk70f120m.kds\debug\psp\psp.a(psp_tkti.o)
 .debug_aranges
                0x00000000       0x20 ..\..\..\..\..\..\..\lib\twrk70f120m.kds\debug\psp\psp.a(psp_tkti.o)
 .debug_macinfo
                0x00000000    0x9ca6a ..\..\..\..\..\..\..\lib\twrk70f120m.kds\debug\psp\psp.a(psp_tkti.o)
 .debug_line    0x00000000      0x5c6 ..\..\..\..\..\..\..\lib\twrk70f120m.kds\debug\psp\psp.a(psp_tkti.o)
 .debug_str     0x00000000     0x101d ..\..\..\..\..\..\..\lib\twrk70f120m.kds\debug\psp\psp.a(psp_tkti.o)
 .comment       0x00000000       0x71 ..\..\..\..\..\..\..\lib\twrk70f120m.kds\debug\psp\psp.a(psp_tkti.o)
 .ARM.attributes
                0x00000000       0x39 ..\..\..\..\..\..\..\lib\twrk70f120m.kds\debug\psp\psp.a(psp_tkti.o)
 .debug_frame   0x00000000       0x3c ..\..\..\..\..\..\..\lib\twrk70f120m.kds\debug\psp\psp.a(psp_tkti.o)
 .text          0x00000000        0x0 ..\..\..\..\..\..\..\lib\twrk70f120m.kds\debug\psp\psp.a(psp_tius.o)
 .data          0x00000000        0x0 ..\..\..\..\..\..\..\lib\twrk70f120m.kds\debug\psp\psp.a(psp_tius.o)
 .bss           0x00000000        0x0 ..\..\..\..\..\..\..\lib\twrk70f120m.kds\debug\psp\psp.a(psp_tius.o)
 .text.__psp_ticks_to_microseconds
                0x00000000       0xf8 ..\..\..\..\..\..\..\lib\twrk70f120m.kds\debug\psp\psp.a(psp_tius.o)
 .text._psp_ticks_to_microseconds
                0x00000000       0x20 ..\..\..\..\..\..\..\lib\twrk70f120m.kds\debug\psp\psp.a(psp_tius.o)
 .text._psp_ticks_to_microseconds_truncate
                0x00000000       0x20 ..\..\..\..\..\..\..\lib\twrk70f120m.kds\debug\psp\psp.a(psp_tius.o)
 .debug_info    0x00000000     0x114f ..\..\..\..\..\..\..\lib\twrk70f120m.kds\debug\psp\psp.a(psp_tius.o)
 .debug_abbrev  0x00000000      0x171 ..\..\..\..\..\..\..\lib\twrk70f120m.kds\debug\psp\psp.a(psp_tius.o)
 .debug_loc     0x00000000       0xa8 ..\..\..\..\..\..\..\lib\twrk70f120m.kds\debug\psp\psp.a(psp_tius.o)
 .debug_aranges
                0x00000000       0x30 ..\..\..\..\..\..\..\lib\twrk70f120m.kds\debug\psp\psp.a(psp_tius.o)
 .debug_macinfo
                0x00000000    0x9ca6a ..\..\..\..\..\..\..\lib\twrk70f120m.kds\debug\psp\psp.a(psp_tius.o)
 .debug_line    0x00000000      0x5f0 ..\..\..\..\..\..\..\lib\twrk70f120m.kds\debug\psp\psp.a(psp_tius.o)
 .debug_str     0x00000000     0x1074 ..\..\..\..\..\..\..\lib\twrk70f120m.kds\debug\psp\psp.a(psp_tius.o)
 .comment       0x00000000       0x71 ..\..\..\..\..\..\..\lib\twrk70f120m.kds\debug\psp\psp.a(psp_tius.o)
 .ARM.attributes
                0x00000000       0x39 ..\..\..\..\..\..\..\lib\twrk70f120m.kds\debug\psp\psp.a(psp_tius.o)
 .debug_frame   0x00000000       0x70 ..\..\..\..\..\..\..\lib\twrk70f120m.kds\debug\psp\psp.a(psp_tius.o)
 .text          0x00000000        0x0 ..\..\..\..\..\..\..\lib\twrk70f120m.kds\debug\psp\psp.a(psp_tisu.o)
 .data          0x00000000        0x0 ..\..\..\..\..\..\..\lib\twrk70f120m.kds\debug\psp\psp.a(psp_tisu.o)
 .bss           0x00000000        0x0 ..\..\..\..\..\..\..\lib\twrk70f120m.kds\debug\psp\psp.a(psp_tisu.o)
 .text._psp_subtract_ticks_int32
                0x00000000       0xac ..\..\..\..\..\..\..\lib\twrk70f120m.kds\debug\psp\psp.a(psp_tisu.o)
 .text          0x00000000        0x0 ..\..\..\..\..\..\..\lib\twrk70f120m.kds\debug\psp\psp.a(psp_tise.o)
 .data          0x00000000        0x0 ..\..\..\..\..\..\..\lib\twrk70f120m.kds\debug\psp\psp.a(psp_tise.o)
 .bss           0x00000000        0x0 ..\..\..\..\..\..\..\lib\twrk70f120m.kds\debug\psp\psp.a(psp_tise.o)
 .text._psp_ticks_to_seconds
                0x00000000       0x88 ..\..\..\..\..\..\..\lib\twrk70f120m.kds\debug\psp\psp.a(psp_tise.o)
 .debug_info    0x00000000     0x1039 ..\..\..\..\..\..\..\lib\twrk70f120m.kds\debug\psp\psp.a(psp_tise.o)
 .debug_abbrev  0x00000000      0x13e ..\..\..\..\..\..\..\lib\twrk70f120m.kds\debug\psp\psp.a(psp_tise.o)
 .debug_loc     0x00000000       0x38 ..\..\..\..\..\..\..\lib\twrk70f120m.kds\debug\psp\psp.a(psp_tise.o)
 .debug_aranges
                0x00000000       0x20 ..\..\..\..\..\..\..\lib\twrk70f120m.kds\debug\psp\psp.a(psp_tise.o)
 .debug_macinfo
                0x00000000    0x9ca6a ..\..\..\..\..\..\..\lib\twrk70f120m.kds\debug\psp\psp.a(psp_tise.o)
 .debug_line    0x00000000      0x5c2 ..\..\..\..\..\..\..\lib\twrk70f120m.kds\debug\psp\psp.a(psp_tise.o)
 .debug_str     0x00000000      0xff3 ..\..\..\..\..\..\..\lib\twrk70f120m.kds\debug\psp\psp.a(psp_tise.o)
 .comment       0x00000000       0x71 ..\..\..\..\..\..\..\lib\twrk70f120m.kds\debug\psp\psp.a(psp_tise.o)
 .ARM.attributes
                0x00000000       0x39 ..\..\..\..\..\..\..\lib\twrk70f120m.kds\debug\psp\psp.a(psp_tise.o)
 .debug_frame   0x00000000       0x30 ..\..\..\..\..\..\..\lib\twrk70f120m.kds\debug\psp\psp.a(psp_tise.o)
 .text          0x00000000        0x0 ..\..\..\..\..\..\..\lib\twrk70f120m.kds\debug\psp\psp.a(psp_tips.o)
 .data          0x00000000        0x0 ..\..\..\..\..\..\..\lib\twrk70f120m.kds\debug\psp\psp.a(psp_tips.o)
 .bss           0x00000000        0x0 ..\..\..\..\..\..\..\lib\twrk70f120m.kds\debug\psp\psp.a(psp_tips.o)
 .text.__psp_ticks_to_picoseconds
                0x00000000      0x10c ..\..\..\..\..\..\..\lib\twrk70f120m.kds\debug\psp\psp.a(psp_tips.o)
 .text._psp_ticks_to_picoseconds
                0x00000000       0x20 ..\..\..\..\..\..\..\lib\twrk70f120m.kds\debug\psp\psp.a(psp_tips.o)
 .text._psp_ticks_to_picoseconds_truncate
                0x00000000       0x20 ..\..\..\..\..\..\..\lib\twrk70f120m.kds\debug\psp\psp.a(psp_tips.o)
 .debug_info    0x00000000     0x114f ..\..\..\..\..\..\..\lib\twrk70f120m.kds\debug\psp\psp.a(psp_tips.o)
 .debug_abbrev  0x00000000      0x171 ..\..\..\..\..\..\..\lib\twrk70f120m.kds\debug\psp\psp.a(psp_tips.o)
 .debug_loc     0x00000000       0xa8 ..\..\..\..\..\..\..\lib\twrk70f120m.kds\debug\psp\psp.a(psp_tips.o)
 .debug_aranges
                0x00000000       0x30 ..\..\..\..\..\..\..\lib\twrk70f120m.kds\debug\psp\psp.a(psp_tips.o)
 .debug_macinfo
                0x00000000    0x9ca6a ..\..\..\..\..\..\..\lib\twrk70f120m.kds\debug\psp\psp.a(psp_tips.o)
 .debug_line    0x00000000      0x5f1 ..\..\..\..\..\..\..\lib\twrk70f120m.kds\debug\psp\psp.a(psp_tips.o)
 .debug_str     0x00000000     0x1071 ..\..\..\..\..\..\..\lib\twrk70f120m.kds\debug\psp\psp.a(psp_tips.o)
 .comment       0x00000000       0x71 ..\..\..\..\..\..\..\lib\twrk70f120m.kds\debug\psp\psp.a(psp_tips.o)
 .ARM.attributes
                0x00000000       0x39 ..\..\..\..\..\..\..\lib\twrk70f120m.kds\debug\psp\psp.a(psp_tips.o)
 .debug_frame   0x00000000       0x70 ..\..\..\..\..\..\..\lib\twrk70f120m.kds\debug\psp\psp.a(psp_tips.o)
 .text          0x00000000        0x0 ..\..\..\..\..\..\..\lib\twrk70f120m.kds\debug\psp\psp.a(psp_tipr.o)
 .data          0x00000000        0x0 ..\..\..\..\..\..\..\lib\twrk70f120m.kds\debug\psp\psp.a(psp_tipr.o)
 .bss           0x00000000        0x0 ..\..\..\..\..\..\..\lib\twrk70f120m.kds\debug\psp\psp.a(psp_tipr.o)
 .rodata        0x00000000       0x10 ..\..\..\..\..\..\..\lib\twrk70f120m.kds\debug\psp\psp.a(psp_tipr.o)
 .text._psp_print_ticks
                0x00000000       0x5c ..\..\..\..\..\..\..\lib\twrk70f120m.kds\debug\psp\psp.a(psp_tipr.o)
 .debug_info    0x00000000      0x200 ..\..\..\..\..\..\..\lib\twrk70f120m.kds\debug\psp\psp.a(psp_tipr.o)
 .debug_abbrev  0x00000000       0xbd ..\..\..\..\..\..\..\lib\twrk70f120m.kds\debug\psp\psp.a(psp_tipr.o)
 .debug_loc     0x00000000       0x38 ..\..\..\..\..\..\..\lib\twrk70f120m.kds\debug\psp\psp.a(psp_tipr.o)
 .debug_aranges
                0x00000000       0x20 ..\..\..\..\..\..\..\lib\twrk70f120m.kds\debug\psp\psp.a(psp_tipr.o)
 .debug_macinfo
                0x00000000    0x9ca6e ..\..\..\..\..\..\..\lib\twrk70f120m.kds\debug\psp\psp.a(psp_tipr.o)
 .debug_line    0x00000000      0x5c2 ..\..\..\..\..\..\..\lib\twrk70f120m.kds\debug\psp\psp.a(psp_tipr.o)
 .debug_str     0x00000000      0x2fb ..\..\..\..\..\..\..\lib\twrk70f120m.kds\debug\psp\psp.a(psp_tipr.o)
 .comment       0x00000000       0x71 ..\..\..\..\..\..\..\lib\twrk70f120m.kds\debug\psp\psp.a(psp_tipr.o)
 .ARM.attributes
                0x00000000       0x39 ..\..\..\..\..\..\..\lib\twrk70f120m.kds\debug\psp\psp.a(psp_tipr.o)
 .debug_frame   0x00000000       0x30 ..\..\..\..\..\..\..\lib\twrk70f120m.kds\debug\psp\psp.a(psp_tipr.o)
 .text          0x00000000        0x0 ..\..\..\..\..\..\..\lib\twrk70f120m.kds\debug\psp\psp.a(psp_tiol.o)
 .data          0x00000000        0x0 ..\..\..\..\..\..\..\lib\twrk70f120m.kds\debug\psp\psp.a(psp_tiol.o)
 .bss           0x00000000        0x0 ..\..\..\..\..\..\..\lib\twrk70f120m.kds\debug\psp\psp.a(psp_tiol.o)
 .text._psp_time_to_ticks
                0x00000000       0x44 ..\..\..\..\..\..\..\lib\twrk70f120m.kds\debug\psp\psp.a(psp_tiol.o)
 .debug_info    0x00000000      0x1a8 ..\..\..\..\..\..\..\lib\twrk70f120m.kds\debug\psp\psp.a(psp_tiol.o)
 .debug_abbrev  0x00000000       0xcc ..\..\..\..\..\..\..\lib\twrk70f120m.kds\debug\psp\psp.a(psp_tiol.o)
 .debug_loc     0x00000000       0x38 ..\..\..\..\..\..\..\lib\twrk70f120m.kds\debug\psp\psp.a(psp_tiol.o)
 .debug_aranges
                0x00000000       0x20 ..\..\..\..\..\..\..\lib\twrk70f120m.kds\debug\psp\psp.a(psp_tiol.o)
 .debug_macinfo
                0x00000000    0x9ca6a ..\..\..\..\..\..\..\lib\twrk70f120m.kds\debug\psp\psp.a(psp_tiol.o)
 .debug_line    0x00000000      0x5bc ..\..\..\..\..\..\..\lib\twrk70f120m.kds\debug\psp\psp.a(psp_tiol.o)
 .debug_str     0x00000000      0x2f9 ..\..\..\..\..\..\..\lib\twrk70f120m.kds\debug\psp\psp.a(psp_tiol.o)
 .comment       0x00000000       0x71 ..\..\..\..\..\..\..\lib\twrk70f120m.kds\debug\psp\psp.a(psp_tiol.o)
 .ARM.attributes
                0x00000000       0x39 ..\..\..\..\..\..\..\lib\twrk70f120m.kds\debug\psp\psp.a(psp_tiol.o)
 .debug_frame   0x00000000       0x30 ..\..\..\..\..\..\..\lib\twrk70f120m.kds\debug\psp\psp.a(psp_tiol.o)
 .text          0x00000000        0x0 ..\..\..\..\..\..\..\lib\twrk70f120m.kds\debug\psp\psp.a(psp_tins.o)
 .data          0x00000000        0x0 ..\..\..\..\..\..\..\lib\twrk70f120m.kds\debug\psp\psp.a(psp_tins.o)
 .bss           0x00000000        0x0 ..\..\..\..\..\..\..\lib\twrk70f120m.kds\debug\psp\psp.a(psp_tins.o)
 .text.__psp_ticks_to_nanoseconds
                0x00000000      0x108 ..\..\..\..\..\..\..\lib\twrk70f120m.kds\debug\psp\psp.a(psp_tins.o)
 .text._psp_ticks_to_nanoseconds
                0x00000000       0x20 ..\..\..\..\..\..\..\lib\twrk70f120m.kds\debug\psp\psp.a(psp_tins.o)
 .text._psp_ticks_to_nanoseconds_truncate
                0x00000000       0x20 ..\..\..\..\..\..\..\lib\twrk70f120m.kds\debug\psp\psp.a(psp_tins.o)
 .debug_info    0x00000000     0x114f ..\..\..\..\..\..\..\lib\twrk70f120m.kds\debug\psp\psp.a(psp_tins.o)
 .debug_abbrev  0x00000000      0x171 ..\..\..\..\..\..\..\lib\twrk70f120m.kds\debug\psp\psp.a(psp_tins.o)
 .debug_loc     0x00000000       0xa8 ..\..\..\..\..\..\..\lib\twrk70f120m.kds\debug\psp\psp.a(psp_tins.o)
 .debug_aranges
                0x00000000       0x30 ..\..\..\..\..\..\..\lib\twrk70f120m.kds\debug\psp\psp.a(psp_tins.o)
 .debug_macinfo
                0x00000000    0x9ca6a ..\..\..\..\..\..\..\lib\twrk70f120m.kds\debug\psp\psp.a(psp_tins.o)
 .debug_line    0x00000000      0x5f1 ..\..\..\..\..\..\..\lib\twrk70f120m.kds\debug\psp\psp.a(psp_tins.o)
 .debug_str     0x00000000     0x1071 ..\..\..\..\..\..\..\lib\twrk70f120m.kds\debug\psp\psp.a(psp_tins.o)
 .comment       0x00000000       0x71 ..\..\..\..\..\..\..\lib\twrk70f120m.kds\debug\psp\psp.a(psp_tins.o)
 .ARM.attributes
                0x00000000       0x39 ..\..\..\..\..\..\..\lib\twrk70f120m.kds\debug\psp\psp.a(psp_tins.o)
 .debug_frame   0x00000000       0x70 ..\..\..\..\..\..\..\lib\twrk70f120m.kds\debug\psp\psp.a(psp_tins.o)
 .text          0x00000000        0x0 ..\..\..\..\..\..\..\lib\twrk70f120m.kds\debug\psp\psp.a(psp_tinm.o)
 .data          0x00000000        0x0 ..\..\..\..\..\..\..\lib\twrk70f120m.kds\debug\psp\psp.a(psp_tinm.o)
 .bss           0x00000000        0x0 ..\..\..\..\..\..\..\lib\twrk70f120m.kds\debug\psp\psp.a(psp_tinm.o)
 .text          0x00000000        0x0 ..\..\..\..\..\..\..\lib\twrk70f120m.kds\debug\psp\psp.a(psp_tims.o)
 .data          0x00000000        0x0 ..\..\..\..\..\..\..\lib\twrk70f120m.kds\debug\psp\psp.a(psp_tims.o)
 .bss           0x00000000        0x0 ..\..\..\..\..\..\..\lib\twrk70f120m.kds\debug\psp\psp.a(psp_tims.o)
 .text._psp_ticks_to_milliseconds_truncate
                0x00000000       0x20 ..\..\..\..\..\..\..\lib\twrk70f120m.kds\debug\psp\psp.a(psp_tims.o)
 .text          0x00000000        0x0 ..\..\..\..\..\..\..\lib\twrk70f120m.kds\debug\psp\psp.a(psp_timn.o)
 .data          0x00000000        0x0 ..\..\..\..\..\..\..\lib\twrk70f120m.kds\debug\psp\psp.a(psp_timn.o)
 .bss           0x00000000        0x0 ..\..\..\..\..\..\..\lib\twrk70f120m.kds\debug\psp\psp.a(psp_timn.o)
 .text._psp_ticks_to_minutes
                0x00000000       0x9c ..\..\..\..\..\..\..\lib\twrk70f120m.kds\debug\psp\psp.a(psp_timn.o)
 .debug_info    0x00000000     0x1039 ..\..\..\..\..\..\..\lib\twrk70f120m.kds\debug\psp\psp.a(psp_timn.o)
 .debug_abbrev  0x00000000      0x13e ..\..\..\..\..\..\..\lib\twrk70f120m.kds\debug\psp\psp.a(psp_timn.o)
 .debug_loc     0x00000000       0x38 ..\..\..\..\..\..\..\lib\twrk70f120m.kds\debug\psp\psp.a(psp_timn.o)
 .debug_aranges
                0x00000000       0x20 ..\..\..\..\..\..\..\lib\twrk70f120m.kds\debug\psp\psp.a(psp_timn.o)
 .debug_macinfo
                0x00000000    0x9ca6a ..\..\..\..\..\..\..\lib\twrk70f120m.kds\debug\psp\psp.a(psp_timn.o)
 .debug_line    0x00000000      0x5c3 ..\..\..\..\..\..\..\lib\twrk70f120m.kds\debug\psp\psp.a(psp_timn.o)
 .debug_str     0x00000000      0xff3 ..\..\..\..\..\..\..\lib\twrk70f120m.kds\debug\psp\psp.a(psp_timn.o)
 .comment       0x00000000       0x71 ..\..\..\..\..\..\..\lib\twrk70f120m.kds\debug\psp\psp.a(psp_timn.o)
 .ARM.attributes
                0x00000000       0x39 ..\..\..\..\..\..\..\lib\twrk70f120m.kds\debug\psp\psp.a(psp_timn.o)
 .debug_frame   0x00000000       0x30 ..\..\..\..\..\..\..\lib\twrk70f120m.kds\debug\psp\psp.a(psp_timn.o)
 .text          0x00000000        0x0 ..\..\..\..\..\..\..\lib\twrk70f120m.kds\debug\psp\psp.a(psp_tihr.o)
 .data          0x00000000        0x0 ..\..\..\..\..\..\..\lib\twrk70f120m.kds\debug\psp\psp.a(psp_tihr.o)
 .bss           0x00000000        0x0 ..\..\..\..\..\..\..\lib\twrk70f120m.kds\debug\psp\psp.a(psp_tihr.o)
 .text._psp_ticks_to_hours
                0x00000000       0x9c ..\..\..\..\..\..\..\lib\twrk70f120m.kds\debug\psp\psp.a(psp_tihr.o)
 .debug_info    0x00000000     0x1039 ..\..\..\..\..\..\..\lib\twrk70f120m.kds\debug\psp\psp.a(psp_tihr.o)
 .debug_abbrev  0x00000000      0x13e ..\..\..\..\..\..\..\lib\twrk70f120m.kds\debug\psp\psp.a(psp_tihr.o)
 .debug_loc     0x00000000       0x38 ..\..\..\..\..\..\..\lib\twrk70f120m.kds\debug\psp\psp.a(psp_tihr.o)
 .debug_aranges
                0x00000000       0x20 ..\..\..\..\..\..\..\lib\twrk70f120m.kds\debug\psp\psp.a(psp_tihr.o)
 .debug_macinfo
                0x00000000    0x9ca6a ..\..\..\..\..\..\..\lib\twrk70f120m.kds\debug\psp\psp.a(psp_tihr.o)
 .debug_line    0x00000000      0x5c3 ..\..\..\..\..\..\..\lib\twrk70f120m.kds\debug\psp\psp.a(psp_tihr.o)
 .debug_str     0x00000000      0xff1 ..\..\..\..\..\..\..\lib\twrk70f120m.kds\debug\psp\psp.a(psp_tihr.o)
 .comment       0x00000000       0x71 ..\..\..\..\..\..\..\lib\twrk70f120m.kds\debug\psp\psp.a(psp_tihr.o)
 .ARM.attributes
                0x00000000       0x39 ..\..\..\..\..\..\..\lib\twrk70f120m.kds\debug\psp\psp.a(psp_tihr.o)
 .debug_frame   0x00000000       0x30 ..\..\..\..\..\..\..\lib\twrk70f120m.kds\debug\psp\psp.a(psp_tihr.o)
 .text          0x00000000        0x0 ..\..\..\..\..\..\..\lib\twrk70f120m.kds\debug\psp\psp.a(psp_tida.o)
 .data          0x00000000        0x0 ..\..\..\..\..\..\..\lib\twrk70f120m.kds\debug\psp\psp.a(psp_tida.o)
 .bss           0x00000000        0x0 ..\..\..\..\..\..\..\lib\twrk70f120m.kds\debug\psp\psp.a(psp_tida.o)
 .text._psp_ticks_to_days
                0x00000000       0xa0 ..\..\..\..\..\..\..\lib\twrk70f120m.kds\debug\psp\psp.a(psp_tida.o)
 .debug_info    0x00000000     0x1039 ..\..\..\..\..\..\..\lib\twrk70f120m.kds\debug\psp\psp.a(psp_tida.o)
 .debug_abbrev  0x00000000      0x13e ..\..\..\..\..\..\..\lib\twrk70f120m.kds\debug\psp\psp.a(psp_tida.o)
 .debug_loc     0x00000000       0x38 ..\..\..\..\..\..\..\lib\twrk70f120m.kds\debug\psp\psp.a(psp_tida.o)
 .debug_aranges
                0x00000000       0x20 ..\..\..\..\..\..\..\lib\twrk70f120m.kds\debug\psp\psp.a(psp_tida.o)
 .debug_macinfo
                0x00000000    0x9ca6a ..\..\..\..\..\..\..\lib\twrk70f120m.kds\debug\psp\psp.a(psp_tida.o)
 .debug_line    0x00000000      0x5c3 ..\..\..\..\..\..\..\lib\twrk70f120m.kds\debug\psp\psp.a(psp_tida.o)
 .debug_str     0x00000000      0xff0 ..\..\..\..\..\..\..\lib\twrk70f120m.kds\debug\psp\psp.a(psp_tida.o)
 .comment       0x00000000       0x71 ..\..\..\..\..\..\..\lib\twrk70f120m.kds\debug\psp\psp.a(psp_tida.o)
 .ARM.attributes
                0x00000000       0x39 ..\..\..\..\..\..\..\lib\twrk70f120m.kds\debug\psp\psp.a(psp_tida.o)
 .debug_frame   0x00000000       0x30 ..\..\..\..\..\..\..\lib\twrk70f120m.kds\debug\psp\psp.a(psp_tida.o)
 .text          0x00000000        0x0 ..\..\..\..\..\..\..\lib\twrk70f120m.kds\debug\psp\psp.a(psp_tiad.o)
 .data          0x00000000        0x0 ..\..\..\..\..\..\..\lib\twrk70f120m.kds\debug\psp\psp.a(psp_tiad.o)
 .bss           0x00000000        0x0 ..\..\..\..\..\..\..\lib\twrk70f120m.kds\debug\psp\psp.a(psp_tiad.o)
 .text          0x00000000        0x0 ..\..\..\..\..\..\..\lib\twrk70f120m.kds\debug\psp\psp.a(psp_seti.o)
 .data          0x00000000        0x0 ..\..\..\..\..\..\..\lib\twrk70f120m.kds\debug\psp\psp.a(psp_seti.o)
 .bss           0x00000000        0x0 ..\..\..\..\..\..\..\lib\twrk70f120m.kds\debug\psp\psp.a(psp_seti.o)
 .text._psp_seconds_to_ticks
                0x00000000       0x50 ..\..\..\..\..\..\..\lib\twrk70f120m.kds\debug\psp\psp.a(psp_seti.o)
 .debug_info    0x00000000     0x1021 ..\..\..\..\..\..\..\lib\twrk70f120m.kds\debug\psp\psp.a(psp_seti.o)
 .debug_abbrev  0x00000000      0x12d ..\..\..\..\..\..\..\lib\twrk70f120m.kds\debug\psp\psp.a(psp_seti.o)
 .debug_loc     0x00000000       0x38 ..\..\..\..\..\..\..\lib\twrk70f120m.kds\debug\psp\psp.a(psp_seti.o)
 .debug_aranges
                0x00000000       0x20 ..\..\..\..\..\..\..\lib\twrk70f120m.kds\debug\psp\psp.a(psp_seti.o)
 .debug_macinfo
                0x00000000    0x9ca6a ..\..\..\..\..\..\..\lib\twrk70f120m.kds\debug\psp\psp.a(psp_seti.o)
 .debug_line    0x00000000      0x5bd ..\..\..\..\..\..\..\lib\twrk70f120m.kds\debug\psp\psp.a(psp_seti.o)
 .debug_str     0x00000000      0xfee ..\..\..\..\..\..\..\lib\twrk70f120m.kds\debug\psp\psp.a(psp_seti.o)
 .comment       0x00000000       0x71 ..\..\..\..\..\..\..\lib\twrk70f120m.kds\debug\psp\psp.a(psp_seti.o)
 .ARM.attributes
                0x00000000       0x39 ..\..\..\..\..\..\..\lib\twrk70f120m.kds\debug\psp\psp.a(psp_seti.o)
 .debug_frame   0x00000000       0x30 ..\..\..\..\..\..\..\lib\twrk70f120m.kds\debug\psp\psp.a(psp_seti.o)
 .text          0x00000000        0x0 ..\..\..\..\..\..\..\lib\twrk70f120m.kds\debug\psp\psp.a(psp_psti.o)
 .data          0x00000000        0x0 ..\..\..\..\..\..\..\lib\twrk70f120m.kds\debug\psp\psp.a(psp_psti.o)
 .bss           0x00000000        0x0 ..\..\..\..\..\..\..\lib\twrk70f120m.kds\debug\psp\psp.a(psp_psti.o)
 .text._psp_psecs_to_ticks
                0x00000000       0xd8 ..\..\..\..\..\..\..\lib\twrk70f120m.kds\debug\psp\psp.a(psp_psti.o)
 .debug_info    0x00000000     0x10c4 ..\..\..\..\..\..\..\lib\twrk70f120m.kds\debug\psp\psp.a(psp_psti.o)
 .debug_abbrev  0x00000000      0x158 ..\..\..\..\..\..\..\lib\twrk70f120m.kds\debug\psp\psp.a(psp_psti.o)
 .debug_loc     0x00000000       0x38 ..\..\..\..\..\..\..\lib\twrk70f120m.kds\debug\psp\psp.a(psp_psti.o)
 .debug_aranges
                0x00000000       0x20 ..\..\..\..\..\..\..\lib\twrk70f120m.kds\debug\psp\psp.a(psp_psti.o)
 .debug_macinfo
                0x00000000    0x9ca6a ..\..\..\..\..\..\..\lib\twrk70f120m.kds\debug\psp\psp.a(psp_psti.o)
 .debug_line    0x00000000      0x5c5 ..\..\..\..\..\..\..\lib\twrk70f120m.kds\debug\psp\psp.a(psp_psti.o)
 .debug_str     0x00000000     0x1020 ..\..\..\..\..\..\..\lib\twrk70f120m.kds\debug\psp\psp.a(psp_psti.o)
 .comment       0x00000000       0x71 ..\..\..\..\..\..\..\lib\twrk70f120m.kds\debug\psp\psp.a(psp_psti.o)
 .ARM.attributes
                0x00000000       0x39 ..\..\..\..\..\..\..\lib\twrk70f120m.kds\debug\psp\psp.a(psp_psti.o)
 .debug_frame   0x00000000       0x34 ..\..\..\..\..\..\..\lib\twrk70f120m.kds\debug\psp\psp.a(psp_psti.o)
 .text          0x00000000        0x0 ..\..\..\..\..\..\..\lib\twrk70f120m.kds\debug\psp\psp.a(psp_nsti.o)
 .data          0x00000000        0x0 ..\..\..\..\..\..\..\lib\twrk70f120m.kds\debug\psp\psp.a(psp_nsti.o)
 .bss           0x00000000        0x0 ..\..\..\..\..\..\..\lib\twrk70f120m.kds\debug\psp\psp.a(psp_nsti.o)
 .text._psp_nsecs_to_ticks
                0x00000000       0xe0 ..\..\..\..\..\..\..\lib\twrk70f120m.kds\debug\psp\psp.a(psp_nsti.o)
 .debug_info    0x00000000     0x102f ..\..\..\..\..\..\..\lib\twrk70f120m.kds\debug\psp\psp.a(psp_nsti.o)
 .debug_abbrev  0x00000000      0x13c ..\..\..\..\..\..\..\lib\twrk70f120m.kds\debug\psp\psp.a(psp_nsti.o)
 .debug_loc     0x00000000       0x38 ..\..\..\..\..\..\..\lib\twrk70f120m.kds\debug\psp\psp.a(psp_nsti.o)
 .debug_aranges
                0x00000000       0x20 ..\..\..\..\..\..\..\lib\twrk70f120m.kds\debug\psp\psp.a(psp_nsti.o)
 .debug_macinfo
                0x00000000    0x9ca6a ..\..\..\..\..\..\..\lib\twrk70f120m.kds\debug\psp\psp.a(psp_nsti.o)
 .debug_line    0x00000000      0x5c2 ..\..\..\..\..\..\..\lib\twrk70f120m.kds\debug\psp\psp.a(psp_nsti.o)
 .debug_str     0x00000000      0xfea ..\..\..\..\..\..\..\lib\twrk70f120m.kds\debug\psp\psp.a(psp_nsti.o)
 .comment       0x00000000       0x71 ..\..\..\..\..\..\..\lib\twrk70f120m.kds\debug\psp\psp.a(psp_nsti.o)
 .ARM.attributes
                0x00000000       0x39 ..\..\..\..\..\..\..\lib\twrk70f120m.kds\debug\psp\psp.a(psp_nsti.o)
 .debug_frame   0x00000000       0x34 ..\..\..\..\..\..\..\lib\twrk70f120m.kds\debug\psp\psp.a(psp_nsti.o)
 .text          0x00000000        0x0 ..\..\..\..\..\..\..\lib\twrk70f120m.kds\debug\psp\psp.a(psp_mstiq.o)
 .data          0x00000000        0x0 ..\..\..\..\..\..\..\lib\twrk70f120m.kds\debug\psp\psp.a(psp_mstiq.o)
 .bss           0x00000000        0x0 ..\..\..\..\..\..\..\lib\twrk70f120m.kds\debug\psp\psp.a(psp_mstiq.o)
 .text          0x00000000        0x0 ..\..\..\..\..\..\..\lib\twrk70f120m.kds\debug\psp\psp.a(psp_msti.o)
 .data          0x00000000        0x0 ..\..\..\..\..\..\..\lib\twrk70f120m.kds\debug\psp\psp.a(psp_msti.o)
 .bss           0x00000000        0x0 ..\..\..\..\..\..\..\lib\twrk70f120m.kds\debug\psp\psp.a(psp_msti.o)
 .text._psp_msecs_to_ticks
                0x00000000       0xc8 ..\..\..\..\..\..\..\lib\twrk70f120m.kds\debug\psp\psp.a(psp_msti.o)
 .debug_info    0x00000000     0x102f ..\..\..\..\..\..\..\lib\twrk70f120m.kds\debug\psp\psp.a(psp_msti.o)
 .debug_abbrev  0x00000000      0x13c ..\..\..\..\..\..\..\lib\twrk70f120m.kds\debug\psp\psp.a(psp_msti.o)
 .debug_loc     0x00000000       0x38 ..\..\..\..\..\..\..\lib\twrk70f120m.kds\debug\psp\psp.a(psp_msti.o)
 .debug_aranges
                0x00000000       0x20 ..\..\..\..\..\..\..\lib\twrk70f120m.kds\debug\psp\psp.a(psp_msti.o)
 .debug_macinfo
                0x00000000    0x9ca6a ..\..\..\..\..\..\..\lib\twrk70f120m.kds\debug\psp\psp.a(psp_msti.o)
 .debug_line    0x00000000      0x5c2 ..\..\..\..\..\..\..\lib\twrk70f120m.kds\debug\psp\psp.a(psp_msti.o)
 .debug_str     0x00000000      0xfea ..\..\..\..\..\..\..\lib\twrk70f120m.kds\debug\psp\psp.a(psp_msti.o)
 .comment       0x00000000       0x71 ..\..\..\..\..\..\..\lib\twrk70f120m.kds\debug\psp\psp.a(psp_msti.o)
 .ARM.attributes
                0x00000000       0x39 ..\..\..\..\..\..\..\lib\twrk70f120m.kds\debug\psp\psp.a(psp_msti.o)
 .debug_frame   0x00000000       0x34 ..\..\..\..\..\..\..\lib\twrk70f120m.kds\debug\psp\psp.a(psp_msti.o)
 .text          0x00000000        0x0 ..\..\..\..\..\..\..\lib\twrk70f120m.kds\debug\psp\psp.a(psp_miti.o)
 .data          0x00000000        0x0 ..\..\..\..\..\..\..\lib\twrk70f120m.kds\debug\psp\psp.a(psp_miti.o)
 .bss           0x00000000        0x0 ..\..\..\..\..\..\..\lib\twrk70f120m.kds\debug\psp\psp.a(psp_miti.o)
 .text._psp_minutes_to_ticks
                0x00000000       0x70 ..\..\..\..\..\..\..\lib\twrk70f120m.kds\debug\psp\psp.a(psp_miti.o)
 .debug_info    0x00000000     0x1021 ..\..\..\..\..\..\..\lib\twrk70f120m.kds\debug\psp\psp.a(psp_miti.o)
 .debug_abbrev  0x00000000      0x12d ..\..\..\..\..\..\..\lib\twrk70f120m.kds\debug\psp\psp.a(psp_miti.o)
 .debug_loc     0x00000000       0x38 ..\..\..\..\..\..\..\lib\twrk70f120m.kds\debug\psp\psp.a(psp_miti.o)
 .debug_aranges
                0x00000000       0x20 ..\..\..\..\..\..\..\lib\twrk70f120m.kds\debug\psp\psp.a(psp_miti.o)
 .debug_macinfo
                0x00000000    0x9ca6a ..\..\..\..\..\..\..\lib\twrk70f120m.kds\debug\psp\psp.a(psp_miti.o)
 .debug_line    0x00000000      0x5bf ..\..\..\..\..\..\..\lib\twrk70f120m.kds\debug\psp\psp.a(psp_miti.o)
 .debug_str     0x00000000      0xfee ..\..\..\..\..\..\..\lib\twrk70f120m.kds\debug\psp\psp.a(psp_miti.o)
 .comment       0x00000000       0x71 ..\..\..\..\..\..\..\lib\twrk70f120m.kds\debug\psp\psp.a(psp_miti.o)
 .ARM.attributes
                0x00000000       0x39 ..\..\..\..\..\..\..\lib\twrk70f120m.kds\debug\psp\psp.a(psp_miti.o)
 .debug_frame   0x00000000       0x38 ..\..\..\..\..\..\..\lib\twrk70f120m.kds\debug\psp\psp.a(psp_miti.o)
 .text          0x00000000        0x0 ..\..\..\..\..\..\..\lib\twrk70f120m.kds\debug\psp\psp.a(psp_mat3.o)
 .data          0x00000000        0x0 ..\..\..\..\..\..\..\lib\twrk70f120m.kds\debug\psp\psp.a(psp_mat3.o)
 .bss           0x00000000        0x0 ..\..\..\..\..\..\..\lib\twrk70f120m.kds\debug\psp\psp.a(psp_mat3.o)
 .text          0x00000000        0x0 ..\..\..\..\..\..\..\lib\twrk70f120m.kds\debug\psp\psp.a(psp_mat2.o)
 .data          0x00000000        0x0 ..\..\..\..\..\..\..\lib\twrk70f120m.kds\debug\psp\psp.a(psp_mat2.o)
 .bss           0x00000000        0x0 ..\..\..\..\..\..\..\lib\twrk70f120m.kds\debug\psp\psp.a(psp_mat2.o)
 .text          0x00000000        0x0 ..\..\..\..\..\..\..\lib\twrk70f120m.kds\debug\psp\psp.a(psp_mat1.o)
 .data          0x00000000        0x0 ..\..\..\..\..\..\..\lib\twrk70f120m.kds\debug\psp\psp.a(psp_mat1.o)
 .bss           0x00000000        0x0 ..\..\..\..\..\..\..\lib\twrk70f120m.kds\debug\psp\psp.a(psp_mat1.o)
 .text          0x00000000        0x0 ..\..\..\..\..\..\..\lib\twrk70f120m.kds\debug\psp\psp.a(psp_hoti.o)
 .data          0x00000000        0x0 ..\..\..\..\..\..\..\lib\twrk70f120m.kds\debug\psp\psp.a(psp_hoti.o)
 .bss           0x00000000        0x0 ..\..\..\..\..\..\..\lib\twrk70f120m.kds\debug\psp\psp.a(psp_hoti.o)
 .text._psp_hours_to_ticks
                0x00000000       0x80 ..\..\..\..\..\..\..\lib\twrk70f120m.kds\debug\psp\psp.a(psp_hoti.o)
 .debug_info    0x00000000     0x1021 ..\..\..\..\..\..\..\lib\twrk70f120m.kds\debug\psp\psp.a(psp_hoti.o)
 .debug_abbrev  0x00000000      0x12d ..\..\..\..\..\..\..\lib\twrk70f120m.kds\debug\psp\psp.a(psp_hoti.o)
 .debug_loc     0x00000000       0x38 ..\..\..\..\..\..\..\lib\twrk70f120m.kds\debug\psp\psp.a(psp_hoti.o)
 .debug_aranges
                0x00000000       0x20 ..\..\..\..\..\..\..\lib\twrk70f120m.kds\debug\psp\psp.a(psp_hoti.o)
 .debug_macinfo
                0x00000000    0x9ca6a ..\..\..\..\..\..\..\lib\twrk70f120m.kds\debug\psp\psp.a(psp_hoti.o)
 .debug_line    0x00000000      0x5be ..\..\..\..\..\..\..\lib\twrk70f120m.kds\debug\psp\psp.a(psp_hoti.o)
 .debug_str     0x00000000      0xfea ..\..\..\..\..\..\..\lib\twrk70f120m.kds\debug\psp\psp.a(psp_hoti.o)
 .comment       0x00000000       0x71 ..\..\..\..\..\..\..\lib\twrk70f120m.kds\debug\psp\psp.a(psp_hoti.o)
 .ARM.attributes
                0x00000000       0x39 ..\..\..\..\..\..\..\lib\twrk70f120m.kds\debug\psp\psp.a(psp_hoti.o)
 .debug_frame   0x00000000       0x3c ..\..\..\..\..\..\..\lib\twrk70f120m.kds\debug\psp\psp.a(psp_hoti.o)
 .text          0x00000000        0x0 ..\..\..\..\..\..\..\lib\twrk70f120m.kds\debug\psp\psp.a(psp_dati.o)
 .data          0x00000000        0x0 ..\..\..\..\..\..\..\lib\twrk70f120m.kds\debug\psp\psp.a(psp_dati.o)
 .bss           0x00000000        0x0 ..\..\..\..\..\..\..\lib\twrk70f120m.kds\debug\psp\psp.a(psp_dati.o)
 .text._psp_days_to_ticks
                0x00000000       0x94 ..\..\..\..\..\..\..\lib\twrk70f120m.kds\debug\psp\psp.a(psp_dati.o)
 .debug_info    0x00000000     0x1021 ..\..\..\..\..\..\..\lib\twrk70f120m.kds\debug\psp\psp.a(psp_dati.o)
 .debug_abbrev  0x00000000      0x12d ..\..\..\..\..\..\..\lib\twrk70f120m.kds\debug\psp\psp.a(psp_dati.o)
 .debug_loc     0x00000000       0x38 ..\..\..\..\..\..\..\lib\twrk70f120m.kds\debug\psp\psp.a(psp_dati.o)
 .debug_aranges
                0x00000000       0x20 ..\..\..\..\..\..\..\lib\twrk70f120m.kds\debug\psp\psp.a(psp_dati.o)
 .debug_macinfo
                0x00000000    0x9ca6a ..\..\..\..\..\..\..\lib\twrk70f120m.kds\debug\psp\psp.a(psp_dati.o)
 .debug_line    0x00000000      0x5be ..\..\..\..\..\..\..\lib\twrk70f120m.kds\debug\psp\psp.a(psp_dati.o)
 .debug_str     0x00000000      0xfe8 ..\..\..\..\..\..\..\lib\twrk70f120m.kds\debug\psp\psp.a(psp_dati.o)
 .comment       0x00000000       0x71 ..\..\..\..\..\..\..\lib\twrk70f120m.kds\debug\psp\psp.a(psp_dati.o)
 .ARM.attributes
                0x00000000       0x39 ..\..\..\..\..\..\..\lib\twrk70f120m.kds\debug\psp\psp.a(psp_dati.o)
 .debug_frame   0x00000000       0x3c ..\..\..\..\..\..\..\lib\twrk70f120m.kds\debug\psp\psp.a(psp_dati.o)
 .text          0x00000000        0x0 ..\..\..\..\..\..\..\lib\twrk70f120m.kds\debug\psp\psp.a(nvic.o)
 .data          0x00000000        0x0 ..\..\..\..\..\..\..\lib\twrk70f120m.kds\debug\psp\psp.a(nvic.o)
 .bss           0x00000000        0x0 ..\..\..\..\..\..\..\lib\twrk70f120m.kds\debug\psp\psp.a(nvic.o)
 .text._nvic_int_invoke
                0x00000000       0x48 ..\..\..\..\..\..\..\lib\twrk70f120m.kds\debug\psp\psp.a(nvic.o)
 .text          0x00000000        0x0 ..\..\..\..\..\..\..\lib\twrk70f120m.kds\debug\psp\psp.a(k_assert.o)
 .data          0x00000000        0x0 ..\..\..\..\..\..\..\lib\twrk70f120m.kds\debug\psp\psp.a(k_assert.o)
 .bss           0x00000000        0x0 ..\..\..\..\..\..\..\lib\twrk70f120m.kds\debug\psp\psp.a(k_assert.o)
 .text          0x00000000        0x0 ..\..\..\..\..\..\..\lib\twrk70f120m.kds\debug\psp\psp.a(int_xcpt.o)
 .data          0x00000000        0x0 ..\..\..\..\..\..\..\lib\twrk70f120m.kds\debug\psp\psp.a(int_xcpt.o)
 .bss           0x00000000        0x0 ..\..\..\..\..\..\..\lib\twrk70f120m.kds\debug\psp\psp.a(int_xcpt.o)
 .text._int_exception_isr
                0x00000000       0xd8 ..\..\..\..\..\..\..\lib\twrk70f120m.kds\debug\psp\psp.a(int_xcpt.o)
 .debug_info    0x00000000     0x1024 ..\..\..\..\..\..\..\lib\twrk70f120m.kds\debug\psp\psp.a(int_xcpt.o)
 .debug_abbrev  0x00000000      0x12d ..\..\..\..\..\..\..\lib\twrk70f120m.kds\debug\psp\psp.a(int_xcpt.o)
 .debug_loc     0x00000000       0x38 ..\..\..\..\..\..\..\lib\twrk70f120m.kds\debug\psp\psp.a(int_xcpt.o)
 .debug_aranges
                0x00000000       0x20 ..\..\..\..\..\..\..\lib\twrk70f120m.kds\debug\psp\psp.a(int_xcpt.o)
 .debug_macinfo
                0x00000000    0x9ca6a ..\..\..\..\..\..\..\lib\twrk70f120m.kds\debug\psp\psp.a(int_xcpt.o)
 .debug_line    0x00000000      0x5d9 ..\..\..\..\..\..\..\lib\twrk70f120m.kds\debug\psp\psp.a(int_xcpt.o)
 .debug_str     0x00000000     0x100f ..\..\..\..\..\..\..\lib\twrk70f120m.kds\debug\psp\psp.a(int_xcpt.o)
 .comment       0x00000000       0x71 ..\..\..\..\..\..\..\lib\twrk70f120m.kds\debug\psp\psp.a(int_xcpt.o)
 .ARM.attributes
                0x00000000       0x39 ..\..\..\..\..\..\..\lib\twrk70f120m.kds\debug\psp\psp.a(int_xcpt.o)
 .debug_frame   0x00000000       0x34 ..\..\..\..\..\..\..\lib\twrk70f120m.kds\debug\psp\psp.a(int_xcpt.o)
 .text          0x00000000        0x0 ..\..\..\..\..\..\..\lib\twrk70f120m.kds\debug\psp\psp.a(int_unx.o)
 .data          0x00000000        0x0 ..\..\..\..\..\..\..\lib\twrk70f120m.kds\debug\psp\psp.a(int_unx.o)
 .bss           0x00000000        0x0 ..\..\..\..\..\..\..\lib\twrk70f120m.kds\debug\psp\psp.a(int_unx.o)
 .text._int_unexpected_isr
                0x00000000       0x54 ..\..\..\..\..\..\..\lib\twrk70f120m.kds\debug\psp\psp.a(int_unx.o)
 .debug_info    0x00000000      0xfe2 ..\..\..\..\..\..\..\lib\twrk70f120m.kds\debug\psp\psp.a(int_unx.o)
 .debug_abbrev  0x00000000      0x136 ..\..\..\..\..\..\..\lib\twrk70f120m.kds\debug\psp\psp.a(int_unx.o)
 .debug_loc     0x00000000       0x38 ..\..\..\..\..\..\..\lib\twrk70f120m.kds\debug\psp\psp.a(int_unx.o)
 .debug_aranges
                0x00000000       0x20 ..\..\..\..\..\..\..\lib\twrk70f120m.kds\debug\psp\psp.a(int_unx.o)
 .debug_macinfo
                0x00000000    0x9ca6a ..\..\..\..\..\..\..\lib\twrk70f120m.kds\debug\psp\psp.a(int_unx.o)
 .debug_line    0x00000000      0x5c2 ..\..\..\..\..\..\..\lib\twrk70f120m.kds\debug\psp\psp.a(int_unx.o)
 .debug_str     0x00000000      0xfde ..\..\..\..\..\..\..\lib\twrk70f120m.kds\debug\psp\psp.a(int_unx.o)
 .comment       0x00000000       0x71 ..\..\..\..\..\..\..\lib\twrk70f120m.kds\debug\psp\psp.a(int_unx.o)
 .ARM.attributes
                0x00000000       0x39 ..\..\..\..\..\..\..\lib\twrk70f120m.kds\debug\psp\psp.a(int_unx.o)
 .debug_frame   0x00000000       0x30 ..\..\..\..\..\..\..\lib\twrk70f120m.kds\debug\psp\psp.a(int_unx.o)
 .text          0x00000000        0x0 ..\..\..\..\..\..\..\lib\twrk70f120m.kds\debug\psp\psp.a(dispatch.o)
 .data          0x00000000        0x0 ..\..\..\..\..\..\..\lib\twrk70f120m.kds\debug\psp\psp.a(dispatch.o)
 .bss           0x00000000        0x0 ..\..\..\..\..\..\..\lib\twrk70f120m.kds\debug\psp\psp.a(dispatch.o)
 .data          0x00000000        0x0 ..\..\..\..\..\..\..\lib\twrk70f120m.kds\debug\psp\psp.a(boot.o)
 .bss           0x00000000        0x0 ..\..\..\..\..\..\..\lib\twrk70f120m.kds\debug\psp\psp.a(boot.o)
 .text          0x00000000        0x0 ..\..\..\..\..\..\..\lib\twrk70f120m.kds\debug\psp\psp.a(lwlog.o)
 .data          0x00000000        0x0 ..\..\..\..\..\..\..\lib\twrk70f120m.kds\debug\psp\psp.a(lwlog.o)
 .bss           0x00000000        0x0 ..\..\..\..\..\..\..\lib\twrk70f120m.kds\debug\psp\psp.a(lwlog.o)
 .text._lwlog_create_component
                0x00000000       0x98 ..\..\..\..\..\..\..\lib\twrk70f120m.kds\debug\psp\psp.a(lwlog.o)
 .text._lwlog_create_at
                0x00000000       0x4c ..\..\..\..\..\..\..\lib\twrk70f120m.kds\debug\psp\psp.a(lwlog.o)
 .text._lwlog_create_internal
                0x00000000      0x11c ..\..\..\..\..\..\..\lib\twrk70f120m.kds\debug\psp\psp.a(lwlog.o)
 .text._lwlog_create
                0x00000000       0x6c ..\..\..\..\..\..\..\lib\twrk70f120m.kds\debug\psp\psp.a(lwlog.o)
 .text._lwlog_destroy
                0x00000000       0x8c ..\..\..\..\..\..\..\lib\twrk70f120m.kds\debug\psp\psp.a(lwlog.o)
 .text._lwlog_disable
                0x00000000       0x7c ..\..\..\..\..\..\..\lib\twrk70f120m.kds\debug\psp\psp.a(lwlog.o)
 .text._lwlog_enable
                0x00000000       0x7c ..\..\..\..\..\..\..\lib\twrk70f120m.kds\debug\psp\psp.a(lwlog.o)
 .text._lwlog_read
                0x00000000      0x158 ..\..\..\..\..\..\..\lib\twrk70f120m.kds\debug\psp\psp.a(lwlog.o)
 .text._lwlog_reset
                0x00000000       0xac ..\..\..\..\..\..\..\lib\twrk70f120m.kds\debug\psp\psp.a(lwlog.o)
 .text._lwlog_calculate_size
                0x00000000       0x30 ..\..\..\..\..\..\..\lib\twrk70f120m.kds\debug\psp\psp.a(lwlog.o)
 .text._lwlog_test
                0x00000000      0x12c ..\..\..\..\..\..\..\lib\twrk70f120m.kds\debug\psp\psp.a(lwlog.o)
 .text          0x00000000        0x0 ..\..\..\..\..\..\..\lib\twrk70f120m.kds\debug\psp\psp.a(io_ghand.o)
 .data          0x00000000        0x0 ..\..\..\..\..\..\..\lib\twrk70f120m.kds\debug\psp\psp.a(io_ghand.o)
 .bss           0x00000000        0x0 ..\..\..\..\..\..\..\lib\twrk70f120m.kds\debug\psp\psp.a(io_ghand.o)
 .text          0x00000000        0x0 ..\..\..\..\..\..\..\lib\twrk70f120m.kds\debug\psp\psp.a(io_fp.o)
 .data          0x00000000        0x0 ..\..\..\..\..\..\..\lib\twrk70f120m.kds\debug\psp\psp.a(io_fp.o)
 .bss           0x00000000        0x0 ..\..\..\..\..\..\..\lib\twrk70f120m.kds\debug\psp\psp.a(io_fp.o)
 .text._io_strtod
                0x00000000       0x28 ..\..\..\..\..\..\..\lib\twrk70f120m.kds\debug\psp\psp.a(io_fp.o)
 .text._io_modf
                0x00000000       0x2c ..\..\..\..\..\..\..\lib\twrk70f120m.kds\debug\psp\psp.a(io_fp.o)
 .text          0x00000000        0x0 ..\..\..\..\..\..\..\lib\twrk70f120m.kds\debug\psp\psp.a(comp.o)
 .data          0x00000000        0x0 ..\..\..\..\..\..\..\lib\twrk70f120m.kds\debug\psp\psp.a(comp.o)
 .bss           0x00000000        0x0 ..\..\..\..\..\..\..\lib\twrk70f120m.kds\debug\psp\psp.a(comp.o)
 .bss.__dso_handle
                0x00000000        0x4 ..\..\..\..\..\..\..\lib\twrk70f120m.kds\debug\psp\psp.a(comp.o)
 .text.__cxa_atexit
                0x00000000       0x1c ..\..\..\..\..\..\..\lib\twrk70f120m.kds\debug\psp\psp.a(comp.o)
 .text._malloc_r
                0x00000000       0x1c ..\..\..\..\..\..\..\lib\twrk70f120m.kds\debug\psp\psp.a(comp.o)
 .text.calloc   0x00000000       0x24 ..\..\..\..\..\..\..\lib\twrk70f120m.kds\debug\psp\psp.a(comp.o)
 .text.realloc  0x00000000       0x1c ..\..\..\..\..\..\..\lib\twrk70f120m.kds\debug\psp\psp.a(comp.o)
 .text._sbrk    0x00000000       0x10 ..\..\..\..\..\..\..\lib\twrk70f120m.kds\debug\psp\psp.a(comp.o)
 .data          0x00000000        0x0 ..\..\..\..\..\..\..\..\KDS_v3\toolchain\lib\gcc\arm-none-eabi\4.8.4\armv7e-m\fpu\libgcc.a(_arm_addsubdf3.o)
 .bss           0x00000000        0x0 ..\..\..\..\..\..\..\..\KDS_v3\toolchain\lib\gcc\arm-none-eabi\4.8.4\armv7e-m\fpu\libgcc.a(_arm_addsubdf3.o)
 .data          0x00000000        0x0 ..\..\..\..\..\..\..\..\KDS_v3\toolchain\lib\gcc\arm-none-eabi\4.8.4\armv7e-m\fpu\libgcc.a(_arm_muldivdf3.o)
 .bss           0x00000000        0x0 ..\..\..\..\..\..\..\..\KDS_v3\toolchain\lib\gcc\arm-none-eabi\4.8.4\armv7e-m\fpu\libgcc.a(_arm_muldivdf3.o)
 .data          0x00000000        0x0 ..\..\..\..\..\..\..\..\KDS_v3\toolchain\lib\gcc\arm-none-eabi\4.8.4\armv7e-m\fpu\libgcc.a(_arm_cmpdf2.o)
 .bss           0x00000000        0x0 ..\..\..\..\..\..\..\..\KDS_v3\toolchain\lib\gcc\arm-none-eabi\4.8.4\armv7e-m\fpu\libgcc.a(_arm_cmpdf2.o)
 .data          0x00000000        0x0 ..\..\..\..\..\..\..\..\KDS_v3\toolchain\lib\gcc\arm-none-eabi\4.8.4\armv7e-m\fpu\libgcc.a(_arm_fixdfsi.o)
 .bss           0x00000000        0x0 ..\..\..\..\..\..\..\..\KDS_v3\toolchain\lib\gcc\arm-none-eabi\4.8.4\armv7e-m\fpu\libgcc.a(_arm_fixdfsi.o)
 .data          0x00000000        0x0 ..\..\..\..\..\..\..\..\KDS_v3\toolchain\lib\gcc\arm-none-eabi\4.8.4\armv7e-m\fpu\libgcc.a(_arm_fixunsdfsi.o)
 .bss           0x00000000        0x0 ..\..\..\..\..\..\..\..\KDS_v3\toolchain\lib\gcc\arm-none-eabi\4.8.4\armv7e-m\fpu\libgcc.a(_arm_fixunsdfsi.o)
 .data          0x00000000        0x0 ..\..\..\..\..\..\..\..\KDS_v3\toolchain\lib\gcc\arm-none-eabi\4.8.4\armv7e-m\fpu\libgcc.a(_aeabi_ldivmod.o)
 .bss           0x00000000        0x0 ..\..\..\..\..\..\..\..\KDS_v3\toolchain\lib\gcc\arm-none-eabi\4.8.4\armv7e-m\fpu\libgcc.a(_aeabi_ldivmod.o)
 .data          0x00000000        0x0 ..\..\..\..\..\..\..\..\KDS_v3\toolchain\lib\gcc\arm-none-eabi\4.8.4\armv7e-m\fpu\libgcc.a(_aeabi_uldivmod.o)
 .bss           0x00000000        0x0 ..\..\..\..\..\..\..\..\KDS_v3\toolchain\lib\gcc\arm-none-eabi\4.8.4\armv7e-m\fpu\libgcc.a(_aeabi_uldivmod.o)
 .data          0x00000000        0x0 ..\..\..\..\..\..\..\..\KDS_v3\toolchain\lib\gcc\arm-none-eabi\4.8.4\armv7e-m\fpu\libgcc.a(bpabi.o)
 .bss           0x00000000        0x0 ..\..\..\..\..\..\..\..\KDS_v3\toolchain\lib\gcc\arm-none-eabi\4.8.4\armv7e-m\fpu\libgcc.a(bpabi.o)
 .data          0x00000000        0x0 ..\..\..\..\..\..\..\..\KDS_v3\toolchain\lib\gcc\arm-none-eabi\4.8.4\armv7e-m\fpu\libgcc.a(_dvmd_tls.o)
 .bss           0x00000000        0x0 ..\..\..\..\..\..\..\..\KDS_v3\toolchain\lib\gcc\arm-none-eabi\4.8.4\armv7e-m\fpu\libgcc.a(_dvmd_tls.o)
 .data          0x00000000        0x0 ..\..\..\..\..\..\..\..\KDS_v3\toolchain\lib\gcc\arm-none-eabi\4.8.4\armv7e-m\fpu\libgcc.a(_divdi3.o)
 .bss           0x00000000        0x0 ..\..\..\..\..\..\..\..\KDS_v3\toolchain\lib\gcc\arm-none-eabi\4.8.4\armv7e-m\fpu\libgcc.a(_divdi3.o)
 .ARM.extab     0x00000000        0x0 ..\..\..\..\..\..\..\..\KDS_v3\toolchain\lib\gcc\arm-none-eabi\4.8.4\armv7e-m\fpu\libgcc.a(_divdi3.o)
 .data          0x00000000        0x0 ..\..\..\..\..\..\..\..\KDS_v3\toolchain\lib\gcc\arm-none-eabi\4.8.4\armv7e-m\fpu\libgcc.a(_udivdi3.o)
 .bss           0x00000000        0x0 ..\..\..\..\..\..\..\..\KDS_v3\toolchain\lib\gcc\arm-none-eabi\4.8.4\armv7e-m\fpu\libgcc.a(_udivdi3.o)
 .ARM.extab     0x00000000        0x0 ..\..\..\..\..\..\..\..\KDS_v3\toolchain\lib\gcc\arm-none-eabi\4.8.4\armv7e-m\fpu\libgcc.a(_udivdi3.o)
 .text          0x00000000        0x0 ..\..\..\..\..\..\..\..\KDS_v3\toolchain\arm-none-eabi\lib\armv7e-m\fpu\libc.a(lib_a-atexit.o)
 .data          0x00000000        0x0 ..\..\..\..\..\..\..\..\KDS_v3\toolchain\arm-none-eabi\lib\armv7e-m\fpu\libc.a(lib_a-atexit.o)
 .bss           0x00000000        0x0 ..\..\..\..\..\..\..\..\KDS_v3\toolchain\arm-none-eabi\lib\armv7e-m\fpu\libc.a(lib_a-atexit.o)
 .text          0x00000000        0x0 ..\..\..\..\..\..\..\..\KDS_v3\toolchain\arm-none-eabi\lib\armv7e-m\fpu\libc.a(lib_a-exit.o)
 .data          0x00000000        0x0 ..\..\..\..\..\..\..\..\KDS_v3\toolchain\arm-none-eabi\lib\armv7e-m\fpu\libc.a(lib_a-exit.o)
 .bss           0x00000000        0x0 ..\..\..\..\..\..\..\..\KDS_v3\toolchain\arm-none-eabi\lib\armv7e-m\fpu\libc.a(lib_a-exit.o)
 .text          0x00000000        0x0 ..\..\..\..\..\..\..\..\KDS_v3\toolchain\arm-none-eabi\lib\armv7e-m\fpu\libc.a(lib_a-fini.o)
 .data          0x00000000        0x0 ..\..\..\..\..\..\..\..\KDS_v3\toolchain\arm-none-eabi\lib\armv7e-m\fpu\libc.a(lib_a-fini.o)
 .bss           0x00000000        0x0 ..\..\..\..\..\..\..\..\KDS_v3\toolchain\arm-none-eabi\lib\armv7e-m\fpu\libc.a(lib_a-fini.o)
 .text          0x00000000        0x0 ..\..\..\..\..\..\..\..\KDS_v3\toolchain\arm-none-eabi\lib\armv7e-m\fpu\libc.a(lib_a-impure.o)
 .data          0x00000000        0x0 ..\..\..\..\..\..\..\..\KDS_v3\toolchain\arm-none-eabi\lib\armv7e-m\fpu\libc.a(lib_a-impure.o)
 .bss           0x00000000        0x0 ..\..\..\..\..\..\..\..\KDS_v3\toolchain\arm-none-eabi\lib\armv7e-m\fpu\libc.a(lib_a-impure.o)
 .data._impure_ptr
                0x00000000        0x4 ..\..\..\..\..\..\..\..\KDS_v3\toolchain\arm-none-eabi\lib\armv7e-m\fpu\libc.a(lib_a-impure.o)
 .text          0x00000000        0x0 ..\..\..\..\..\..\..\..\KDS_v3\toolchain\arm-none-eabi\lib\armv7e-m\fpu\libc.a(lib_a-init.o)
 .data          0x00000000        0x0 ..\..\..\..\..\..\..\..\KDS_v3\toolchain\arm-none-eabi\lib\armv7e-m\fpu\libc.a(lib_a-init.o)
 .bss           0x00000000        0x0 ..\..\..\..\..\..\..\..\KDS_v3\toolchain\arm-none-eabi\lib\armv7e-m\fpu\libc.a(lib_a-init.o)
 .data          0x00000000        0x0 ..\..\..\..\..\..\..\..\KDS_v3\toolchain\arm-none-eabi\lib\armv7e-m\fpu\libc.a(lib_a-memcpy.o)
 .bss           0x00000000        0x0 ..\..\..\..\..\..\..\..\KDS_v3\toolchain\arm-none-eabi\lib\armv7e-m\fpu\libc.a(lib_a-memcpy.o)
 .text          0x00000000        0x0 ..\..\..\..\..\..\..\..\KDS_v3\toolchain\arm-none-eabi\lib\armv7e-m\fpu\libc.a(lib_a-memset.o)
 .data          0x00000000        0x0 ..\..\..\..\..\..\..\..\KDS_v3\toolchain\arm-none-eabi\lib\armv7e-m\fpu\libc.a(lib_a-memset.o)
 .bss           0x00000000        0x0 ..\..\..\..\..\..\..\..\KDS_v3\toolchain\arm-none-eabi\lib\armv7e-m\fpu\libc.a(lib_a-memset.o)
 .text          0x00000000        0x0 ..\..\..\..\..\..\..\..\KDS_v3\toolchain\arm-none-eabi\lib\armv7e-m\fpu\libc.a(lib_a-s_modf.o)
 .data          0x00000000        0x0 ..\..\..\..\..\..\..\..\KDS_v3\toolchain\arm-none-eabi\lib\armv7e-m\fpu\libc.a(lib_a-s_modf.o)
 .bss           0x00000000        0x0 ..\..\..\..\..\..\..\..\KDS_v3\toolchain\arm-none-eabi\lib\armv7e-m\fpu\libc.a(lib_a-s_modf.o)
 .text          0x00000000        0x0 ..\..\..\..\..\..\..\..\KDS_v3\toolchain\arm-none-eabi\lib\armv7e-m\fpu\libc.a(lib_a-strncmp.o)
 .data          0x00000000        0x0 ..\..\..\..\..\..\..\..\KDS_v3\toolchain\arm-none-eabi\lib\armv7e-m\fpu\libc.a(lib_a-strncmp.o)
 .bss           0x00000000        0x0 ..\..\..\..\..\..\..\..\KDS_v3\toolchain\arm-none-eabi\lib\armv7e-m\fpu\libc.a(lib_a-strncmp.o)
 .text          0x00000000        0x0 ..\..\..\..\..\..\..\..\KDS_v3\toolchain\arm-none-eabi\lib\armv7e-m\fpu\libc.a(lib_a-strtod.o)
 .data          0x00000000        0x0 ..\..\..\..\..\..\..\..\KDS_v3\toolchain\arm-none-eabi\lib\armv7e-m\fpu\libc.a(lib_a-strtod.o)
 .bss           0x00000000        0x0 ..\..\..\..\..\..\..\..\KDS_v3\toolchain\arm-none-eabi\lib\armv7e-m\fpu\libc.a(lib_a-strtod.o)
 .text.sulp     0x00000000       0x3c ..\..\..\..\..\..\..\..\KDS_v3\toolchain\arm-none-eabi\lib\armv7e-m\fpu\libc.a(lib_a-strtod.o)
 .text._strtod_r
                0x00000000      0xf70 ..\..\..\..\..\..\..\..\KDS_v3\toolchain\arm-none-eabi\lib\armv7e-m\fpu\libc.a(lib_a-strtod.o)
 .text.strtod   0x00000000       0x10 ..\..\..\..\..\..\..\..\KDS_v3\toolchain\arm-none-eabi\lib\armv7e-m\fpu\libc.a(lib_a-strtod.o)
 .text.strtof   0x00000000       0x44 ..\..\..\..\..\..\..\..\KDS_v3\toolchain\arm-none-eabi\lib\armv7e-m\fpu\libc.a(lib_a-strtod.o)
 .rodata.fpi.5238
                0x00000000       0x14 ..\..\..\..\..\..\..\..\KDS_v3\toolchain\arm-none-eabi\lib\armv7e-m\fpu\libc.a(lib_a-strtod.o)
 .rodata.str1.4
                0x00000000       0x10 ..\..\..\..\..\..\..\..\KDS_v3\toolchain\arm-none-eabi\lib\armv7e-m\fpu\libc.a(lib_a-strtod.o)
 .rodata.fpinan.5274
                0x00000000       0x14 ..\..\..\..\..\..\..\..\KDS_v3\toolchain\arm-none-eabi\lib\armv7e-m\fpu\libc.a(lib_a-strtod.o)
 .rodata.tinytens
                0x00000000       0x28 ..\..\..\..\..\..\..\..\KDS_v3\toolchain\arm-none-eabi\lib\armv7e-m\fpu\libc.a(lib_a-strtod.o)
 .ARM.attributes
                0x00000000       0x34 ..\..\..\..\..\..\..\..\KDS_v3\toolchain\arm-none-eabi\lib\armv7e-m\fpu\libc.a(lib_a-strtod.o)
 .debug_frame   0x00000000       0x88 ..\..\..\..\..\..\..\..\KDS_v3\toolchain\arm-none-eabi\lib\armv7e-m\fpu\libc.a(lib_a-strtod.o)
 .text          0x00000000        0x0 ..\..\..\..\..\..\..\..\KDS_v3\toolchain\arm-none-eabi\lib\armv7e-m\fpu\libc.a(lib_a-__atexit.o)
 .data          0x00000000        0x0 ..\..\..\..\..\..\..\..\KDS_v3\toolchain\arm-none-eabi\lib\armv7e-m\fpu\libc.a(lib_a-__atexit.o)
 .bss           0x00000000        0x0 ..\..\..\..\..\..\..\..\KDS_v3\toolchain\arm-none-eabi\lib\armv7e-m\fpu\libc.a(lib_a-__atexit.o)
 .text          0x00000000        0x0 ..\..\..\..\..\..\..\..\KDS_v3\toolchain\arm-none-eabi\lib\armv7e-m\fpu\libc.a(lib_a-__call_atexit.o)
 .data          0x00000000        0x0 ..\..\..\..\..\..\..\..\KDS_v3\toolchain\arm-none-eabi\lib\armv7e-m\fpu\libc.a(lib_a-__call_atexit.o)
 .bss           0x00000000        0x0 ..\..\..\..\..\..\..\..\KDS_v3\toolchain\arm-none-eabi\lib\armv7e-m\fpu\libc.a(lib_a-__call_atexit.o)
 .text          0x00000000        0x0 ..\..\..\..\..\..\..\..\KDS_v3\toolchain\arm-none-eabi\lib\armv7e-m\fpu\libc.a(lib_a-gdtoa-gethex.o)
 .data          0x00000000        0x0 ..\..\..\..\..\..\..\..\KDS_v3\toolchain\arm-none-eabi\lib\armv7e-m\fpu\libc.a(lib_a-gdtoa-gethex.o)
 .bss           0x00000000        0x0 ..\..\..\..\..\..\..\..\KDS_v3\toolchain\arm-none-eabi\lib\armv7e-m\fpu\libc.a(lib_a-gdtoa-gethex.o)
 .text.rshift   0x00000000       0xa0 ..\..\..\..\..\..\..\..\KDS_v3\toolchain\arm-none-eabi\lib\armv7e-m\fpu\libc.a(lib_a-gdtoa-gethex.o)
 .text.__gethex
                0x00000000      0x530 ..\..\..\..\..\..\..\..\KDS_v3\toolchain\arm-none-eabi\lib\armv7e-m\fpu\libc.a(lib_a-gdtoa-gethex.o)
 .rodata.__hexdig
                0x00000000      0x100 ..\..\..\..\..\..\..\..\KDS_v3\toolchain\arm-none-eabi\lib\armv7e-m\fpu\libc.a(lib_a-gdtoa-gethex.o)
 .ARM.attributes
                0x00000000       0x34 ..\..\..\..\..\..\..\..\KDS_v3\toolchain\arm-none-eabi\lib\armv7e-m\fpu\libc.a(lib_a-gdtoa-gethex.o)
 .debug_frame   0x00000000       0x58 ..\..\..\..\..\..\..\..\KDS_v3\toolchain\arm-none-eabi\lib\armv7e-m\fpu\libc.a(lib_a-gdtoa-gethex.o)
 .text          0x00000000        0x0 ..\..\..\..\..\..\..\..\KDS_v3\toolchain\arm-none-eabi\lib\armv7e-m\fpu\libc.a(lib_a-gdtoa-hexnan.o)
 .data          0x00000000        0x0 ..\..\..\..\..\..\..\..\KDS_v3\toolchain\arm-none-eabi\lib\armv7e-m\fpu\libc.a(lib_a-gdtoa-hexnan.o)
 .bss           0x00000000        0x0 ..\..\..\..\..\..\..\..\KDS_v3\toolchain\arm-none-eabi\lib\armv7e-m\fpu\libc.a(lib_a-gdtoa-hexnan.o)
 .text.__hexnan
                0x00000000      0x194 ..\..\..\..\..\..\..\..\KDS_v3\toolchain\arm-none-eabi\lib\armv7e-m\fpu\libc.a(lib_a-gdtoa-hexnan.o)
 .ARM.attributes
                0x00000000       0x34 ..\..\..\..\..\..\..\..\KDS_v3\toolchain\arm-none-eabi\lib\armv7e-m\fpu\libc.a(lib_a-gdtoa-hexnan.o)
 .debug_frame   0x00000000       0x38 ..\..\..\..\..\..\..\..\KDS_v3\toolchain\arm-none-eabi\lib\armv7e-m\fpu\libc.a(lib_a-gdtoa-hexnan.o)
 .text          0x00000000        0x0 ..\..\..\..\..\..\..\..\KDS_v3\toolchain\arm-none-eabi\lib\armv7e-m\fpu\libc.a(lib_a-locale.o)
 .data          0x00000000        0x0 ..\..\..\..\..\..\..\..\KDS_v3\toolchain\arm-none-eabi\lib\armv7e-m\fpu\libc.a(lib_a-locale.o)
 .bss           0x00000000        0x0 ..\..\..\..\..\..\..\..\KDS_v3\toolchain\arm-none-eabi\lib\armv7e-m\fpu\libc.a(lib_a-locale.o)
 .text._setlocale_r
                0x00000000       0x40 ..\..\..\..\..\..\..\..\KDS_v3\toolchain\arm-none-eabi\lib\armv7e-m\fpu\libc.a(lib_a-locale.o)
 .text.__locale_charset
                0x00000000        0x8 ..\..\..\..\..\..\..\..\KDS_v3\toolchain\arm-none-eabi\lib\armv7e-m\fpu\libc.a(lib_a-locale.o)
 .text.__locale_mb_cur_max
                0x00000000        0xc ..\..\..\..\..\..\..\..\KDS_v3\toolchain\arm-none-eabi\lib\armv7e-m\fpu\libc.a(lib_a-locale.o)
 .text.__locale_msgcharset
                0x00000000        0x8 ..\..\..\..\..\..\..\..\KDS_v3\toolchain\arm-none-eabi\lib\armv7e-m\fpu\libc.a(lib_a-locale.o)
 .text.__locale_cjk_lang
                0x00000000        0x4 ..\..\..\..\..\..\..\..\KDS_v3\toolchain\arm-none-eabi\lib\armv7e-m\fpu\libc.a(lib_a-locale.o)
 .text._localeconv_r
                0x00000000        0x8 ..\..\..\..\..\..\..\..\KDS_v3\toolchain\arm-none-eabi\lib\armv7e-m\fpu\libc.a(lib_a-locale.o)
 .text.setlocale
                0x00000000       0x10 ..\..\..\..\..\..\..\..\KDS_v3\toolchain\arm-none-eabi\lib\armv7e-m\fpu\libc.a(lib_a-locale.o)
 .text.localeconv
                0x00000000        0x8 ..\..\..\..\..\..\..\..\KDS_v3\toolchain\arm-none-eabi\lib\armv7e-m\fpu\libc.a(lib_a-locale.o)
 .data.lc_message_charset
                0x00000000       0x20 ..\..\..\..\..\..\..\..\KDS_v3\toolchain\arm-none-eabi\lib\armv7e-m\fpu\libc.a(lib_a-locale.o)
 .bss._PathLocale
                0x00000000        0x4 ..\..\..\..\..\..\..\..\KDS_v3\toolchain\arm-none-eabi\lib\armv7e-m\fpu\libc.a(lib_a-locale.o)
 .bss.__nlocale_changed
                0x00000000        0x4 ..\..\..\..\..\..\..\..\KDS_v3\toolchain\arm-none-eabi\lib\armv7e-m\fpu\libc.a(lib_a-locale.o)
 .bss.__mlocale_changed
                0x00000000        0x4 ..\..\..\..\..\..\..\..\KDS_v3\toolchain\arm-none-eabi\lib\armv7e-m\fpu\libc.a(lib_a-locale.o)
 .data.lconv    0x00000000       0x38 ..\..\..\..\..\..\..\..\KDS_v3\toolchain\arm-none-eabi\lib\armv7e-m\fpu\libc.a(lib_a-locale.o)
 .rodata.str1.4
                0x00000000       0x14 ..\..\..\..\..\..\..\..\KDS_v3\toolchain\arm-none-eabi\lib\armv7e-m\fpu\libc.a(lib_a-locale.o)
 .data.lc_ctype_charset
                0x00000000       0x20 ..\..\..\..\..\..\..\..\KDS_v3\toolchain\arm-none-eabi\lib\armv7e-m\fpu\libc.a(lib_a-locale.o)
 .data.__mb_cur_max
                0x00000000        0x4 ..\..\..\..\..\..\..\..\KDS_v3\toolchain\arm-none-eabi\lib\armv7e-m\fpu\libc.a(lib_a-locale.o)
 .ARM.attributes
                0x00000000       0x34 ..\..\..\..\..\..\..\..\KDS_v3\toolchain\arm-none-eabi\lib\armv7e-m\fpu\libc.a(lib_a-locale.o)
 .debug_frame   0x00000000       0x98 ..\..\..\..\..\..\..\..\KDS_v3\toolchain\arm-none-eabi\lib\armv7e-m\fpu\libc.a(lib_a-locale.o)
 .text          0x00000000        0x0 ..\..\..\..\..\..\..\..\KDS_v3\toolchain\arm-none-eabi\lib\armv7e-m\fpu\libc.a(lib_a-mprec.o)
 .data          0x00000000        0x0 ..\..\..\..\..\..\..\..\KDS_v3\toolchain\arm-none-eabi\lib\armv7e-m\fpu\libc.a(lib_a-mprec.o)
 .bss           0x00000000        0x0 ..\..\..\..\..\..\..\..\KDS_v3\toolchain\arm-none-eabi\lib\armv7e-m\fpu\libc.a(lib_a-mprec.o)
 .text._Balloc  0x00000000       0x4c ..\..\..\..\..\..\..\..\KDS_v3\toolchain\arm-none-eabi\lib\armv7e-m\fpu\libc.a(lib_a-mprec.o)
 .text._Bfree   0x00000000       0x14 ..\..\..\..\..\..\..\..\KDS_v3\toolchain\arm-none-eabi\lib\armv7e-m\fpu\libc.a(lib_a-mprec.o)
 .text.__multadd
                0x00000000       0x98 ..\..\..\..\..\..\..\..\KDS_v3\toolchain\arm-none-eabi\lib\armv7e-m\fpu\libc.a(lib_a-mprec.o)
 .text.__s2b    0x00000000       0x98 ..\..\..\..\..\..\..\..\KDS_v3\toolchain\arm-none-eabi\lib\armv7e-m\fpu\libc.a(lib_a-mprec.o)
 .text.__hi0bits
                0x00000000       0x40 ..\..\..\..\..\..\..\..\KDS_v3\toolchain\arm-none-eabi\lib\armv7e-m\fpu\libc.a(lib_a-mprec.o)
 .text.__lo0bits
                0x00000000       0x5c ..\..\..\..\..\..\..\..\KDS_v3\toolchain\arm-none-eabi\lib\armv7e-m\fpu\libc.a(lib_a-mprec.o)
 .text.__i2b    0x00000000       0x14 ..\..\..\..\..\..\..\..\KDS_v3\toolchain\arm-none-eabi\lib\armv7e-m\fpu\libc.a(lib_a-mprec.o)
 .text.__multiply
                0x00000000      0x13c ..\..\..\..\..\..\..\..\KDS_v3\toolchain\arm-none-eabi\lib\armv7e-m\fpu\libc.a(lib_a-mprec.o)
 .text.__pow5mult
                0x00000000       0x9c ..\..\..\..\..\..\..\..\KDS_v3\toolchain\arm-none-eabi\lib\armv7e-m\fpu\libc.a(lib_a-mprec.o)
 .text.__lshift
                0x00000000       0xbc ..\..\..\..\..\..\..\..\KDS_v3\toolchain\arm-none-eabi\lib\armv7e-m\fpu\libc.a(lib_a-mprec.o)
 .text.__mcmp   0x00000000       0x48 ..\..\..\..\..\..\..\..\KDS_v3\toolchain\arm-none-eabi\lib\armv7e-m\fpu\libc.a(lib_a-mprec.o)
 .text.__mdiff  0x00000000       0xd4 ..\..\..\..\..\..\..\..\KDS_v3\toolchain\arm-none-eabi\lib\armv7e-m\fpu\libc.a(lib_a-mprec.o)
 .text.__ulp    0x00000000       0x50 ..\..\..\..\..\..\..\..\KDS_v3\toolchain\arm-none-eabi\lib\armv7e-m\fpu\libc.a(lib_a-mprec.o)
 .text.__b2d    0x00000000       0xb0 ..\..\..\..\..\..\..\..\KDS_v3\toolchain\arm-none-eabi\lib\armv7e-m\fpu\libc.a(lib_a-mprec.o)
 .text.__d2b    0x00000000       0xb4 ..\..\..\..\..\..\..\..\KDS_v3\toolchain\arm-none-eabi\lib\armv7e-m\fpu\libc.a(lib_a-mprec.o)
 .text.__ratio  0x00000000       0x54 ..\..\..\..\..\..\..\..\KDS_v3\toolchain\arm-none-eabi\lib\armv7e-m\fpu\libc.a(lib_a-mprec.o)
 .text._mprec_log10
                0x00000000       0x38 ..\..\..\..\..\..\..\..\KDS_v3\toolchain\arm-none-eabi\lib\armv7e-m\fpu\libc.a(lib_a-mprec.o)
 .text.__copybits
                0x00000000       0x48 ..\..\..\..\..\..\..\..\KDS_v3\toolchain\arm-none-eabi\lib\armv7e-m\fpu\libc.a(lib_a-mprec.o)
 .text.__any_on
                0x00000000       0x60 ..\..\..\..\..\..\..\..\KDS_v3\toolchain\arm-none-eabi\lib\armv7e-m\fpu\libc.a(lib_a-mprec.o)
 .rodata.__mprec_tens
                0x00000000       0xc8 ..\..\..\..\..\..\..\..\KDS_v3\toolchain\arm-none-eabi\lib\armv7e-m\fpu\libc.a(lib_a-mprec.o)
 .rodata.__mprec_bigtens
                0x00000000       0x28 ..\..\..\..\..\..\..\..\KDS_v3\toolchain\arm-none-eabi\lib\armv7e-m\fpu\libc.a(lib_a-mprec.o)
 .rodata.__mprec_tinytens
                0x00000000       0x28 ..\..\..\..\..\..\..\..\KDS_v3\toolchain\arm-none-eabi\lib\armv7e-m\fpu\libc.a(lib_a-mprec.o)
 .rodata.p05.5269
                0x00000000        0xc ..\..\..\..\..\..\..\..\KDS_v3\toolchain\arm-none-eabi\lib\armv7e-m\fpu\libc.a(lib_a-mprec.o)
 .ARM.attributes
                0x00000000       0x34 ..\..\..\..\..\..\..\..\KDS_v3\toolchain\arm-none-eabi\lib\armv7e-m\fpu\libc.a(lib_a-mprec.o)
 .debug_frame   0x00000000      0x22c ..\..\..\..\..\..\..\..\KDS_v3\toolchain\arm-none-eabi\lib\armv7e-m\fpu\libc.a(lib_a-mprec.o)
 .text          0x00000000        0x0 ..\..\..\..\..\..\..\..\KDS_v3\toolchain\arm-none-eabi\lib\armv7e-m\fpu\libc.a(lib_a-s_fpclassify.o)
 .data          0x00000000        0x0 ..\..\..\..\..\..\..\..\KDS_v3\toolchain\arm-none-eabi\lib\armv7e-m\fpu\libc.a(lib_a-s_fpclassify.o)
 .bss           0x00000000        0x0 ..\..\..\..\..\..\..\..\KDS_v3\toolchain\arm-none-eabi\lib\armv7e-m\fpu\libc.a(lib_a-s_fpclassify.o)
 .text.__fpclassifyd
                0x00000000       0x54 ..\..\..\..\..\..\..\..\KDS_v3\toolchain\arm-none-eabi\lib\armv7e-m\fpu\libc.a(lib_a-s_fpclassify.o)
 .ARM.attributes
                0x00000000       0x34 ..\..\..\..\..\..\..\..\KDS_v3\toolchain\arm-none-eabi\lib\armv7e-m\fpu\libc.a(lib_a-s_fpclassify.o)
 .debug_frame   0x00000000       0x28 ..\..\..\..\..\..\..\..\KDS_v3\toolchain\arm-none-eabi\lib\armv7e-m\fpu\libc.a(lib_a-s_fpclassify.o)
 .text          0x00000000        0x0 ..\..\..\..\..\..\..\..\KDS_v3\toolchain\arm-none-eabi\lib\armv7e-m\fpu\libc.a(lib_a-sf_nan.o)
 .data          0x00000000        0x0 ..\..\..\..\..\..\..\..\KDS_v3\toolchain\arm-none-eabi\lib\armv7e-m\fpu\libc.a(lib_a-sf_nan.o)
 .bss           0x00000000        0x0 ..\..\..\..\..\..\..\..\KDS_v3\toolchain\arm-none-eabi\lib\armv7e-m\fpu\libc.a(lib_a-sf_nan.o)
 .text.nanf     0x00000000        0xc ..\..\..\..\..\..\..\..\KDS_v3\toolchain\arm-none-eabi\lib\armv7e-m\fpu\libc.a(lib_a-sf_nan.o)
 .ARM.attributes
                0x00000000       0x34 ..\..\..\..\..\..\..\..\KDS_v3\toolchain\arm-none-eabi\lib\armv7e-m\fpu\libc.a(lib_a-sf_nan.o)
 .debug_frame   0x00000000       0x20 ..\..\..\..\..\..\..\..\KDS_v3\toolchain\arm-none-eabi\lib\armv7e-m\fpu\libc.a(lib_a-sf_nan.o)
 .data          0x00000000        0x0 ..\..\..\..\..\..\..\..\KDS_v3\toolchain\arm-none-eabi\lib\armv7e-m\fpu\libc.a(lib_a-strcmp.o)
 .bss           0x00000000        0x0 ..\..\..\..\..\..\..\..\KDS_v3\toolchain\arm-none-eabi\lib\armv7e-m\fpu\libc.a(lib_a-strcmp.o)
 .text          0x00000000        0x0 ..\..\..\..\..\..\..\..\KDS_v3\toolchain\arm-none-eabi\lib\armv7e-m\fpu\libc.a(lib_a-strlen.o)
 .data          0x00000000        0x0 ..\..\..\..\..\..\..\..\KDS_v3\toolchain\arm-none-eabi\lib\armv7e-m\fpu\libc.a(lib_a-strlen.o)
 .bss           0x00000000        0x0 ..\..\..\..\..\..\..\..\KDS_v3\toolchain\arm-none-eabi\lib\armv7e-m\fpu\libc.a(lib_a-strlen.o)
 .text          0x00000000        0x0 ..\..\..\..\..\..\..\..\KDS_v3\toolchain\arm-none-eabi\lib\armv7e-m\fpu\libc.a(lib_a-callocr.o)
 .data          0x00000000        0x0 ..\..\..\..\..\..\..\..\KDS_v3\toolchain\arm-none-eabi\lib\armv7e-m\fpu\libc.a(lib_a-callocr.o)
 .bss           0x00000000        0x0 ..\..\..\..\..\..\..\..\KDS_v3\toolchain\arm-none-eabi\lib\armv7e-m\fpu\libc.a(lib_a-callocr.o)
 .text._calloc_r
                0x00000000       0x60 ..\..\..\..\..\..\..\..\KDS_v3\toolchain\arm-none-eabi\lib\armv7e-m\fpu\libc.a(lib_a-callocr.o)
 .ARM.attributes
                0x00000000       0x34 ..\..\..\..\..\..\..\..\KDS_v3\toolchain\arm-none-eabi\lib\armv7e-m\fpu\libc.a(lib_a-callocr.o)
 .debug_frame   0x00000000       0x28 ..\..\..\..\..\..\..\..\KDS_v3\toolchain\arm-none-eabi\lib\armv7e-m\fpu\libc.a(lib_a-callocr.o)
 .text          0x00000000        0x0 ..\..\..\..\..\..\..\lib\twrk70f120m.kds\debug\bsp\bsp.a(mqx_main.o)
 .data          0x00000000        0x0 ..\..\..\..\..\..\..\lib\twrk70f120m.kds\debug\bsp\bsp.a(mqx_main.o)
 .bss           0x00000000        0x0 ..\..\..\..\..\..\..\lib\twrk70f120m.kds\debug\bsp\bsp.a(mqx_main.o)
 .text          0x00000000        0x0 ..\..\..\..\..\..\..\lib\twrk70f120m.kds\debug\bsp\bsp.a(mqx_init.o)
 .data          0x00000000        0x0 ..\..\..\..\..\..\..\lib\twrk70f120m.kds\debug\bsp\bsp.a(mqx_init.o)
 .bss           0x00000000        0x0 ..\..\..\..\..\..\..\lib\twrk70f120m.kds\debug\bsp\bsp.a(mqx_init.o)
 .text          0x00000000        0x0 ..\..\..\..\..\..\..\lib\twrk70f120m.kds\debug\bsp\bsp.a(init_hw.o)
 .data          0x00000000        0x0 ..\..\..\..\..\..\..\lib\twrk70f120m.kds\debug\bsp\bsp.a(init_hw.o)
 .bss           0x00000000        0x0 ..\..\..\..\..\..\..\lib\twrk70f120m.kds\debug\bsp\bsp.a(init_hw.o)
 .text._bsp_flexbus_lcd_setup
                0x00000000       0x30 ..\..\..\..\..\..\..\lib\twrk70f120m.kds\debug\bsp\bsp.a(init_hw.o)
 .text._bsp_flexbus_pccard_setup
                0x00000000       0x34 ..\..\..\..\..\..\..\lib\twrk70f120m.kds\debug\bsp\bsp.a(init_hw.o)
 .text          0x00000000        0x0 ..\..\..\..\..\..\..\lib\twrk70f120m.kds\debug\bsp\bsp.a(init_gpio.o)
 .data          0x00000000        0x0 ..\..\..\..\..\..\..\lib\twrk70f120m.kds\debug\bsp\bsp.a(init_gpio.o)
 .bss           0x00000000        0x0 ..\..\..\..\..\..\..\lib\twrk70f120m.kds\debug\bsp\bsp.a(init_gpio.o)
 .text._bsp_dspi_io_init
                0x00000000      0x100 ..\..\..\..\..\..\..\lib\twrk70f120m.kds\debug\bsp\bsp.a(init_gpio.o)
 .text._bsp_flexcan_io_init
                0x00000000       0xd0 ..\..\..\..\..\..\..\lib\twrk70f120m.kds\debug\bsp\bsp.a(init_gpio.o)
 .text._bsp_enet_io_init
                0x00000000       0x88 ..\..\..\..\..\..\..\lib\twrk70f120m.kds\debug\bsp\bsp.a(init_gpio.o)
 .text._bsp_usb_io_init
                0x00000000      0x1cc ..\..\..\..\..\..\..\lib\twrk70f120m.kds\debug\bsp\bsp.a(init_gpio.o)
 .text._bsp_usb_dev_io_init
                0x00000000       0x44 ..\..\..\..\..\..\..\lib\twrk70f120m.kds\debug\bsp\bsp.a(init_gpio.o)
 .text._bsp_usb_host_io_init
                0x00000000       0x44 ..\..\..\..\..\..\..\lib\twrk70f120m.kds\debug\bsp\bsp.a(init_gpio.o)
 .text._bsp_nandflash_io_init
                0x00000000      0x110 ..\..\..\..\..\..\..\lib\twrk70f120m.kds\debug\bsp\bsp.a(init_gpio.o)
 .text._bsp_ftfx_io_init
                0x00000000       0x44 ..\..\..\..\..\..\..\lib\twrk70f120m.kds\debug\bsp\bsp.a(init_gpio.o)
 .text._bsp_tss_io_init
                0x00000000       0x88 ..\..\..\..\..\..\..\lib\twrk70f120m.kds\debug\bsp\bsp.a(init_gpio.o)
 .text          0x00000000        0x0 ..\..\..\..\..\..\..\lib\twrk70f120m.kds\debug\bsp\bsp.a(init_bsp.o)
 .data          0x00000000        0x0 ..\..\..\..\..\..\..\lib\twrk70f120m.kds\debug\bsp\bsp.a(init_bsp.o)
 .bss           0x00000000        0x0 ..\..\..\..\..\..\..\lib\twrk70f120m.kds\debug\bsp\bsp.a(init_bsp.o)
 .data._mqx_bsp_revision
                0x00000000        0x4 ..\..\..\..\..\..\..\lib\twrk70f120m.kds\debug\bsp\bsp.a(init_bsp.o)
 .data._mqx_io_revision
                0x00000000        0x4 ..\..\..\..\..\..\..\lib\twrk70f120m.kds\debug\bsp\bsp.a(init_bsp.o)
 .text._bsp_exit_handler
                0x00000000       0x10 ..\..\..\..\..\..\..\lib\twrk70f120m.kds\debug\bsp\bsp.a(init_bsp.o)
 .text          0x00000000        0x0 ..\..\..\..\..\..\..\lib\twrk70f120m.kds\debug\bsp\bsp.a(init_adc.o)
 .data          0x00000000        0x0 ..\..\..\..\..\..\..\lib\twrk70f120m.kds\debug\bsp\bsp.a(init_adc.o)
 .bss           0x00000000        0x0 ..\..\..\..\..\..\..\lib\twrk70f120m.kds\debug\bsp\bsp.a(init_adc.o)
 .rodata._bsp_adc0_init
                0x00000000       0x18 ..\..\..\..\..\..\..\lib\twrk70f120m.kds\debug\bsp\bsp.a(init_adc.o)
 .rodata._bsp_adc2_init
                0x00000000       0x18 ..\..\..\..\..\..\..\lib\twrk70f120m.kds\debug\bsp\bsp.a(init_adc.o)
 .rodata._bsp_adc3_init
                0x00000000       0x18 ..\..\..\..\..\..\..\lib\twrk70f120m.kds\debug\bsp\bsp.a(init_adc.o)
 .text          0x00000000        0x0 ..\..\..\..\..\..\..\lib\twrk70f120m.kds\debug\bsp\bsp.a(bsp_cm.o)
 .data          0x00000000        0x0 ..\..\..\..\..\..\..\lib\twrk70f120m.kds\debug\bsp\bsp.a(bsp_cm.o)
 .bss           0x00000000        0x0 ..\..\..\..\..\..\..\lib\twrk70f120m.kds\debug\bsp\bsp.a(bsp_cm.o)
 .bss.SR_lock   0x00000000        0x1 ..\..\..\..\..\..\..\lib\twrk70f120m.kds\debug\bsp\bsp.a(bsp_cm.o)
 .text.Cpu_GetLLSWakeUpFlags
                0x00000000       0x54 ..\..\..\..\..\..\..\lib\twrk70f120m.kds\debug\bsp\bsp.a(bsp_cm.o)
 .text.Cpu_SetOperationMode
                0x00000000      0x160 ..\..\..\..\..\..\..\lib\twrk70f120m.kds\debug\bsp\bsp.a(bsp_cm.o)
 COMMON         0x00000000        0x1 ..\..\..\..\..\..\..\lib\twrk70f120m.kds\debug\bsp\bsp.a(bsp_cm.o)
 .text          0x00000000        0x0 ..\..\..\..\..\..\..\lib\twrk70f120m.kds\debug\bsp\bsp.a(serl_pol_kuart.o)
 .data          0x00000000        0x0 ..\..\..\..\..\..\..\lib\twrk70f120m.kds\debug\bsp\bsp.a(serl_pol_kuart.o)
 .bss           0x00000000        0x0 ..\..\..\..\..\..\..\lib\twrk70f120m.kds\debug\bsp\bsp.a(serl_pol_kuart.o)
 .text          0x00000000        0x0 ..\..\..\..\..\..\..\lib\twrk70f120m.kds\debug\bsp\bsp.a(serl_pol.o)
 .data          0x00000000        0x0 ..\..\..\..\..\..\..\lib\twrk70f120m.kds\debug\bsp\bsp.a(serl_pol.o)
 .bss           0x00000000        0x0 ..\..\..\..\..\..\..\lib\twrk70f120m.kds\debug\bsp\bsp.a(serl_pol.o)
 .text._io_serial_polled_uninstall
                0x00000000       0x64 ..\..\..\..\..\..\..\lib\twrk70f120m.kds\debug\bsp\bsp.a(serl_pol.o)
 .text          0x00000000        0x0 ..\..\..\..\..\..\..\lib\twrk70f120m.kds\debug\bsp\bsp.a(io_sinit.o)
 .data          0x00000000        0x0 ..\..\..\..\..\..\..\lib\twrk70f120m.kds\debug\bsp\bsp.a(io_sinit.o)
 .bss           0x00000000        0x0 ..\..\..\..\..\..\..\lib\twrk70f120m.kds\debug\bsp\bsp.a(io_sinit.o)
 .text          0x00000000        0x0 ..\..\..\..\..\..\..\lib\twrk70f120m.kds\debug\bsp\bsp.a(sai_dma.o)
 .data          0x00000000        0x0 ..\..\..\..\..\..\..\lib\twrk70f120m.kds\debug\bsp\bsp.a(sai_dma.o)
 .bss           0x00000000        0x0 ..\..\..\..\..\..\..\lib\twrk70f120m.kds\debug\bsp\bsp.a(sai_dma.o)
 .text          0x00000000        0x0 ..\..\..\..\..\..\..\lib\twrk70f120m.kds\debug\bsp\bsp.a(krtc.o)
 .data          0x00000000        0x0 ..\..\..\..\..\..\..\lib\twrk70f120m.kds\debug\bsp\bsp.a(krtc.o)
 .bss           0x00000000        0x0 ..\..\..\..\..\..\..\lib\twrk70f120m.kds\debug\bsp\bsp.a(krtc.o)
 .bss.rtc_handler
                0x00000000        0x8 ..\..\..\..\..\..\..\lib\twrk70f120m.kds\debug\bsp\bsp.a(krtc.o)
 .text._rtc_isr
                0x00000000       0xb0 ..\..\..\..\..\..\..\lib\twrk70f120m.kds\debug\bsp\bsp.a(krtc.o)
 .text._rtc_callback_reg
                0x00000000       0xac ..\..\..\..\..\..\..\lib\twrk70f120m.kds\debug\bsp\bsp.a(krtc.o)
 .text._rtc_set_time
                0x00000000       0x44 ..\..\..\..\..\..\..\lib\twrk70f120m.kds\debug\bsp\bsp.a(krtc.o)
 .text._rtc_get_time
                0x00000000       0x28 ..\..\..\..\..\..\..\lib\twrk70f120m.kds\debug\bsp\bsp.a(krtc.o)
 .text._rtc_set_alarm
                0x00000000       0x50 ..\..\..\..\..\..\..\lib\twrk70f120m.kds\debug\bsp\bsp.a(krtc.o)
 .text._rtc_get_alarm
                0x00000000       0x24 ..\..\..\..\..\..\..\lib\twrk70f120m.kds\debug\bsp\bsp.a(krtc.o)
 .text          0x00000000        0x0 ..\..\..\..\..\..\..\lib\twrk70f120m.kds\debug\bsp\bsp.a(i2c_pol_ki2c.o)
 .data          0x00000000        0x0 ..\..\..\..\..\..\..\lib\twrk70f120m.kds\debug\bsp\bsp.a(i2c_pol_ki2c.o)
 .bss           0x00000000        0x0 ..\..\..\..\..\..\..\lib\twrk70f120m.kds\debug\bsp\bsp.a(i2c_pol_ki2c.o)
 .text          0x00000000        0x0 ..\..\..\..\..\..\..\lib\twrk70f120m.kds\debug\bsp\bsp.a(i2c_mk70.o)
 .data          0x00000000        0x0 ..\..\..\..\..\..\..\lib\twrk70f120m.kds\debug\bsp\bsp.a(i2c_mk70.o)
 .bss           0x00000000        0x0 ..\..\..\..\..\..\..\lib\twrk70f120m.kds\debug\bsp\bsp.a(i2c_mk70.o)
 .text          0x00000000        0x0 ..\..\..\..\..\..\..\lib\twrk70f120m.kds\debug\bsp\bsp.a(i2c_int_ki2c_legacy.o)
 .data          0x00000000        0x0 ..\..\..\..\..\..\..\lib\twrk70f120m.kds\debug\bsp\bsp.a(i2c_int_ki2c_legacy.o)
 .bss           0x00000000        0x0 ..\..\..\..\..\..\..\lib\twrk70f120m.kds\debug\bsp\bsp.a(i2c_int_ki2c_legacy.o)
 .text          0x00000000        0x0 ..\..\..\..\..\..\..\lib\twrk70f120m.kds\debug\bsp\bsp.a(hwtimer_systick.o)
 .data          0x00000000        0x0 ..\..\..\..\..\..\..\lib\twrk70f120m.kds\debug\bsp\bsp.a(hwtimer_systick.o)
 .bss           0x00000000        0x0 ..\..\..\..\..\..\..\lib\twrk70f120m.kds\debug\bsp\bsp.a(hwtimer_systick.o)
 .text          0x00000000        0x0 ..\..\..\..\..\..\..\lib\twrk70f120m.kds\debug\bsp\bsp.a(hwtimer_kinetis.o)
 .data          0x00000000        0x0 ..\..\..\..\..\..\..\lib\twrk70f120m.kds\debug\bsp\bsp.a(hwtimer_kinetis.o)
 .bss           0x00000000        0x0 ..\..\..\..\..\..\..\lib\twrk70f120m.kds\debug\bsp\bsp.a(hwtimer_kinetis.o)
 .rodata.pit_vectors_table
                0x00000000       0x10 ..\..\..\..\..\..\..\lib\twrk70f120m.kds\debug\bsp\bsp.a(hwtimer_kinetis.o)
 .text.pit_io_init
                0x00000000       0x40 ..\..\..\..\..\..\..\lib\twrk70f120m.kds\debug\bsp\bsp.a(hwtimer_kinetis.o)
 .text.pit_get_vectors
                0x00000000       0x30 ..\..\..\..\..\..\..\lib\twrk70f120m.kds\debug\bsp\bsp.a(hwtimer_kinetis.o)
 .text.pit_get_hwtimers_array
                0x00000000       0x1c ..\..\..\..\..\..\..\lib\twrk70f120m.kds\debug\bsp\bsp.a(hwtimer_kinetis.o)
 .data.lpt_address
                0x00000000        0x4 ..\..\..\..\..\..\..\lib\twrk70f120m.kds\debug\bsp\bsp.a(hwtimer_kinetis.o)
 .rodata.lpt_vectors
                0x00000000        0x4 ..\..\..\..\..\..\..\lib\twrk70f120m.kds\debug\bsp\bsp.a(hwtimer_kinetis.o)
 .rodata.lpt_pcsclk
                0x00000000        0x4 ..\..\..\..\..\..\..\lib\twrk70f120m.kds\debug\bsp\bsp.a(hwtimer_kinetis.o)
 .text.lpt_get_base_address
                0x00000000       0x2c ..\..\..\..\..\..\..\lib\twrk70f120m.kds\debug\bsp\bsp.a(hwtimer_kinetis.o)
 .text.lpt_get_vector
                0x00000000       0x24 ..\..\..\..\..\..\..\lib\twrk70f120m.kds\debug\bsp\bsp.a(hwtimer_kinetis.o)
 .text.lpt_io_init
                0x00000000       0x3c ..\..\..\..\..\..\..\lib\twrk70f120m.kds\debug\bsp\bsp.a(hwtimer_kinetis.o)
 .text.lpt_validate_module
                0x00000000       0x30 ..\..\..\..\..\..\..\lib\twrk70f120m.kds\debug\bsp\bsp.a(hwtimer_kinetis.o)
 .text          0x00000000        0x0 ..\..\..\..\..\..\..\lib\twrk70f120m.kds\debug\bsp\bsp.a(hwtimer.o)
 .data          0x00000000        0x0 ..\..\..\..\..\..\..\lib\twrk70f120m.kds\debug\bsp\bsp.a(hwtimer.o)
 .bss           0x00000000        0x0 ..\..\..\..\..\..\..\lib\twrk70f120m.kds\debug\bsp\bsp.a(hwtimer.o)
 .text.hwtimer_set_period
                0x00000000       0xe0 ..\..\..\..\..\..\..\lib\twrk70f120m.kds\debug\bsp\bsp.a(hwtimer.o)
 .text.hwtimer_get_freq
                0x00000000       0x48 ..\..\..\..\..\..\..\lib\twrk70f120m.kds\debug\bsp\bsp.a(hwtimer.o)
 .text.hwtimer_get_period
                0x00000000       0x9c ..\..\..\..\..\..\..\lib\twrk70f120m.kds\debug\bsp\bsp.a(hwtimer.o)
 .text.hwtimer_stop
                0x00000000       0x44 ..\..\..\..\..\..\..\lib\twrk70f120m.kds\debug\bsp\bsp.a(hwtimer.o)
 .text.hwtimer_get_ticks
                0x00000000       0x28 ..\..\..\..\..\..\..\lib\twrk70f120m.kds\debug\bsp\bsp.a(hwtimer.o)
 .text.hwtimer_callback_block
                0x00000000       0x28 ..\..\..\..\..\..\..\lib\twrk70f120m.kds\debug\bsp\bsp.a(hwtimer.o)
 .text.hwtimer_callback_unblock
                0x00000000       0x54 ..\..\..\..\..\..\..\lib\twrk70f120m.kds\debug\bsp\bsp.a(hwtimer.o)
 .text.hwtimer_callback_cancel
                0x00000000       0x28 ..\..\..\..\..\..\..\lib\twrk70f120m.kds\debug\bsp\bsp.a(hwtimer.o)
 .text          0x00000000        0x0 ..\..\..\..\..\..\..\lib\twrk70f120m.kds\debug\bsp\bsp.a(esdhc.o)
 .data          0x00000000        0x0 ..\..\..\..\..\..\..\lib\twrk70f120m.kds\debug\bsp\bsp.a(esdhc.o)
 .bss           0x00000000        0x0 ..\..\..\..\..\..\..\lib\twrk70f120m.kds\debug\bsp\bsp.a(esdhc.o)
 .text          0x00000000        0x0 ..\..\..\..\..\..\..\lib\twrk70f120m.kds\debug\bsp\bsp.a(dma.o)
 .data          0x00000000        0x0 ..\..\..\..\..\..\..\lib\twrk70f120m.kds\debug\bsp\bsp.a(dma.o)
 .bss           0x00000000        0x0 ..\..\..\..\..\..\..\lib\twrk70f120m.kds\debug\bsp\bsp.a(dma.o)
 .text.dma_tcd_memcpy
                0x00000000       0x8c ..\..\..\..\..\..\..\lib\twrk70f120m.kds\debug\bsp\bsp.a(dma.o)
 .text.dma_channel_reset
                0x00000000       0x3c ..\..\..\..\..\..\..\lib\twrk70f120m.kds\debug\bsp\bsp.a(dma.o)
 .text          0x00000000        0x0 ..\..\..\..\..\..\..\lib\twrk70f120m.kds\debug\bsp\bsp.a(adc.o)
 .data          0x00000000        0x0 ..\..\..\..\..\..\..\lib\twrk70f120m.kds\debug\bsp\bsp.a(adc.o)
 .bss           0x00000000        0x0 ..\..\..\..\..\..\..\lib\twrk70f120m.kds\debug\bsp\bsp.a(adc.o)
 .text          0x00000000        0x0 ..\..\..\..\..\..\..\lib\twrk70f120m.kds\debug\bsp\bsp.a(init_usb.o)
 .data          0x00000000        0x0 ..\..\..\..\..\..\..\lib\twrk70f120m.kds\debug\bsp\bsp.a(init_usb.o)
 .bss           0x00000000        0x0 ..\..\..\..\..\..\..\lib\twrk70f120m.kds\debug\bsp\bsp.a(init_usb.o)
 .rodata._ehci0_dev_init_param
                0x00000000       0x18 ..\..\..\..\..\..\..\lib\twrk70f120m.kds\debug\bsp\bsp.a(init_usb.o)
 .rodata._ehci0_host_init_param
                0x00000000       0x1c ..\..\..\..\..\..\..\lib\twrk70f120m.kds\debug\bsp\bsp.a(init_usb.o)
 .rodata._khci0_dev_init_param
                0x00000000       0x10 ..\..\..\..\..\..\..\lib\twrk70f120m.kds\debug\bsp\bsp.a(init_usb.o)
 .rodata._khci0_host_init_param
                0x00000000        0xc ..\..\..\..\..\..\..\lib\twrk70f120m.kds\debug\bsp\bsp.a(init_usb.o)
 .data._bsp_usb_table
                0x00000000       0x10 ..\..\..\..\..\..\..\lib\twrk70f120m.kds\debug\bsp\bsp.a(init_usb.o)
 .debug_info    0x00000000      0xdc5 ..\..\..\..\..\..\..\lib\twrk70f120m.kds\debug\bsp\bsp.a(init_usb.o)
 .debug_abbrev  0x00000000      0x128 ..\..\..\..\..\..\..\lib\twrk70f120m.kds\debug\bsp\bsp.a(init_usb.o)
 .debug_aranges
                0x00000000       0x18 ..\..\..\..\..\..\..\lib\twrk70f120m.kds\debug\bsp\bsp.a(init_usb.o)
 .debug_macinfo
                0x00000000    0xa8184 ..\..\..\..\..\..\..\lib\twrk70f120m.kds\debug\bsp\bsp.a(init_usb.o)
 .debug_line    0x00000000     0x1036 ..\..\..\..\..\..\..\lib\twrk70f120m.kds\debug\bsp\bsp.a(init_usb.o)
 .debug_str     0x00000000      0xded ..\..\..\..\..\..\..\lib\twrk70f120m.kds\debug\bsp\bsp.a(init_usb.o)
 .comment       0x00000000       0x71 ..\..\..\..\..\..\..\lib\twrk70f120m.kds\debug\bsp\bsp.a(init_usb.o)
 .ARM.attributes
                0x00000000       0x39 ..\..\..\..\..\..\..\lib\twrk70f120m.kds\debug\bsp\bsp.a(init_usb.o)
 .text          0x00000000        0x0 ..\..\..\..\..\..\..\lib\twrk70f120m.kds\debug\bsp\bsp.a(init_sci.o)
 .data          0x00000000        0x0 ..\..\..\..\..\..\..\lib\twrk70f120m.kds\debug\bsp\bsp.a(init_sci.o)
 .bss           0x00000000        0x0 ..\..\..\..\..\..\..\lib\twrk70f120m.kds\debug\bsp\bsp.a(init_sci.o)
 .rodata._bsp_sci0_init
                0x00000000       0x24 ..\..\..\..\..\..\..\lib\twrk70f120m.kds\debug\bsp\bsp.a(init_sci.o)
 .rodata._bsp_sci1_init
                0x00000000       0x24 ..\..\..\..\..\..\..\lib\twrk70f120m.kds\debug\bsp\bsp.a(init_sci.o)
 .rodata._bsp_sci3_init
                0x00000000       0x24 ..\..\..\..\..\..\..\lib\twrk70f120m.kds\debug\bsp\bsp.a(init_sci.o)
 .rodata._bsp_sci4_init
                0x00000000       0x24 ..\..\..\..\..\..\..\lib\twrk70f120m.kds\debug\bsp\bsp.a(init_sci.o)
 .rodata._bsp_sci5_init
                0x00000000       0x24 ..\..\..\..\..\..\..\lib\twrk70f120m.kds\debug\bsp\bsp.a(init_sci.o)
 .text          0x00000000        0x0 ..\..\..\..\..\..\..\lib\twrk70f120m.kds\debug\bsp\bsp.a(init_sai.o)
 .data          0x00000000        0x0 ..\..\..\..\..\..\..\lib\twrk70f120m.kds\debug\bsp\bsp.a(init_sai.o)
 .bss           0x00000000        0x0 ..\..\..\..\..\..\..\lib\twrk70f120m.kds\debug\bsp\bsp.a(init_sai.o)
 .text          0x00000000        0x0 ..\..\..\..\..\..\..\lib\twrk70f120m.kds\debug\bsp\bsp.a(init_i2c.o)
 .data          0x00000000        0x0 ..\..\..\..\..\..\..\lib\twrk70f120m.kds\debug\bsp\bsp.a(init_i2c.o)
 .bss           0x00000000        0x0 ..\..\..\..\..\..\..\lib\twrk70f120m.kds\debug\bsp\bsp.a(init_i2c.o)
 .rodata._bsp_i2c1_init
                0x00000000       0x14 ..\..\..\..\..\..\..\lib\twrk70f120m.kds\debug\bsp\bsp.a(init_i2c.o)
 .text          0x00000000        0x0 ..\..\..\..\..\..\..\lib\twrk70f120m.kds\debug\bsp\bsp.a(init_esdhc.o)
 .data          0x00000000        0x0 ..\..\..\..\..\..\..\lib\twrk70f120m.kds\debug\bsp\bsp.a(init_esdhc.o)
 .bss           0x00000000        0x0 ..\..\..\..\..\..\..\lib\twrk70f120m.kds\debug\bsp\bsp.a(init_esdhc.o)
 .text          0x00000000        0x0 ..\..\..\..\..\..\..\lib\twrk70f120m.kds\debug\bsp\bsp.a(init_dma.o)
 .data          0x00000000        0x0 ..\..\..\..\..\..\..\lib\twrk70f120m.kds\debug\bsp\bsp.a(init_dma.o)
 .bss           0x00000000        0x0 ..\..\..\..\..\..\..\lib\twrk70f120m.kds\debug\bsp\bsp.a(init_dma.o)
 .text          0x00000000        0x0 ..\..\..\..\..\..\..\lib\twrk70f120m.kds\debug\bsp\bsp.a(serl_mk70.o)
 .data          0x00000000        0x0 ..\..\..\..\..\..\..\lib\twrk70f120m.kds\debug\bsp\bsp.a(serl_mk70.o)
 .bss           0x00000000        0x0 ..\..\..\..\..\..\..\lib\twrk70f120m.kds\debug\bsp\bsp.a(serl_mk70.o)
 .text._bsp_get_serial_error_int_num
                0x00000000       0x68 ..\..\..\..\..\..\..\lib\twrk70f120m.kds\debug\bsp\bsp.a(serl_mk70.o)
 .text._bsp_get_serial_tx_dma_request
                0x00000000       0x68 ..\..\..\..\..\..\..\lib\twrk70f120m.kds\debug\bsp\bsp.a(serl_mk70.o)
 .text._bsp_get_serial_rx_dma_request
                0x00000000       0x68 ..\..\..\..\..\..\..\lib\twrk70f120m.kds\debug\bsp\bsp.a(serl_mk70.o)
 .text          0x00000000        0x0 ..\..\..\..\..\..\..\lib\twrk70f120m.kds\debug\bsp\bsp.a(sai_dma_ksai.o)
 .data          0x00000000        0x0 ..\..\..\..\..\..\..\lib\twrk70f120m.kds\debug\bsp\bsp.a(sai_dma_ksai.o)
 .bss           0x00000000        0x0 ..\..\..\..\..\..\..\lib\twrk70f120m.kds\debug\bsp\bsp.a(sai_dma_ksai.o)
 .text          0x00000000        0x0 ..\..\..\..\..\..\..\lib\twrk70f120m.kds\debug\bsp\bsp.a(i2c_pol.o)
 .data          0x00000000        0x0 ..\..\..\..\..\..\..\lib\twrk70f120m.kds\debug\bsp\bsp.a(i2c_pol.o)
 .bss           0x00000000        0x0 ..\..\..\..\..\..\..\lib\twrk70f120m.kds\debug\bsp\bsp.a(i2c_pol.o)
 .text          0x00000000        0x0 ..\..\..\..\..\..\..\lib\twrk70f120m.kds\debug\bsp\bsp.a(i2c_int.o)
 .data          0x00000000        0x0 ..\..\..\..\..\..\..\lib\twrk70f120m.kds\debug\bsp\bsp.a(i2c_int.o)
 .bss           0x00000000        0x0 ..\..\..\..\..\..\..\lib\twrk70f120m.kds\debug\bsp\bsp.a(i2c_int.o)
 .text          0x00000000        0x0 ..\..\..\..\..\..\..\lib\twrk70f120m.kds\debug\bsp\bsp.a(esdhc_mk70.o)
 .data          0x00000000        0x0 ..\..\..\..\..\..\..\lib\twrk70f120m.kds\debug\bsp\bsp.a(esdhc_mk70.o)
 .bss           0x00000000        0x0 ..\..\..\..\..\..\..\lib\twrk70f120m.kds\debug\bsp\bsp.a(esdhc_mk70.o)
 .text          0x00000000        0x0 ..\..\..\..\..\..\..\lib\twrk70f120m.kds\debug\bsp\bsp.a(edma.o)
 .data          0x00000000        0x0 ..\..\..\..\..\..\..\lib\twrk70f120m.kds\debug\bsp\bsp.a(edma.o)
 .bss           0x00000000        0x0 ..\..\..\..\..\..\..\lib\twrk70f120m.kds\debug\bsp\bsp.a(edma.o)
 .text          0x00000000        0x0 ..\..\..\..\..\..\..\lib\twrk70f120m.kds\debug\bsp\bsp.a(adt_kpdb.o)
 .data          0x00000000        0x0 ..\..\..\..\..\..\..\lib\twrk70f120m.kds\debug\bsp\bsp.a(adt_kpdb.o)
 .bss           0x00000000        0x0 ..\..\..\..\..\..\..\lib\twrk70f120m.kds\debug\bsp\bsp.a(adt_kpdb.o)
 .text._bsp_get_pdb_base_address
                0x00000000       0x14 ..\..\..\..\..\..\..\lib\twrk70f120m.kds\debug\bsp\bsp.a(adt_kpdb.o)
 .text._pdb_get_prescaler
                0x00000000       0x30 ..\..\..\..\..\..\..\lib\twrk70f120m.kds\debug\bsp\bsp.a(adt_kpdb.o)
 .text._pdb_set_prescaler
                0x00000000       0x58 ..\..\..\..\..\..\..\lib\twrk70f120m.kds\debug\bsp\bsp.a(adt_kpdb.o)
 .text          0x00000000        0x0 ..\..\..\..\..\..\..\lib\twrk70f120m.kds\debug\bsp\bsp.a(adc_kadc.o)
 .data          0x00000000        0x0 ..\..\..\..\..\..\..\lib\twrk70f120m.kds\debug\bsp\bsp.a(adc_kadc.o)
 .bss           0x00000000        0x0 ..\..\..\..\..\..\..\lib\twrk70f120m.kds\debug\bsp\bsp.a(adc_kadc.o)
 .text          0x00000000        0x0 ..\..\..\..\..\..\..\lib\twrk70f120m.kds\debug\bsp\bsp.a(adc_mk70.o)
 .data          0x00000000        0x0 ..\..\..\..\..\..\..\lib\twrk70f120m.kds\debug\bsp\bsp.a(adc_mk70.o)
 .bss           0x00000000        0x0 ..\..\..\..\..\..\..\lib\twrk70f120m.kds\debug\bsp\bsp.a(adc_mk70.o)
 .text          0x00000000        0x0 ..\..\..\..\..\..\..\lib\twrk70f120m.kds\debug\bsp\bsp.a(sai_mk70.o)
 .data          0x00000000        0x0 ..\..\..\..\..\..\..\lib\twrk70f120m.kds\debug\bsp\bsp.a(sai_mk70.o)
 .bss           0x00000000        0x0 ..\..\..\..\..\..\..\lib\twrk70f120m.kds\debug\bsp\bsp.a(sai_mk70.o)
 .text          0x00000000        0x0 ..\..\..\..\..\..\..\lib\twrk70f120m.kds\debug\bsp\bsp.a(edma_kinetisf.o)
 .data          0x00000000        0x0 ..\..\..\..\..\..\..\lib\twrk70f120m.kds\debug\bsp\bsp.a(edma_kinetisf.o)
 .bss           0x00000000        0x0 ..\..\..\..\..\..\..\lib\twrk70f120m.kds\debug\bsp\bsp.a(edma_kinetisf.o)
 .text          0x00000000        0x0 ..\..\..\..\..\..\..\lib\twrk70f120m.kds\debug\psp\psp.a(lwevent.o)
 .data          0x00000000        0x0 ..\..\..\..\..\..\..\lib\twrk70f120m.kds\debug\psp\psp.a(lwevent.o)
 .bss           0x00000000        0x0 ..\..\..\..\..\..\..\lib\twrk70f120m.kds\debug\psp\psp.a(lwevent.o)
 .text._lwevent_set_auto_clear
                0x00000000       0xac ..\..\..\..\..\..\..\lib\twrk70f120m.kds\debug\psp\psp.a(lwevent.o)
 .text._lwevent_test
                0x00000000      0x14c ..\..\..\..\..\..\..\lib\twrk70f120m.kds\debug\psp\psp.a(lwevent.o)
 .text._lwevent_wait_for
                0x00000000       0x80 ..\..\..\..\..\..\..\lib\twrk70f120m.kds\debug\psp\psp.a(lwevent.o)
 .text._lwevent_wait_until
                0x00000000       0x80 ..\..\..\..\..\..\..\lib\twrk70f120m.kds\debug\psp\psp.a(lwevent.o)
 .text          0x00000000        0x0 ..\..\..\..\..\..\..\lib\twrk70f120m.kds\debug\psp\psp.a(io_instx.o)
 .data          0x00000000        0x0 ..\..\..\..\..\..\..\lib\twrk70f120m.kds\debug\psp\psp.a(io_instx.o)
 .bss           0x00000000        0x0 ..\..\..\..\..\..\..\lib\twrk70f120m.kds\debug\psp\psp.a(io_instx.o)
 .text          0x00000000        0x0 ..\..\..\..\..\..\..\lib\twrk70f120m.kds\debug\psp\psp.a(io_inst.o)
 .data          0x00000000        0x0 ..\..\..\..\..\..\..\lib\twrk70f120m.kds\debug\psp\psp.a(io_inst.o)
 .bss           0x00000000        0x0 ..\..\..\..\..\..\..\lib\twrk70f120m.kds\debug\psp\psp.a(io_inst.o)
 .text          0x00000000        0x0 ..\..\..\..\..\..\..\lib\twrk70f120m.kds\debug\psp\psp.a(io_init.o)
 .data          0x00000000        0x0 ..\..\..\..\..\..\..\lib\twrk70f120m.kds\debug\psp\psp.a(io_init.o)
 .bss           0x00000000        0x0 ..\..\..\..\..\..\..\lib\twrk70f120m.kds\debug\psp\psp.a(io_init.o)
 .text          0x00000000        0x0 ..\..\..\..\..\..\..\lib\twrk70f120m.kds\debug\psp\psp.a(io_fopen.o)
 .data          0x00000000        0x0 ..\..\..\..\..\..\..\lib\twrk70f120m.kds\debug\psp\psp.a(io_fopen.o)
 .bss           0x00000000        0x0 ..\..\..\..\..\..\..\lib\twrk70f120m.kds\debug\psp\psp.a(io_fopen.o)
 .text          0x00000000        0x0 ..\..\..\..\..\..\..\lib\twrk70f120m.kds\debug\psp\psp.a(psp_iinit.o)
 .data          0x00000000        0x0 ..\..\..\..\..\..\..\lib\twrk70f120m.kds\debug\psp\psp.a(psp_iinit.o)
 .bss           0x00000000        0x0 ..\..\..\..\..\..\..\lib\twrk70f120m.kds\debug\psp\psp.a(psp_iinit.o)
 .text          0x00000000        0x0 ..\..\..\..\..\..\..\lib\twrk70f120m.kds\debug\psp\psp.a(kinetis_mpu.o)
 .data          0x00000000        0x0 ..\..\..\..\..\..\..\lib\twrk70f120m.kds\debug\psp\psp.a(kinetis_mpu.o)
 .bss           0x00000000        0x0 ..\..\..\..\..\..\..\lib\twrk70f120m.kds\debug\psp\psp.a(kinetis_mpu.o)
 .text._kinetis_mpu_enable
                0x00000000       0x20 ..\..\..\..\..\..\..\lib\twrk70f120m.kds\debug\psp\psp.a(kinetis_mpu.o)
 .text._kinetis_mpu_init
                0x00000000       0x48 ..\..\..\..\..\..\..\lib\twrk70f120m.kds\debug\psp\psp.a(kinetis_mpu.o)
 .text._kinetis_mpu_add_region
                0x00000000       0x9c ..\..\..\..\..\..\..\lib\twrk70f120m.kds\debug\psp\psp.a(kinetis_mpu.o)
 .text._kinetis_mpu_sw_check
                0x00000000       0xc4 ..\..\..\..\..\..\..\lib\twrk70f120m.kds\debug\psp\psp.a(kinetis_mpu.o)
 .text._kinetis_mpu_sw_check_mask
                0x00000000       0xd0 ..\..\..\..\..\..\..\lib\twrk70f120m.kds\debug\psp\psp.a(kinetis_mpu.o)
 .text          0x00000000        0x0 ..\..\..\..\..\..\..\lib\twrk70f120m.kds\debug\psp\psp.a(int_vtab.o)
 .data          0x00000000        0x0 ..\..\..\..\..\..\..\lib\twrk70f120m.kds\debug\psp\psp.a(int_vtab.o)
 .bss           0x00000000        0x0 ..\..\..\..\..\..\..\lib\twrk70f120m.kds\debug\psp\psp.a(int_vtab.o)
 .text._int_get_vector_table
                0x00000000       0x1c ..\..\..\..\..\..\..\lib\twrk70f120m.kds\debug\psp\psp.a(int_vtab.o)
 .text          0x00000000        0x0 ..\..\..\..\..\..\..\lib\twrk70f120m.kds\debug\psp\psp.a(int_inst.o)
 .data          0x00000000        0x0 ..\..\..\..\..\..\..\lib\twrk70f120m.kds\debug\psp\psp.a(int_inst.o)
 .bss           0x00000000        0x0 ..\..\..\..\..\..\..\lib\twrk70f120m.kds\debug\psp\psp.a(int_inst.o)
 .text          0x00000000        0x0 ..\..\..\..\..\..\..\lib\twrk70f120m.kds\debug\psp\psp.a(cache.o)
 .data          0x00000000        0x0 ..\..\..\..\..\..\..\lib\twrk70f120m.kds\debug\psp\psp.a(cache.o)
 .bss           0x00000000        0x0 ..\..\..\..\..\..\..\lib\twrk70f120m.kds\debug\psp\psp.a(cache.o)
 .text._dcache_disable
                0x00000000       0x18 ..\..\..\..\..\..\..\lib\twrk70f120m.kds\debug\psp\psp.a(cache.o)
 .text._dcache_invalidate
                0x00000000       0x2c ..\..\..\..\..\..\..\lib\twrk70f120m.kds\debug\psp\psp.a(cache.o)
 .text._dcache_flush
                0x00000000       0x2c ..\..\..\..\..\..\..\lib\twrk70f120m.kds\debug\psp\psp.a(cache.o)
 .text._icache_disable
                0x00000000       0x18 ..\..\..\..\..\..\..\lib\twrk70f120m.kds\debug\psp\psp.a(cache.o)
 .text._icache_invalidate
                0x00000000       0x28 ..\..\..\..\..\..\..\lib\twrk70f120m.kds\debug\psp\psp.a(cache.o)
 .text._icache_invalidate_line
                0x00000000       0x3c ..\..\..\..\..\..\..\lib\twrk70f120m.kds\debug\psp\psp.a(cache.o)
 .text._icache_invalidate_mlines
                0x00000000       0x34 ..\..\..\..\..\..\..\lib\twrk70f120m.kds\debug\psp\psp.a(cache.o)
 .text._icache_flush
                0x00000000       0x28 ..\..\..\..\..\..\..\lib\twrk70f120m.kds\debug\psp\psp.a(cache.o)
 .text._icache_flush_line
                0x00000000       0x3c ..\..\..\..\..\..\..\lib\twrk70f120m.kds\debug\psp\psp.a(cache.o)
 .text._icache_flush_mlines
                0x00000000       0x34 ..\..\..\..\..\..\..\lib\twrk70f120m.kds\debug\psp\psp.a(cache.o)
 .text          0x00000000       0xa0 ..\..\..\..\..\..\..\..\KDS_v3\toolchain\lib\gcc\arm-none-eabi\4.8.4\armv7e-m\fpu\libgcc.a(_arm_truncdfsf2.o)
 .data          0x00000000        0x0 ..\..\..\..\..\..\..\..\KDS_v3\toolchain\lib\gcc\arm-none-eabi\4.8.4\armv7e-m\fpu\libgcc.a(_arm_truncdfsf2.o)
 .bss           0x00000000        0x0 ..\..\..\..\..\..\..\..\KDS_v3\toolchain\lib\gcc\arm-none-eabi\4.8.4\armv7e-m\fpu\libgcc.a(_arm_truncdfsf2.o)
 .ARM.attributes
                0x00000000       0x22 ..\..\..\..\..\..\..\..\KDS_v3\toolchain\lib\gcc\arm-none-eabi\4.8.4\armv7e-m\fpu\libgcc.a(_arm_truncdfsf2.o)

Memory Configuration

Name             Origin             Length             Attributes
vectorrom        0x00000000         0x00000400         xr
cfmprotrom       0x00000400         0x00000020         r
rom              0x00000420         0x000ffbe0         xr
ram              0x70000000         0x08000000         rw
sram             0x1fff0000         0x00020000         rw
end_of_kd        0x77fffff0         0x00000000         rw
bstack           0x2000fa00         0x00000200         rw
end_bstack       0x2000fc00         0x00000000         rw
*default*        0x00000000         0xffffffff

Linker script and memory map

START GROUP
LOAD Sources\gpio.o
LOAD ..\..\..\..\..\..\..\lib\twrk70f120m.kds\debug\bsp\bsp.a
LOAD ..\..\..\..\..\..\..\lib\twrk70f120m.kds\debug\psp\psp.a
LOAD ..\..\..\..\..\..\..\..\KDS_v3\toolchain\lib\gcc\arm-none-eabi\4.8.4\armv7e-m\fpu\libgcc.a
LOAD ..\..\..\..\..\..\..\..\KDS_v3\toolchain\arm-none-eabi\lib\armv7e-m\fpu\libc.a
LOAD ..\..\..\..\..\..\..\..\KDS_v3\toolchain\arm-none-eabi\lib\armv7e-m\fpu\libsupc++.a
LOAD ..\..\..\..\..\..\..\..\KDS_v3\toolchain\arm-none-eabi\lib\armv7e-m\fpu\libm.a
LOAD ..\..\..\..\..\..\..\..\KDS_v3\toolchain\arm-none-eabi\lib\armv7e-m\fpu\libnosys.a
END GROUP
                0x1fff0000                __INTERNAL_SRAM_BASE = 0x1fff0000
                0x00020000                __INTERNAL_SRAM_SIZE = 0x20000
                0x00000000                __INTERNAL_FLASH_BASE = 0x0
                0x00100000                __INTERNAL_FLASH_SIZE = 0x100000
                0x00000000                __INTERNAL_FLEXNVM_BASE = 0x0
                0x00000000                __INTERNAL_FLEXNVM_SIZE = 0x0
                0x2000fff0                __UNCACHED_DATA_END = 0x2000fff0
                0xa0000000                __EXTERNAL_MRAM_BASE = 0xa0000000
                0x00080000                __EXTERNAL_MRAM_SIZE = 0x80000
                0xa0000000                __EXTERNAL_MRAM_ROM_BASE = 0xa0000000
                0x00000000                __EXTERNAL_MRAM_ROM_SIZE = 0x0
                0xa0000000                __EXTERNAL_MRAM_RAM_BASE = 0xa0000000
                0x00080000                __EXTERNAL_MRAM_RAM_SIZE = 0x80000
                0x70000000                __EXTERNAL_DDR2_RAM_BASE = 0x70000000
                0x08000000                __EXTERNAL_DDR2_RAM_SIZE = 0x8000000
                0xa0000000                __EXTERNAL_LCD_BASE = 0xa0000000
                0x0001ffff                __EXTERNAL_LCD_SIZE = 0x1ffff
                0xa0010000                __EXTERNAL_LCD_DC_BASE = 0xa0010000
                0x00000001                __DEFAULT_PROCESSOR_NUMBER = 0x1
                0x00000400                __DEFAULT_INTERRUPT_STACK_SIZE = 0x400
                0x00000000                __KERNEL_DATA_VERIFY_ENABLE = 0x0
                0x00001000                __FLASHX_SECT_SIZE = 0x1000

.vectors        0x00000000      0x400
                0x00000000                __vector_table = .
                0x00000000                __VECTOR_TABLE_ROM_START = __vector_table
 *(.vectors_rom)
 .vectors_rom   0x00000000      0x400 ..\..\..\..\..\..\..\lib\twrk70f120m.kds\debug\bsp\bsp.a(vectors.o)
                0x00000400                . = ALIGN (0x4)

.cfmprotect     0x00000400       0x10
 *(.cfmconfig)
 .cfmconfig     0x00000400       0x10 ..\..\..\..\..\..\..\lib\twrk70f120m.kds\debug\bsp\bsp.a(vectors.o)
                0x00000400                _cfm
                0x00000410                . = ALIGN (0x4)

.text           0x00000420    0x181f8
 *(KERNEL)
 KERNEL         0x00000420      0x3ec ..\..\..\..\..\..\..\lib\twrk70f120m.kds\debug\psp\psp.a(dispatch.o)
                0x00000420                _sched_start_internal
                0x00000424                _sched_run_internal
                0x0000042a                _sched_check_scheduler_internal
                0x00000448                _sched_execute_scheduler_internal
                0x0000044c                _mqx_api_call
                0x00000450                _task_block
                0x00000454                _svc_handler
                0x000004ee                _pend_svc
                0x000005da                _int_kernel_isr
                0x000006d0                _psp_exception_return
                0x0000070c                _psp_save_fp_context_internal
                0x00000740                _mem_test_and_set
                0x0000075e                __get_PSP
                0x00000764                __get_MSP
                0x0000076a                __set_MSP
                0x00000770                __get_PSR
                0x00000776                __enable_interrupt
                0x0000077a                __disable_interrupt
                0x0000077e                __get_LR
                0x00000782                __get_PC
                0x00000786                __get_CONTROL
                0x0000078c                _sleep_p3_start
                0x00000794                _sleep_p3
                0x00000796                _sleep_p3_loop
                0x000007cc                _sleep_p3_wfi
                0x000007e2                _sleep_p3_end
 *(.text*)
 .text.int_service_routine
                0x0000080c       0x20 Sources\gpio.o
                0x0000080c                int_service_routine
 .text.main_task
                0x0000082c      0x224 Sources\gpio.o
                0x0000082c                main_task
 .text.lwgpio_init
                0x00000a50       0x84 ..\..\..\..\..\..\..\lib\twrk70f120m.kds\debug\bsp\bsp.a(lwgpio_kgpio.o)
                0x00000a50                lwgpio_init
 .text.lwgpio_set_attribute
                0x00000ad4      0x1cc ..\..\..\..\..\..\..\lib\twrk70f120m.kds\debug\bsp\bsp.a(lwgpio_kgpio.o)
                0x00000ad4                lwgpio_set_attribute
 .text.lwgpio_set_functionality
                0x00000ca0       0x3c ..\..\..\..\..\..\..\lib\twrk70f120m.kds\debug\bsp\bsp.a(lwgpio_kgpio.o)
                0x00000ca0                lwgpio_set_functionality
 .text.lwgpio_set_direction
                0x00000cdc       0x64 ..\..\..\..\..\..\..\lib\twrk70f120m.kds\debug\bsp\bsp.a(lwgpio_kgpio.o)
                0x00000cdc                lwgpio_set_direction
 .text.lwgpio_set_value
                0x00000d40       0x38 ..\..\..\..\..\..\..\lib\twrk70f120m.kds\debug\bsp\bsp.a(lwgpio_kgpio.o)
                0x00000d40                lwgpio_set_value
 .text.lwgpio_get_value
                0x00000d78       0x54 ..\..\..\..\..\..\..\lib\twrk70f120m.kds\debug\bsp\bsp.a(lwgpio_kgpio.o)
                0x00000d78                lwgpio_get_value
 .text.lwgpio_int_init
                0x00000dcc       0x58 ..\..\..\..\..\..\..\lib\twrk70f120m.kds\debug\bsp\bsp.a(lwgpio_kgpio.o)
                0x00000dcc                lwgpio_int_init
 .text.lwgpio_int_enable
                0x00000e24       0x54 ..\..\..\..\..\..\..\lib\twrk70f120m.kds\debug\bsp\bsp.a(lwgpio_kgpio.o)
                0x00000e24                lwgpio_int_enable
 .text.lwgpio_int_clear_flag
                0x00000e78       0x24 ..\..\..\..\..\..\..\lib\twrk70f120m.kds\debug\bsp\bsp.a(lwgpio_kgpio.o)
                0x00000e78                lwgpio_int_clear_flag
 .text.lwgpio_int_get_vector
                0x00000e9c       0x20 ..\..\..\..\..\..\..\lib\twrk70f120m.kds\debug\bsp\bsp.a(lwgpio_kgpio.o)
                0x00000e9c                lwgpio_int_get_vector
 .text._time_delay
                0x00000ebc       0xfc ..\..\..\..\..\..\..\lib\twrk70f120m.kds\debug\psp\psp.a(time.o)
                0x00000ebc                _time_delay
 .text._time_delay_for
                0x00000fb8       0xd8 ..\..\..\..\..\..\..\lib\twrk70f120m.kds\debug\psp\psp.a(time.o)
                0x00000fb8                _time_delay_for
 .text._time_delay_internal
                0x00001090       0xbc ..\..\..\..\..\..\..\lib\twrk70f120m.kds\debug\psp\psp.a(time.o)
                0x00001090                _time_delay_internal
 .text._time_delay_until
                0x0000114c       0xd4 ..\..\..\..\..\..\..\lib\twrk70f120m.kds\debug\psp\psp.a(time.o)
                0x0000114c                _time_delay_until
 .text._time_diff_ticks
                0x00001220       0x38 ..\..\..\..\..\..\..\lib\twrk70f120m.kds\debug\psp\psp.a(time.o)
                0x00001220                _time_diff_ticks
 .text._time_diff_milliseconds
                0x00001258       0x30 ..\..\..\..\..\..\..\lib\twrk70f120m.kds\debug\psp\psp.a(time.o)
                0x00001258                _time_diff_milliseconds
 .text._time_get_hwticks
                0x00001288       0x38 ..\..\..\..\..\..\..\lib\twrk70f120m.kds\debug\psp\psp.a(time.o)
                0x00001288                _time_get_hwticks
 .text._time_get_ticks
                0x000012c0       0x58 ..\..\..\..\..\..\..\lib\twrk70f120m.kds\debug\psp\psp.a(time.o)
                0x000012c0                _time_get_ticks
 .text._time_notify_kernel
                0x00001318      0x130 ..\..\..\..\..\..\..\lib\twrk70f120m.kds\debug\psp\psp.a(time.o)
                0x00001318                _time_notify_kernel
 .text._time_set_ticks_per_sec
                0x00001448       0x20 ..\..\..\..\..\..\..\lib\twrk70f120m.kds\debug\psp\psp.a(time.o)
                0x00001448                _time_set_ticks_per_sec
 .text._time_set_hwtick_function
                0x00001468       0x28 ..\..\..\..\..\..\..\lib\twrk70f120m.kds\debug\psp\psp.a(time.o)
                0x00001468                _time_set_hwtick_function
 .text._time_set_hwticks_per_tick
                0x00001490       0x20 ..\..\..\..\..\..\..\lib\twrk70f120m.kds\debug\psp\psp.a(time.o)
                0x00001490                _time_set_hwticks_per_tick
 .text._task_destroy_internal
                0x000014b0      0x450 ..\..\..\..\..\..\..\lib\twrk70f120m.kds\debug\psp\psp.a(task.o)
                0x000014b0                _task_destroy_internal
 .text._task_destroy
                0x00001900       0x1c ..\..\..\..\..\..\..\lib\twrk70f120m.kds\debug\psp\psp.a(task.o)
                0x00001900                _task_destroy
 .text._task_get_id_from_name
                0x0000191c       0x8c ..\..\..\..\..\..\..\lib\twrk70f120m.kds\debug\psp\psp.a(task.o)
                0x0000191c                _task_get_id_from_name
 .text._task_stop_preemption
                0x000019a8       0x6c ..\..\..\..\..\..\..\lib\twrk70f120m.kds\debug\psp\psp.a(task.o)
                0x000019a8                _task_stop_preemption
 .text._task_get_td
                0x00001a14       0x7c ..\..\..\..\..\..\..\lib\twrk70f120m.kds\debug\psp\psp.a(task.o)
                0x00001a14                _task_get_td
 .text._task_set_error
                0x00001a90       0x88 ..\..\..\..\..\..\..\lib\twrk70f120m.kds\debug\psp\psp.a(task.o)
                0x00001a90                _task_set_error
 .text._task_exit_function_internal
                0x00001b18       0x5c ..\..\..\..\..\..\..\lib\twrk70f120m.kds\debug\psp\psp.a(task.o)
                0x00001b18                _task_exit_function_internal
 .text._task_init_internal
                0x00001b74      0x21c ..\..\..\..\..\..\..\lib\twrk70f120m.kds\debug\psp\psp.a(task.o)
                0x00001b74                _task_init_internal
 .text._task_fill_stack_internal
                0x00001d90       0x38 ..\..\..\..\..\..\..\lib\twrk70f120m.kds\debug\psp\psp.a(task.o)
                0x00001d90                _task_fill_stack_internal
 .text._task_ready_internal
                0x00001dc8       0x88 ..\..\..\..\..\..\..\lib\twrk70f120m.kds\debug\psp\psp.a(task.o)
                0x00001dc8                _task_ready_internal
 .text._task_alloc_td_internal
                0x00001e50      0x13c ..\..\..\..\..\..\..\lib\twrk70f120m.kds\debug\psp\psp.a(task.o)
                0x00001e50                _task_alloc_td_internal
 .text._task_set_error_td_internal
                0x00001f8c       0x7c ..\..\..\..\..\..\..\lib\twrk70f120m.kds\debug\psp\psp.a(task.o)
                0x00001f8c                _task_set_error_td_internal
 .text._sched_yield
                0x00002008       0x8c ..\..\..\..\..\..\..\lib\twrk70f120m.kds\debug\psp\psp.a(sched.o)
                0x00002008                _sched_yield
 .text._queue_init
                0x00002094       0x30 ..\..\..\..\..\..\..\lib\twrk70f120m.kds\debug\psp\psp.a(queue.o)
                0x00002094                _queue_init
 .text._queue_enqueue
                0x000020c4       0x68 ..\..\..\..\..\..\..\lib\twrk70f120m.kds\debug\psp\psp.a(queue.o)
                0x000020c4                _queue_enqueue
 .text._queue_dequeue
                0x0000212c       0x54 ..\..\..\..\..\..\..\lib\twrk70f120m.kds\debug\psp\psp.a(queue.o)
                0x0000212c                _queue_dequeue
 .text._queue_insert
                0x00002180       0x70 ..\..\..\..\..\..\..\lib\twrk70f120m.kds\debug\psp\psp.a(queue.o)
                0x00002180                _queue_insert
 .text._mqx     0x000021f0      0x2b0 ..\..\..\..\..\..\..\lib\twrk70f120m.kds\debug\psp\psp.a(mqx.o)
                0x000021f0                _mqx
 .text._mqx_exit
                0x000024a0       0x40 ..\..\..\..\..\..\..\lib\twrk70f120m.kds\debug\psp\psp.a(mqx.o)
                0x000024a0                _mqx_exit
 .text._mqx_context_switch_internal
                0x000024e0       0xc0 ..\..\..\..\..\..\..\lib\twrk70f120m.kds\debug\psp\psp.a(mqx.o)
                0x000024e0                _mqx_context_switch_internal
 .text._mqx_set_cpu_type
                0x000025a0       0x24 ..\..\..\..\..\..\..\lib\twrk70f120m.kds\debug\psp\psp.a(mqx.o)
                0x000025a0                _mqx_set_cpu_type
 .text._mqx_init_kernel_data_internal
                0x000025c4      0x17c ..\..\..\..\..\..\..\lib\twrk70f120m.kds\debug\psp\psp.a(mqx.o)
                0x000025c4                _mqx_init_kernel_data_internal
 .text._mem_alloc
                0x00002740       0xa4 ..\..\..\..\..\..\..\lib\twrk70f120m.kds\debug\psp\psp.a(mem.o)
                0x00002740                _mem_alloc
 .text._mem_alloc_at
                0x000027e4       0xa8 ..\..\..\..\..\..\..\lib\twrk70f120m.kds\debug\psp\psp.a(mem.o)
                0x000027e4                _mem_alloc_at
 .text._mem_alloc_uncached
                0x0000288c       0x2c ..\..\..\..\..\..\..\lib\twrk70f120m.kds\debug\psp\psp.a(mem.o)
                0x0000288c                _mem_alloc_uncached
 .text._mem_alloc_from
                0x000028b8       0x9c ..\..\..\..\..\..\..\lib\twrk70f120m.kds\debug\psp\psp.a(mem.o)
                0x000028b8                _mem_alloc_from
 .text._mem_alloc_zero
                0x00002954       0xb4 ..\..\..\..\..\..\..\lib\twrk70f120m.kds\debug\psp\psp.a(mem.o)
                0x00002954                _mem_alloc_zero
 .text._mem_create_pool_internal
                0x00002a08      0x168 ..\..\..\..\..\..\..\lib\twrk70f120m.kds\debug\psp\psp.a(mem.o)
                0x00002a08                _mem_create_pool_internal
 .text._mem_create_pool
                0x00002b70       0xdc ..\..\..\..\..\..\..\lib\twrk70f120m.kds\debug\psp\psp.a(mem.o)
                0x00002b70                _mem_create_pool
 .text._mem_free
                0x00002c4c      0x324 ..\..\..\..\..\..\..\lib\twrk70f120m.kds\debug\psp\psp.a(mem.o)
                0x00002c4c                _mem_free
 .text._mem_check_coalesce_internal
                0x00002f70      0x15c ..\..\..\..\..\..\..\lib\twrk70f120m.kds\debug\psp\psp.a(mem.o)
                0x00002f70                _mem_check_coalesce_internal
 .text._mem_alloc_system
                0x000030cc       0xa4 ..\..\..\..\..\..\..\lib\twrk70f120m.kds\debug\psp\psp.a(mem.o)
                0x000030cc                _mem_alloc_system
 .text._mem_alloc_system_align
                0x00003170       0xac ..\..\..\..\..\..\..\lib\twrk70f120m.kds\debug\psp\psp.a(mem.o)
                0x00003170                _mem_alloc_system_align
 .text._mem_init_internal
                0x0000321c       0xc4 ..\..\..\..\..\..\..\lib\twrk70f120m.kds\debug\psp\psp.a(mem.o)
                0x0000321c                _mem_init_internal
 .text._mem_get_next_block_internal
                0x000032e0       0x2c ..\..\..\..\..\..\..\lib\twrk70f120m.kds\debug\psp\psp.a(mem.o)
                0x000032e0                _mem_get_next_block_internal
 .text._mem_get_system_pool_id
                0x0000330c       0x18 ..\..\..\..\..\..\..\lib\twrk70f120m.kds\debug\psp\psp.a(mem.o)
                0x0000330c                _mem_get_system_pool_id
 .text._mem_set_type
                0x00003324       0x50 ..\..\..\..\..\..\..\lib\twrk70f120m.kds\debug\psp\psp.a(mem.o)
                0x00003324                _mem_set_type
 .text._mem_transfer_internal
                0x00003374       0x60 ..\..\..\..\..\..\..\lib\twrk70f120m.kds\debug\psp\psp.a(mem.o)
                0x00003374                _mem_transfer_internal
 .text._mem_transfer_td_internal
                0x000033d4       0x80 ..\..\..\..\..\..\..\lib\twrk70f120m.kds\debug\psp\psp.a(mem.o)
                0x000033d4                _mem_transfer_td_internal
 .text._mem_alloc_system_zero
                0x00003454       0xb4 ..\..\..\..\..\..\..\lib\twrk70f120m.kds\debug\psp\psp.a(mem.o)
                0x00003454                _mem_alloc_system_zero
 .text._mem_alloc_system_zero_uncached
                0x00003508       0x6c ..\..\..\..\..\..\..\lib\twrk70f120m.kds\debug\psp\psp.a(mem.o)
                0x00003508                _mem_alloc_system_zero_uncached
 .text._mem_alloc_internal
                0x00003574      0x264 ..\..\..\..\..\..\..\lib\twrk70f120m.kds\debug\psp\psp.a(mem.o)
                0x00003574                _mem_alloc_internal
 .text._mem_alloc_at_internal
                0x000037d8      0x354 ..\..\..\..\..\..\..\lib\twrk70f120m.kds\debug\psp\psp.a(mem.o)
                0x000037d8                _mem_alloc_at_internal
 .text._mem_alloc_internal_align
                0x00003b2c      0x2ec ..\..\..\..\..\..\..\lib\twrk70f120m.kds\debug\psp\psp.a(mem.o)
                0x00003b2c                _mem_alloc_internal_align
 .text._lwsem_create_internal
                0x00003e18       0xf8 ..\..\..\..\..\..\..\lib\twrk70f120m.kds\debug\psp\psp.a(lwsem.o)
                0x00003e18                _lwsem_create_internal
 .text._lwsem_create
                0x00003f10       0x20 ..\..\..\..\..\..\..\lib\twrk70f120m.kds\debug\psp\psp.a(lwsem.o)
                0x00003f10                _lwsem_create
 .text._lwsem_destroy_internal
                0x00003f30      0x168 ..\..\..\..\..\..\..\lib\twrk70f120m.kds\debug\psp\psp.a(lwsem.o)
                0x00003f30                _lwsem_destroy_internal
 .text._lwsem_destroy
                0x00004098       0x1c ..\..\..\..\..\..\..\lib\twrk70f120m.kds\debug\psp\psp.a(lwsem.o)
                0x00004098                _lwsem_destroy
 .text._lwsem_post
                0x000040b4      0x128 ..\..\..\..\..\..\..\lib\twrk70f120m.kds\debug\psp\psp.a(lwsem.o)
                0x000040b4                _lwsem_post
 .text._lwsem_wait
                0x000041dc      0x154 ..\..\..\..\..\..\..\lib\twrk70f120m.kds\debug\psp\psp.a(lwsem.o)
                0x000041dc                _lwsem_wait
 .text._klog_log
                0x00004330       0xa8 ..\..\..\..\..\..\..\lib\twrk70f120m.kds\debug\psp\psp.a(klog.o)
                0x00004330                _klog_log
 .text._klog_block_internal
                0x000043d8       0x80 ..\..\..\..\..\..\..\lib\twrk70f120m.kds\debug\psp\psp.a(klog.o)
                0x000043d8                _klog_block_internal
 .text._klog_yield_internal
                0x00004458       0x80 ..\..\..\..\..\..\..\lib\twrk70f120m.kds\debug\psp\psp.a(klog.o)
                0x00004458                _klog_yield_internal
 .text._klog_context_switch_internal
                0x000044d8       0x84 ..\..\..\..\..\..\..\lib\twrk70f120m.kds\debug\psp\psp.a(klog.o)
                0x000044d8                _klog_context_switch_internal
 .text._klog_isr_start_internal
                0x0000455c       0x74 ..\..\..\..\..\..\..\lib\twrk70f120m.kds\debug\psp\psp.a(klog.o)
                0x0000455c                _klog_isr_start_internal
 .text._klog_isr_end_internal
                0x000045d0       0x64 ..\..\..\..\..\..\..\lib\twrk70f120m.kds\debug\psp\psp.a(klog.o)
                0x000045d0                _klog_isr_end_internal
 .text._int_default_isr
                0x00004634       0x80 ..\..\..\..\..\..\..\lib\twrk70f120m.kds\debug\psp\psp.a(int.o)
                0x00004634                _int_default_isr
 .text._int_disable
                0x000046b4       0x38 ..\..\..\..\..\..\..\lib\twrk70f120m.kds\debug\psp\psp.a(int.o)
                0x000046b4                _int_disable
 .text._int_enable
                0x000046ec       0x50 ..\..\..\..\..\..\..\lib\twrk70f120m.kds\debug\psp\psp.a(int.o)
                0x000046ec                _int_enable
 .text._int_get_default_isr
                0x0000473c       0x20 ..\..\..\..\..\..\..\lib\twrk70f120m.kds\debug\psp\psp.a(int.o)
                0x0000473c                _int_get_default_isr
 .text._int_get_isr
                0x0000475c       0x94 ..\..\..\..\..\..\..\lib\twrk70f120m.kds\debug\psp\psp.a(int.o)
                0x0000475c                _int_get_isr
 .text._int_get_isr_data
                0x000047f0       0x90 ..\..\..\..\..\..\..\lib\twrk70f120m.kds\debug\psp\psp.a(int.o)
                0x000047f0                _int_get_isr_data
 .text._int_install_isr
                0x00004880      0x18c ..\..\..\..\..\..\..\lib\twrk70f120m.kds\debug\psp\psp.a(int.o)
                0x00004880                _int_install_isr
 .text._int_init
                0x00004a0c       0xa8 ..\..\..\..\..\..\..\lib\twrk70f120m.kds\debug\psp\psp.a(int.o)
                0x00004a0c                _int_init
 .text._bsp_post_init
                0x00004ab4       0x10 ..\..\..\..\..\..\..\lib\twrk70f120m.kds\debug\psp\psp.a(inittask.o)
                0x00004ab4                _bsp_post_init
 .text._mqx_init_task
                0x00004ac4       0x94 ..\..\..\..\..\..\..\lib\twrk70f120m.kds\debug\psp\psp.a(inittask.o)
                0x00004ac4                _mqx_init_task
 .text._mqx_idle_task
                0x00004b58       0x60 ..\..\..\..\..\..\..\lib\twrk70f120m.kds\debug\psp\psp.a(idletask.o)
                0x00004b58                _mqx_idle_task
 .text._io_printf
                0x00004bb8       0x40 ..\..\..\..\..\..\..\lib\twrk70f120m.kds\debug\psp\psp.a(io_pntf.o)
                0x00004bb8                _io_printf
 .text._io_fputc
                0x00004bf8       0x5c ..\..\..\..\..\..\..\lib\twrk70f120m.kds\debug\psp\psp.a(io_fputc.o)
                0x00004bf8                _io_fputc
 .text._io_mputc
                0x00004c54       0x5c ..\..\..\..\..\..\..\lib\twrk70f120m.kds\debug\psp\psp.a(io_dopr.o)
 .text._io_putstr
                0x00004cb0       0x7c ..\..\..\..\..\..\..\lib\twrk70f120m.kds\debug\psp\psp.a(io_dopr.o)
 *fill*         0x00004d2c        0x4 
 .text._io_doprint
                0x00004d30     0x14f0 ..\..\..\..\..\..\..\lib\twrk70f120m.kds\debug\psp\psp.a(io_dopr.o)
                0x00004d30                _io_doprint
 .text._io_doprint_prt
                0x00006220      0x128 ..\..\..\..\..\..\..\lib\twrk70f120m.kds\debug\psp\psp.a(io_dopr.o)
                0x00006220                _io_doprint_prt
 .text._io_doprint_prt64
                0x00006348      0x16c ..\..\..\..\..\..\..\lib\twrk70f120m.kds\debug\psp\psp.a(io_dopr.o)
                0x00006348                _io_doprint_prt64
 .text._psp_destroy_stack_frame
                0x000064b4       0x14 ..\..\..\..\..\..\..\lib\twrk70f120m.kds\debug\psp\psp.a(stack_de.o)
                0x000064b4                _psp_destroy_stack_frame
 .text._psp_build_stack_frame
                0x000064c8       0xa8 ..\..\..\..\..\..\..\lib\twrk70f120m.kds\debug\psp\psp.a(stack_bu.o)
                0x000064c8                _psp_build_stack_frame
 .text._psp_build_float_context
                0x00006570       0x5c ..\..\..\..\..\..\..\lib\twrk70f120m.kds\debug\psp\psp.a(stack_bu.o)
                0x00006570                _psp_build_float_context
 .text._psp_set_kernel_disable_level
                0x000065cc       0xa8 ..\..\..\..\..\..\..\lib\twrk70f120m.kds\debug\psp\psp.a(sc_irdyq.o)
                0x000065cc                _psp_set_kernel_disable_level
 .text._psp_init_readyqs
                0x00006674       0xbc ..\..\..\..\..\..\..\lib\twrk70f120m.kds\debug\psp\psp.a(sc_irdyq.o)
                0x00006674                _psp_init_readyqs
 .text._psp_subtract_ticks
                0x00006730       0x60 ..\..\..\..\..\..\..\lib\twrk70f120m.kds\debug\psp\psp.a(psp_tisu.o)
                0x00006730                _psp_subtract_ticks
 .text._psp_normalize_ticks
                0x00006790       0x58 ..\..\..\..\..\..\..\lib\twrk70f120m.kds\debug\psp\psp.a(psp_tinm.o)
                0x00006790                _psp_normalize_ticks
 .text.__psp_ticks_to_milliseconds
                0x000067e8       0xf4 ..\..\..\..\..\..\..\lib\twrk70f120m.kds\debug\psp\psp.a(psp_tims.o)
 .text._psp_ticks_to_milliseconds
                0x000068dc       0x20 ..\..\..\..\..\..\..\lib\twrk70f120m.kds\debug\psp\psp.a(psp_tims.o)
                0x000068dc                _psp_ticks_to_milliseconds
 .text._psp_add_ticks
                0x000068fc       0x68 ..\..\..\..\..\..\..\lib\twrk70f120m.kds\debug\psp\psp.a(psp_tiad.o)
                0x000068fc                _psp_add_ticks
 .text._psp_msecs_to_ticks_quick
                0x00006964       0xc8 ..\..\..\..\..\..\..\lib\twrk70f120m.kds\debug\psp\psp.a(psp_mstiq.o)
                0x00006964                _psp_msecs_to_ticks_quick
 .text._psp_add_element_to_array
                0x00006a2c       0x64 ..\..\..\..\..\..\..\lib\twrk70f120m.kds\debug\psp\psp.a(psp_mat3.o)
                0x00006a2c                _psp_add_element_to_array
 .text._psp_div_128_by_32
                0x00006a90      0x134 ..\..\..\..\..\..\..\lib\twrk70f120m.kds\debug\psp\psp.a(psp_mat2.o)
                0x00006a90                _psp_div_128_by_32
 .text._psp_mul_128_by_32
                0x00006bc4      0x180 ..\..\..\..\..\..\..\lib\twrk70f120m.kds\debug\psp\psp.a(psp_mat1.o)
                0x00006bc4                _psp_mul_128_by_32
 .text._nvic_int_init
                0x00006d44       0x90 ..\..\..\..\..\..\..\lib\twrk70f120m.kds\debug\psp\psp.a(nvic.o)
                0x00006d44                _nvic_int_init
 .text._nvic_int_enable
                0x00006dd4       0x48 ..\..\..\..\..\..\..\lib\twrk70f120m.kds\debug\psp\psp.a(nvic.o)
                0x00006dd4                _nvic_int_enable
 .text._nvic_int_disable
                0x00006e1c       0x48 ..\..\..\..\..\..\..\lib\twrk70f120m.kds\debug\psp\psp.a(nvic.o)
                0x00006e1c                _nvic_int_disable
 .text._mqx_assert
                0x00006e64       0x14 ..\..\..\..\..\..\..\lib\twrk70f120m.kds\debug\psp\psp.a(k_assert.o)
                0x00006e64                _mqx_assert
 .text          0x00006e78       0x60 ..\..\..\..\..\..\..\lib\twrk70f120m.kds\debug\psp\psp.a(boot.o)
                0x00006e78                __boot
 .text._lwlog_write_internal
                0x00006ed8      0x140 ..\..\..\..\..\..\..\lib\twrk70f120m.kds\debug\psp\psp.a(lwlog.o)
                0x00006ed8                _lwlog_write_internal
 .text._lwlog_write
                0x00007018       0x64 ..\..\..\..\..\..\..\lib\twrk70f120m.kds\debug\psp\psp.a(lwlog.o)
                0x00007018                _lwlog_write
 .text._io_get_handle
                0x0000707c       0x68 ..\..\..\..\..\..\..\lib\twrk70f120m.kds\debug\psp\psp.a(io_ghand.o)
                0x0000707c                _io_get_handle
 *fill*         0x000070e4        0x4 
 .text._io_cvt  0x000070e8      0x3e0 ..\..\..\..\..\..\..\lib\twrk70f120m.kds\debug\psp\psp.a(io_fp.o)
                0x000070e8                _io_cvt
 .text._io_inf_or_nan
                0x000074c8       0xf0 ..\..\..\..\..\..\..\lib\twrk70f120m.kds\debug\psp\psp.a(io_fp.o)
 .text._io_dtoa
                0x000075b8       0x90 ..\..\..\..\..\..\..\lib\twrk70f120m.kds\debug\psp\psp.a(io_fp.o)
                0x000075b8                _io_dtoa
 .text._io_dtoe
                0x00007648      0x1c8 ..\..\..\..\..\..\..\lib\twrk70f120m.kds\debug\psp\psp.a(io_fp.o)
                0x00007648                _io_dtoe
 .text._io_dtof
                0x00007810      0x218 ..\..\..\..\..\..\..\lib\twrk70f120m.kds\debug\psp\psp.a(io_fp.o)
                0x00007810                _io_dtof
 .text._io_dtog
                0x00007a28      0x4a8 ..\..\..\..\..\..\..\lib\twrk70f120m.kds\debug\psp\psp.a(io_fp.o)
                0x00007a28                _io_dtog
 .text._init    0x00007ed0        0xc ..\..\..\..\..\..\..\lib\twrk70f120m.kds\debug\psp\psp.a(comp.o)
                0x00007ed0                _init
 .text._fini    0x00007edc        0xc ..\..\..\..\..\..\..\lib\twrk70f120m.kds\debug\psp\psp.a(comp.o)
                0x00007edc                _fini
 .text.malloc   0x00007ee8       0x18 ..\..\..\..\..\..\..\lib\twrk70f120m.kds\debug\psp\psp.a(comp.o)
                0x00007ee8                malloc
 .text.free     0x00007f00       0x14 ..\..\..\..\..\..\..\lib\twrk70f120m.kds\debug\psp\psp.a(comp.o)
                0x00007f00                free
 .text.data_startup
                0x00007f14       0xa0 ..\..\..\..\..\..\..\lib\twrk70f120m.kds\debug\psp\psp.a(comp.o)
                0x00007f14                data_startup
 .text.toolchain_startup
                0x00007fb4       0x28 ..\..\..\..\..\..\..\lib\twrk70f120m.kds\debug\psp\psp.a(comp.o)
                0x00007fb4                toolchain_startup
 .text._exit    0x00007fdc        0xc ..\..\..\..\..\..\..\lib\twrk70f120m.kds\debug\psp\psp.a(comp.o)
                0x00007fdc                _exit
 .text          0x00007fe8      0x370 ..\..\..\..\..\..\..\..\KDS_v3\toolchain\lib\gcc\arm-none-eabi\4.8.4\armv7e-m\fpu\libgcc.a(_arm_addsubdf3.o)
                0x00007fe8                __aeabi_drsub
                0x00007ff0                __aeabi_dsub
                0x00007ff0                __subdf3
                0x00007ff4                __aeabi_dadd
                0x00007ff4                __adddf3
                0x0000826c                __floatunsidf
                0x0000826c                __aeabi_ui2d
                0x0000828c                __floatsidf
                0x0000828c                __aeabi_i2d
                0x000082b0                __aeabi_f2d
                0x000082b0                __extendsfdf2
                0x000082ec                __floatundidf
                0x000082ec                __aeabi_ul2d
                0x000082fc                __floatdidf
                0x000082fc                __aeabi_l2d
 .text          0x00008358      0x424 ..\..\..\..\..\..\..\..\KDS_v3\toolchain\lib\gcc\arm-none-eabi\4.8.4\armv7e-m\fpu\libgcc.a(_arm_muldivdf3.o)
                0x00008358                __aeabi_dmul
                0x00008358                __muldf3
                0x000085ac                __divdf3
                0x000085ac                __aeabi_ddiv
 .text          0x0000877c      0x110 ..\..\..\..\..\..\..\..\KDS_v3\toolchain\lib\gcc\arm-none-eabi\4.8.4\armv7e-m\fpu\libgcc.a(_arm_cmpdf2.o)
                0x0000877c                __gtdf2
                0x0000877c                __gedf2
                0x00008784                __ltdf2
                0x00008784                __ledf2
                0x0000878c                __nedf2
                0x0000878c                __eqdf2
                0x0000878c                __cmpdf2
                0x00008808                __aeabi_cdrcmple
                0x00008818                __aeabi_cdcmpeq
                0x00008818                __aeabi_cdcmple
                0x00008828                __aeabi_dcmpeq
                0x0000883c                __aeabi_dcmplt
                0x00008850                __aeabi_dcmple
                0x00008864                __aeabi_dcmpge
                0x00008878                __aeabi_dcmpgt
 .text          0x0000888c       0x50 ..\..\..\..\..\..\..\..\KDS_v3\toolchain\lib\gcc\arm-none-eabi\4.8.4\armv7e-m\fpu\libgcc.a(_arm_fixdfsi.o)
                0x0000888c                __aeabi_d2iz
                0x0000888c                __fixdfsi
 .text          0x000088dc       0x40 ..\..\..\..\..\..\..\..\KDS_v3\toolchain\lib\gcc\arm-none-eabi\4.8.4\armv7e-m\fpu\libgcc.a(_arm_fixunsdfsi.o)
                0x000088dc                __aeabi_d2uiz
                0x000088dc                __fixunsdfsi
 .text          0x0000891c       0x38 ..\..\..\..\..\..\..\..\KDS_v3\toolchain\lib\gcc\arm-none-eabi\4.8.4\armv7e-m\fpu\libgcc.a(_aeabi_ldivmod.o)
                0x0000891c                __aeabi_ldivmod
 .text          0x00008954       0x2c ..\..\..\..\..\..\..\..\KDS_v3\toolchain\lib\gcc\arm-none-eabi\4.8.4\armv7e-m\fpu\libgcc.a(_aeabi_uldivmod.o)
                0x00008954                __aeabi_uldivmod
 .text          0x00008980       0x60 ..\..\..\..\..\..\..\..\KDS_v3\toolchain\lib\gcc\arm-none-eabi\4.8.4\armv7e-m\fpu\libgcc.a(bpabi.o)
                0x00008980                __gnu_ldivmod_helper
                0x000089b0                __gnu_uldivmod_helper
 .text          0x000089e0        0x4 ..\..\..\..\..\..\..\..\KDS_v3\toolchain\lib\gcc\arm-none-eabi\4.8.4\armv7e-m\fpu\libgcc.a(_dvmd_tls.o)
                0x000089e0                __aeabi_idiv0
                0x000089e0                __aeabi_ldiv0
 .text          0x000089e4      0x298 ..\..\..\..\..\..\..\..\KDS_v3\toolchain\lib\gcc\arm-none-eabi\4.8.4\armv7e-m\fpu\libgcc.a(_divdi3.o)
                0x000089e4                __divdi3
 .text          0x00008c7c      0x284 ..\..\..\..\..\..\..\..\KDS_v3\toolchain\lib\gcc\arm-none-eabi\4.8.4\armv7e-m\fpu\libgcc.a(_udivdi3.o)
                0x00008c7c                __udivdi3
 .text.atexit   0x00008f00        0xc ..\..\..\..\..\..\..\..\KDS_v3\toolchain\arm-none-eabi\lib\armv7e-m\fpu\libc.a(lib_a-atexit.o)
                0x00008f00                atexit
 .text.exit     0x00008f0c       0x20 ..\..\..\..\..\..\..\..\KDS_v3\toolchain\arm-none-eabi\lib\armv7e-m\fpu\libc.a(lib_a-exit.o)
                0x00008f0c                exit
 .text.__libc_fini_array
                0x00008f2c       0x30 ..\..\..\..\..\..\..\..\KDS_v3\toolchain\arm-none-eabi\lib\armv7e-m\fpu\libc.a(lib_a-fini.o)
                0x00008f2c                __libc_fini_array
 .text.__libc_init_array
                0x00008f5c       0x50 ..\..\..\..\..\..\..\..\KDS_v3\toolchain\arm-none-eabi\lib\armv7e-m\fpu\libc.a(lib_a-init.o)
                0x00008f5c                __libc_init_array
 .text          0x00008fac      0x134 ..\..\..\..\..\..\..\..\KDS_v3\toolchain\arm-none-eabi\lib\armv7e-m\fpu\libc.a(lib_a-memcpy.o)
                0x00008fac                memcpy
 .text.memset   0x000090e0       0x94 ..\..\..\..\..\..\..\..\KDS_v3\toolchain\arm-none-eabi\lib\armv7e-m\fpu\libc.a(lib_a-memset.o)
                0x000090e0                memset
 .text.modf     0x00009174       0xa4 ..\..\..\..\..\..\..\..\KDS_v3\toolchain\arm-none-eabi\lib\armv7e-m\fpu\libc.a(lib_a-s_modf.o)
                0x00009174                modf
 .text.strncmp  0x00009218       0xb4 ..\..\..\..\..\..\..\..\KDS_v3\toolchain\arm-none-eabi\lib\armv7e-m\fpu\libc.a(lib_a-strncmp.o)
                0x00009218                strncmp
 .text.__register_exitproc
                0x000092cc       0xa8 ..\..\..\..\..\..\..\..\KDS_v3\toolchain\arm-none-eabi\lib\armv7e-m\fpu\libc.a(lib_a-__atexit.o)
                0x000092cc                __register_exitproc
 .text.startup.register_fini
                0x00009374       0x14 ..\..\..\..\..\..\..\..\KDS_v3\toolchain\arm-none-eabi\lib\armv7e-m\fpu\libc.a(lib_a-__call_atexit.o)
 .text.__call_exitprocs
                0x00009388       0xf0 ..\..\..\..\..\..\..\..\KDS_v3\toolchain\arm-none-eabi\lib\armv7e-m\fpu\libc.a(lib_a-__call_atexit.o)
                0x00009388                __call_exitprocs
 .text          0x00009478      0x21c ..\..\..\..\..\..\..\..\KDS_v3\toolchain\arm-none-eabi\lib\armv7e-m\fpu\libc.a(lib_a-strcmp.o)
                0x00009478                strcmp
 .text.strlen   0x00009694       0x60 ..\..\..\..\..\..\..\..\KDS_v3\toolchain\arm-none-eabi\lib\armv7e-m\fpu\libc.a(lib_a-strlen.o)
                0x00009694                strlen
 .text.main     0x000096f4       0x14 ..\..\..\..\..\..\..\lib\twrk70f120m.kds\debug\bsp\bsp.a(mqx_main.o)
                0x000096f4                main
 .text._bsp_watchdog_disable
                0x00009708       0x38 ..\..\..\..\..\..\..\lib\twrk70f120m.kds\debug\bsp\bsp.a(init_hw.o)
                0x00009708                _bsp_watchdog_disable
 .text._bsp_flexbus_setup
                0x00009740      0x174 ..\..\..\..\..\..\..\lib\twrk70f120m.kds\debug\bsp\bsp.a(init_hw.o)
 .text._bsp_flexbus_mram_setup
                0x000098b4       0x34 ..\..\..\..\..\..\..\lib\twrk70f120m.kds\debug\bsp\bsp.a(init_hw.o)
 .text._bsp_ddr2_setup
                0x000098e8      0x268 ..\..\..\..\..\..\..\lib\twrk70f120m.kds\debug\bsp\bsp.a(init_hw.o)
                0x000098e8                _bsp_ddr2_setup
 .text.init_hardware
                0x00009b50       0x24 ..\..\..\..\..\..\..\lib\twrk70f120m.kds\debug\bsp\bsp.a(init_hw.o)
                0x00009b50                init_hardware
 .text._bsp_serial_io_init
                0x00009b74      0x34c ..\..\..\..\..\..\..\lib\twrk70f120m.kds\debug\bsp\bsp.a(init_gpio.o)
                0x00009b74                _bsp_serial_io_init
 .text._bsp_adc_io_init
                0x00009ec0       0xa8 ..\..\..\..\..\..\..\lib\twrk70f120m.kds\debug\bsp\bsp.a(init_gpio.o)
                0x00009ec0                _bsp_adc_io_init
 .text._bsp_adc_channel_io_init
                0x00009f68      0x228 ..\..\..\..\..\..\..\lib\twrk70f120m.kds\debug\bsp\bsp.a(init_gpio.o)
                0x00009f68                _bsp_adc_channel_io_init
 .text._bsp_rtc_io_init
                0x0000a190       0x2c ..\..\..\..\..\..\..\lib\twrk70f120m.kds\debug\bsp\bsp.a(init_gpio.o)
                0x0000a190                _bsp_rtc_io_init
 .text._bsp_esdhc_io_init
                0x0000a1bc       0x98 ..\..\..\..\..\..\..\lib\twrk70f120m.kds\debug\bsp\bsp.a(init_gpio.o)
                0x0000a1bc                _bsp_esdhc_io_init
 .text._bsp_i2c_io_init
                0x0000a254       0x5c ..\..\..\..\..\..\..\lib\twrk70f120m.kds\debug\bsp\bsp.a(init_gpio.o)
                0x0000a254                _bsp_i2c_io_init
 .text._bsp_gpio_io_init
                0x0000a2b0       0x2c ..\..\..\..\..\..\..\lib\twrk70f120m.kds\debug\bsp\bsp.a(init_gpio.o)
                0x0000a2b0                _bsp_gpio_io_init
 .text._bsp_serial_rts_init
                0x0000a2dc       0x48 ..\..\..\..\..\..\..\lib\twrk70f120m.kds\debug\bsp\bsp.a(init_gpio.o)
                0x0000a2dc                _bsp_serial_rts_init
 .text._bsp_sai_io_init
                0x0000a324       0x84 ..\..\..\..\..\..\..\lib\twrk70f120m.kds\debug\bsp\bsp.a(init_gpio.o)
                0x0000a324                _bsp_sai_io_init
 .text._bsp_serial_irda_tx_init
                0x0000a3a8       0x60 ..\..\..\..\..\..\..\lib\twrk70f120m.kds\debug\bsp\bsp.a(init_gpio.o)
                0x0000a3a8                _bsp_serial_irda_tx_init
 .text._bsp_serial_irda_rx_init
                0x0000a408       0x28 ..\..\..\..\..\..\..\lib\twrk70f120m.kds\debug\bsp\bsp.a(init_gpio.o)
                0x0000a408                _bsp_serial_irda_rx_init
 .text._bsp_pre_init
                0x0000a430      0x16c ..\..\..\..\..\..\..\lib\twrk70f120m.kds\debug\bsp\bsp.a(init_bsp.o)
                0x0000a430                _bsp_pre_init
 .text._bsp_init
                0x0000a59c       0xdc ..\..\..\..\..\..\..\lib\twrk70f120m.kds\debug\bsp\bsp.a(init_bsp.o)
                0x0000a59c                _bsp_init
 .text._bsp_systimer_callback
                0x0000a678       0x14 ..\..\..\..\..\..\..\lib\twrk70f120m.kds\debug\bsp\bsp.a(init_bsp.o)
                0x0000a678                _bsp_systimer_callback
 .text._bsp_get_hwticks
                0x0000a68c       0x24 ..\..\..\..\..\..\..\lib\twrk70f120m.kds\debug\bsp\bsp.a(init_bsp.o)
                0x0000a68c                _bsp_get_hwticks
 .text.LDD_SetClockConfiguration
                0x0000a6b0       0x14 ..\..\..\..\..\..\..\lib\twrk70f120m.kds\debug\bsp\bsp.a(bsp_cm.o)
                0x0000a6b0                LDD_SetClockConfiguration
 .text.Cpu_MCGAutoTrim
                0x0000a6c4       0x84 ..\..\..\..\..\..\..\lib\twrk70f120m.kds\debug\bsp\bsp.a(bsp_cm.o)
                0x0000a6c4                Cpu_MCGAutoTrim
 .text.Cpu_SetMCGModePEE
                0x0000a748       0x80 ..\..\..\..\..\..\..\lib\twrk70f120m.kds\debug\bsp\bsp.a(bsp_cm.o)
 .text.Cpu_SetMCGModePBE
                0x0000a7c8       0xec ..\..\..\..\..\..\..\lib\twrk70f120m.kds\debug\bsp\bsp.a(bsp_cm.o)
 .text.Cpu_SetMCGModeFBE
                0x0000a8b4      0x12c ..\..\..\..\..\..\..\lib\twrk70f120m.kds\debug\bsp\bsp.a(bsp_cm.o)
 .text.Cpu_SetMCGModeBLPI
                0x0000a9e0       0x68 ..\..\..\..\..\..\..\lib\twrk70f120m.kds\debug\bsp\bsp.a(bsp_cm.o)
 .text.Cpu_SetMCGModeFBI
                0x0000aa48      0x12c ..\..\..\..\..\..\..\lib\twrk70f120m.kds\debug\bsp\bsp.a(bsp_cm.o)
 .text.Cpu_SetMCG
                0x0000ab74       0xac ..\..\..\..\..\..\..\lib\twrk70f120m.kds\debug\bsp\bsp.a(bsp_cm.o)
 .text.Cpu_GetCurrentMCGMode
                0x0000ac20       0x5c ..\..\..\..\..\..\..\lib\twrk70f120m.kds\debug\bsp\bsp.a(bsp_cm.o)
 .text.Cpu_SetClockConfiguration
                0x0000ac7c      0x18c ..\..\..\..\..\..\..\lib\twrk70f120m.kds\debug\bsp\bsp.a(bsp_cm.o)
                0x0000ac7c                Cpu_SetClockConfiguration
 .text.Cpu_GetClockConfiguration
                0x0000ae08       0x18 ..\..\..\..\..\..\..\lib\twrk70f120m.kds\debug\bsp\bsp.a(bsp_cm.o)
                0x0000ae08                Cpu_GetClockConfiguration
 .text.__pe_initialize_hardware
                0x0000ae20      0x224 ..\..\..\..\..\..\..\lib\twrk70f120m.kds\debug\bsp\bsp.a(bsp_cm.o)
                0x0000ae20                __pe_initialize_hardware
 .text.PE_low_level_init
                0x0000b044       0xe0 ..\..\..\..\..\..\..\lib\twrk70f120m.kds\debug\bsp\bsp.a(bsp_cm.o)
                0x0000b044                PE_low_level_init
 .text._bsp_set_clock_configuration
                0x0000b124       0x4c ..\..\..\..\..\..\..\lib\twrk70f120m.kds\debug\bsp\bsp.a(bsp_cm.o)
                0x0000b124                _bsp_set_clock_configuration
 .text._bsp_get_clock_configuration
                0x0000b170       0x10 ..\..\..\..\..\..\..\lib\twrk70f120m.kds\debug\bsp\bsp.a(bsp_cm.o)
                0x0000b170                _bsp_get_clock_configuration
 .text._bsp_get_clock
                0x0000b180       0x58 ..\..\..\..\..\..\..\lib\twrk70f120m.kds\debug\bsp\bsp.a(bsp_cm.o)
                0x0000b180                _bsp_get_clock
 .text._bsp_osc_autotrim
                0x0000b1d8       0x3c ..\..\..\..\..\..\..\lib\twrk70f120m.kds\debug\bsp\bsp.a(bsp_cm.o)
                0x0000b1d8                _bsp_osc_autotrim
 .text._bsp_low_level_init
                0x0000b214        0xc ..\..\..\..\..\..\..\lib\twrk70f120m.kds\debug\bsp\bsp.a(bsp_cm.o)
                0x0000b214                _bsp_low_level_init
 .text._bsp_initialize_hardware
                0x0000b220        0xc ..\..\..\..\..\..\..\lib\twrk70f120m.kds\debug\bsp\bsp.a(bsp_cm.o)
                0x0000b220                _bsp_initialize_hardware
 .text._kuart_change_baudrate
                0x0000b22c       0xbc ..\..\..\..\..\..\..\lib\twrk70f120m.kds\debug\bsp\bsp.a(serl_pol_kuart.o)
                0x0000b22c                _kuart_change_baudrate
 .text._kuart_polled_peripheral_enable
                0x0000b2e8       0x24 ..\..\..\..\..\..\..\lib\twrk70f120m.kds\debug\bsp\bsp.a(serl_pol_kuart.o)
 .text._kuart_polled_peripheral_disable
                0x0000b30c       0x24 ..\..\..\..\..\..\..\lib\twrk70f120m.kds\debug\bsp\bsp.a(serl_pol_kuart.o)
 .text._kuart_polled_install
                0x0000b330       0x50 ..\..\..\..\..\..\..\lib\twrk70f120m.kds\debug\bsp\bsp.a(serl_pol_kuart.o)
                0x0000b330                _kuart_polled_install
 .text._kuart_polled_init
                0x0000b380      0x170 ..\..\..\..\..\..\..\lib\twrk70f120m.kds\debug\bsp\bsp.a(serl_pol_kuart.o)
                0x0000b380                _kuart_polled_init
 .text._kuart_polled_deinit
                0x0000b4f0       0x4c ..\..\..\..\..\..\..\lib\twrk70f120m.kds\debug\bsp\bsp.a(serl_pol_kuart.o)
                0x0000b4f0                _kuart_polled_deinit
 .text._kuart_polled_getc
                0x0000b53c       0x40 ..\..\..\..\..\..\..\lib\twrk70f120m.kds\debug\bsp\bsp.a(serl_pol_kuart.o)
                0x0000b53c                _kuart_polled_getc
 .text._kuart_polled_putc
                0x0000b57c       0x3c ..\..\..\..\..\..\..\lib\twrk70f120m.kds\debug\bsp\bsp.a(serl_pol_kuart.o)
                0x0000b57c                _kuart_polled_putc
 .text._kuart_polled_status
                0x0000b5b8       0xc8 ..\..\..\..\..\..\..\lib\twrk70f120m.kds\debug\bsp\bsp.a(serl_pol_kuart.o)
                0x0000b5b8                _kuart_polled_status
 .text._kuart_polled_ioctl
                0x0000b680      0x784 ..\..\..\..\..\..\..\lib\twrk70f120m.kds\debug\bsp\bsp.a(serl_pol_kuart.o)
                0x0000b680                _kuart_polled_ioctl
 .text._io_serial_polled_install
                0x0000be04       0x94 ..\..\..\..\..\..\..\lib\twrk70f120m.kds\debug\bsp\bsp.a(serl_pol.o)
                0x0000be04                _io_serial_polled_install
 .text._io_serial_polled_open
                0x0000be98      0x12c ..\..\..\..\..\..\..\lib\twrk70f120m.kds\debug\bsp\bsp.a(serl_pol.o)
                0x0000be98                _io_serial_polled_open
 .text._io_serial_polled_close
                0x0000bfc4       0x64 ..\..\..\..\..\..\..\lib\twrk70f120m.kds\debug\bsp\bsp.a(serl_pol.o)
                0x0000bfc4                _io_serial_polled_close
 .text._io_serial_polled_read
                0x0000c028      0x288 ..\..\..\..\..\..\..\lib\twrk70f120m.kds\debug\bsp\bsp.a(serl_pol.o)
                0x0000c028                _io_serial_polled_read
 .text._io_serial_polled_write
                0x0000c2b0      0x1a8 ..\..\..\..\..\..\..\lib\twrk70f120m.kds\debug\bsp\bsp.a(serl_pol.o)
                0x0000c2b0                _io_serial_polled_write
 .text._io_serial_polled_ioctl
                0x0000c458       0xf4 ..\..\..\..\..\..\..\lib\twrk70f120m.kds\debug\bsp\bsp.a(serl_pol.o)
                0x0000c458                _io_serial_polled_ioctl
 .text._io_serial_default_init
                0x0000c54c       0x88 ..\..\..\..\..\..\..\lib\twrk70f120m.kds\debug\bsp\bsp.a(io_sinit.o)
                0x0000c54c                _io_serial_default_init
 .text._io_sai_dma_install
                0x0000c5d4       0x84 ..\..\..\..\..\..\..\lib\twrk70f120m.kds\debug\bsp\bsp.a(sai_dma.o)
                0x0000c5d4                _io_sai_dma_install
 .text._io_sai_dma_uninstall
                0x0000c658       0x44 ..\..\..\..\..\..\..\lib\twrk70f120m.kds\debug\bsp\bsp.a(sai_dma.o)
                0x0000c658                _io_sai_dma_uninstall
 .text._io_sai_dma_open
                0x0000c69c      0x12c ..\..\..\..\..\..\..\lib\twrk70f120m.kds\debug\bsp\bsp.a(sai_dma.o)
                0x0000c69c                _io_sai_dma_open
 .text._io_sai_dma_close
                0x0000c7c8       0x70 ..\..\..\..\..\..\..\lib\twrk70f120m.kds\debug\bsp\bsp.a(sai_dma.o)
                0x0000c7c8                _io_sai_dma_close
 .text._io_sai_dma_ioctl
                0x0000c838       0x68 ..\..\..\..\..\..\..\lib\twrk70f120m.kds\debug\bsp\bsp.a(sai_dma.o)
                0x0000c838                _io_sai_dma_ioctl
 .text._rtc_init
                0x0000c8a0       0xa4 ..\..\..\..\..\..\..\lib\twrk70f120m.kds\debug\bsp\bsp.a(krtc.o)
                0x0000c8a0                _rtc_init
 .text._ki2c_set_baudrate
                0x0000c944       0xa8 ..\..\..\..\..\..\..\lib\twrk70f120m.kds\debug\bsp\bsp.a(i2c_pol_ki2c.o)
 .text._ki2c_polled_install
                0x0000c9ec       0x40 ..\..\..\..\..\..\..\lib\twrk70f120m.kds\debug\bsp\bsp.a(i2c_pol_ki2c.o)
                0x0000c9ec                _ki2c_polled_install
 .text._ki2c_polled_init
                0x0000ca2c      0x11c ..\..\..\..\..\..\..\lib\twrk70f120m.kds\debug\bsp\bsp.a(i2c_pol_ki2c.o)
                0x0000ca2c                _ki2c_polled_init
 .text._ki2c_polled_deinit
                0x0000cb48       0x60 ..\..\..\..\..\..\..\lib\twrk70f120m.kds\debug\bsp\bsp.a(i2c_pol_ki2c.o)
                0x0000cb48                _ki2c_polled_deinit
 .text._ki2c_polled_ioctl
                0x0000cba8      0x4b0 ..\..\..\..\..\..\..\lib\twrk70f120m.kds\debug\bsp\bsp.a(i2c_pol_ki2c.o)
                0x0000cba8                _ki2c_polled_ioctl
 .text._ki2c_polled_rx
                0x0000d058       0xf8 ..\..\..\..\..\..\..\lib\twrk70f120m.kds\debug\bsp\bsp.a(i2c_pol_ki2c.o)
                0x0000d058                _ki2c_polled_rx
 .text._ki2c_polled_tx
                0x0000d150       0xf0 ..\..\..\..\..\..\..\lib\twrk70f120m.kds\debug\bsp\bsp.a(i2c_pol_ki2c.o)
                0x0000d150                _ki2c_polled_tx
 .text._ki2c_polled_rx_tx
                0x0000d240      0x55c ..\..\..\..\..\..\..\lib\twrk70f120m.kds\debug\bsp\bsp.a(i2c_pol_ki2c.o)
 .text._bsp_get_i2c_base_address
                0x0000d79c       0x40 ..\..\..\..\..\..\..\lib\twrk70f120m.kds\debug\bsp\bsp.a(i2c_mk70.o)
                0x0000d79c                _bsp_get_i2c_base_address
 .text._bsp_get_i2c_vector
                0x0000d7dc       0x38 ..\..\..\..\..\..\..\lib\twrk70f120m.kds\debug\bsp\bsp.a(i2c_mk70.o)
                0x0000d7dc                _bsp_get_i2c_vector
 .text._ki2c_int_install
                0x0000d814       0x40 ..\..\..\..\..\..\..\lib\twrk70f120m.kds\debug\bsp\bsp.a(i2c_int_ki2c_legacy.o)
                0x0000d814                _ki2c_int_install
 .text._ki2c_int_init
                0x0000d854       0xb0 ..\..\..\..\..\..\..\lib\twrk70f120m.kds\debug\bsp\bsp.a(i2c_int_ki2c_legacy.o)
                0x0000d854                _ki2c_int_init
 .text._ki2c_int_deinit
                0x0000d904       0x80 ..\..\..\..\..\..\..\lib\twrk70f120m.kds\debug\bsp\bsp.a(i2c_int_ki2c_legacy.o)
                0x0000d904                _ki2c_int_deinit
 .text._ki2c_int_rx
                0x0000d984      0x120 ..\..\..\..\..\..\..\lib\twrk70f120m.kds\debug\bsp\bsp.a(i2c_int_ki2c_legacy.o)
                0x0000d984                _ki2c_int_rx
 .text._ki2c_int_tx
                0x0000daa4      0x13c ..\..\..\..\..\..\..\lib\twrk70f120m.kds\debug\bsp\bsp.a(i2c_int_ki2c_legacy.o)
                0x0000daa4                _ki2c_int_tx
 .text._ki2c_isr
                0x0000dbe0      0x5c0 ..\..\..\..\..\..\..\lib\twrk70f120m.kds\debug\bsp\bsp.a(i2c_int_ki2c_legacy.o)
 .text.hwtimer_systick_isr
                0x0000e1a0       0x5c ..\..\..\..\..\..\..\lib\twrk70f120m.kds\debug\bsp\bsp.a(hwtimer_systick.o)
 .text.hwtimer_systick_init
                0x0000e1fc       0x90 ..\..\..\..\..\..\..\lib\twrk70f120m.kds\debug\bsp\bsp.a(hwtimer_systick.o)
 .text.hwtimer_systick_deinit
                0x0000e28c       0x34 ..\..\..\..\..\..\..\lib\twrk70f120m.kds\debug\bsp\bsp.a(hwtimer_systick.o)
 .text.hwtimer_systick_set_div
                0x0000e2c0       0x4c ..\..\..\..\..\..\..\lib\twrk70f120m.kds\debug\bsp\bsp.a(hwtimer_systick.o)
 .text.hwtimer_systick_start
                0x0000e30c       0x28 ..\..\..\..\..\..\..\lib\twrk70f120m.kds\debug\bsp\bsp.a(hwtimer_systick.o)
 .text.hwtimer_systick_stop
                0x0000e334       0x28 ..\..\..\..\..\..\..\lib\twrk70f120m.kds\debug\bsp\bsp.a(hwtimer_systick.o)
 .text.hwtimer_systick_get_time
                0x0000e35c       0x64 ..\..\..\..\..\..\..\lib\twrk70f120m.kds\debug\bsp\bsp.a(hwtimer_systick.o)
 .text.systick_get_vector
                0x0000e3c0       0x10 ..\..\..\..\..\..\..\lib\twrk70f120m.kds\debug\bsp\bsp.a(hwtimer_kinetis.o)
                0x0000e3c0                systick_get_vector
 .text.hwtimer_init
                0x0000e3d0       0x80 ..\..\..\..\..\..\..\lib\twrk70f120m.kds\debug\bsp\bsp.a(hwtimer.o)
                0x0000e3d0                hwtimer_init
 .text.hwtimer_deinit
                0x0000e450       0x9c ..\..\..\..\..\..\..\lib\twrk70f120m.kds\debug\bsp\bsp.a(hwtimer.o)
                0x0000e450                hwtimer_deinit
 .text.hwtimer_set_freq
                0x0000e4ec       0x78 ..\..\..\..\..\..\..\lib\twrk70f120m.kds\debug\bsp\bsp.a(hwtimer.o)
                0x0000e4ec                hwtimer_set_freq
 .text.hwtimer_start
                0x0000e564       0x3c ..\..\..\..\..\..\..\lib\twrk70f120m.kds\debug\bsp\bsp.a(hwtimer.o)
                0x0000e564                hwtimer_start
 .text.hwtimer_get_modulo
                0x0000e5a0       0x24 ..\..\..\..\..\..\..\lib\twrk70f120m.kds\debug\bsp\bsp.a(hwtimer.o)
                0x0000e5a0                hwtimer_get_modulo
 .text.hwtimer_get_time
                0x0000e5c4       0x48 ..\..\..\..\..\..\..\lib\twrk70f120m.kds\debug\bsp\bsp.a(hwtimer.o)
                0x0000e5c4                hwtimer_get_time
 .text.hwtimer_callback_reg
                0x0000e60c       0x40 ..\..\..\..\..\..\..\lib\twrk70f120m.kds\debug\bsp\bsp.a(hwtimer.o)
                0x0000e60c                hwtimer_callback_reg
 .text._esdhc_set_baudrate_low
                0x0000e64c       0xd8 ..\..\..\..\..\..\..\lib\twrk70f120m.kds\debug\bsp\bsp.a(esdhc.o)
 .text._esdhc_set_baudrate
                0x0000e724       0x68 ..\..\..\..\..\..\..\lib\twrk70f120m.kds\debug\bsp\bsp.a(esdhc.o)
 .text._esdhc_get_baudrate_low
                0x0000e78c       0x40 ..\..\..\..\..\..\..\lib\twrk70f120m.kds\debug\bsp\bsp.a(esdhc.o)
 .text._esdhc_get_baudrate
                0x0000e7cc       0x2c ..\..\..\..\..\..\..\lib\twrk70f120m.kds\debug\bsp\bsp.a(esdhc.o)
 .text._esdhc_is_running
                0x0000e7f8       0x28 ..\..\..\..\..\..\..\lib\twrk70f120m.kds\debug\bsp\bsp.a(esdhc.o)
 .text._esdhc_init
                0x0000e820      0x114 ..\..\..\..\..\..\..\lib\twrk70f120m.kds\debug\bsp\bsp.a(esdhc.o)
 .text._esdhc_send_command
                0x0000e934      0x3ac ..\..\..\..\..\..\..\lib\twrk70f120m.kds\debug\bsp\bsp.a(esdhc.o)
 .text._esdhc_wait_while_busy
                0x0000ece0       0x90 ..\..\..\..\..\..\..\lib\twrk70f120m.kds\debug\bsp\bsp.a(esdhc.o)
 .text._esdhc_get_card_type
                0x0000ed70      0x364 ..\..\..\..\..\..\..\lib\twrk70f120m.kds\debug\bsp\bsp.a(esdhc.o)
 .text._esdhc_install
                0x0000f0d4      0x148 ..\..\..\..\..\..\..\lib\twrk70f120m.kds\debug\bsp\bsp.a(esdhc.o)
                0x0000f0d4                _esdhc_install
 .text._esdhc_uninstall
                0x0000f21c       0x7c ..\..\..\..\..\..\..\lib\twrk70f120m.kds\debug\bsp\bsp.a(esdhc.o)
                0x0000f21c                _esdhc_uninstall
 .text._esdhc_open
                0x0000f298       0x60 ..\..\..\..\..\..\..\lib\twrk70f120m.kds\debug\bsp\bsp.a(esdhc.o)
                0x0000f298                _esdhc_open
 .text._esdhc_close
                0x0000f2f8       0x54 ..\..\..\..\..\..\..\lib\twrk70f120m.kds\debug\bsp\bsp.a(esdhc.o)
                0x0000f2f8                _esdhc_close
 .text._esdhc_ioctl
                0x0000f34c      0x43c ..\..\..\..\..\..\..\lib\twrk70f120m.kds\debug\bsp\bsp.a(esdhc.o)
                0x0000f34c                _esdhc_ioctl
 .text._esdhc_read
                0x0000f788      0x26c ..\..\..\..\..\..\..\lib\twrk70f120m.kds\debug\bsp\bsp.a(esdhc.o)
                0x0000f788                _esdhc_read
 .text._esdhc_write
                0x0000f9f4      0x248 ..\..\..\..\..\..\..\lib\twrk70f120m.kds\debug\bsp\bsp.a(esdhc.o)
                0x0000f9f4                _esdhc_write
 .text._esdhc_isr
                0x0000fc3c      0x1ec ..\..\..\..\..\..\..\lib\twrk70f120m.kds\debug\bsp\bsp.a(esdhc.o)
 .text.dma_tcd_mem2reg
                0x0000fe28       0xf0 ..\..\..\..\..\..\..\lib\twrk70f120m.kds\debug\bsp\bsp.a(dma.o)
                0x0000fe28                dma_tcd_mem2reg
 .text.dma_tcd_reg2mem
                0x0000ff18       0xf8 ..\..\..\..\..\..\..\lib\twrk70f120m.kds\debug\bsp\bsp.a(dma.o)
                0x0000ff18                dma_tcd_reg2mem
 .text.dma_init
                0x00010010       0x80 ..\..\..\..\..\..\..\lib\twrk70f120m.kds\debug\bsp\bsp.a(dma.o)
                0x00010010                dma_init
 .text.dma_deinit
                0x00010090       0x7c ..\..\..\..\..\..\..\lib\twrk70f120m.kds\debug\bsp\bsp.a(dma.o)
                0x00010090                dma_deinit
 .text.dma_channel_claim
                0x0001010c       0xb0 ..\..\..\..\..\..\..\lib\twrk70f120m.kds\debug\bsp\bsp.a(dma.o)
                0x0001010c                dma_channel_claim
 .text.dma_channel_release
                0x000101bc       0x3c ..\..\..\..\..\..\..\lib\twrk70f120m.kds\debug\bsp\bsp.a(dma.o)
                0x000101bc                dma_channel_release
 .text.dma_channel_setup
                0x000101f8       0x44 ..\..\..\..\..\..\..\lib\twrk70f120m.kds\debug\bsp\bsp.a(dma.o)
                0x000101f8                dma_channel_setup
 .text.dma_channel_status
                0x0001023c       0x44 ..\..\..\..\..\..\..\lib\twrk70f120m.kds\debug\bsp\bsp.a(dma.o)
                0x0001023c                dma_channel_status
 .text.dma_transfer_submit
                0x00010280       0x44 ..\..\..\..\..\..\..\lib\twrk70f120m.kds\debug\bsp\bsp.a(dma.o)
                0x00010280                dma_transfer_submit
 .text.dma_request_source
                0x000102c4       0x40 ..\..\..\..\..\..\..\lib\twrk70f120m.kds\debug\bsp\bsp.a(dma.o)
                0x000102c4                dma_request_source
 .text.dma_request_enable
                0x00010304       0x3c ..\..\..\..\..\..\..\lib\twrk70f120m.kds\debug\bsp\bsp.a(dma.o)
                0x00010304                dma_request_enable
 .text.dma_request_disable
                0x00010340       0x3c ..\..\..\..\..\..\..\lib\twrk70f120m.kds\debug\bsp\bsp.a(dma.o)
                0x00010340                dma_request_disable
 .text.dma_callback_reg
                0x0001037c       0x3c ..\..\..\..\..\..\..\lib\twrk70f120m.kds\debug\bsp\bsp.a(dma.o)
                0x0001037c                dma_callback_reg
 .text._io_adc_install
                0x000103b8       0x98 ..\..\..\..\..\..\..\lib\twrk70f120m.kds\debug\bsp\bsp.a(adc.o)
                0x000103b8                _io_adc_install
 .text._adc_open
                0x00010450      0x4f8 ..\..\..\..\..\..\..\lib\twrk70f120m.kds\debug\bsp\bsp.a(adc.o)
                0x00010450                _adc_open
 .text._adc_close
                0x00010948      0x14c ..\..\..\..\..\..\..\lib\twrk70f120m.kds\debug\bsp\bsp.a(adc.o)
                0x00010948                _adc_close
 .text._adc_read
                0x00010a94       0xbc ..\..\..\..\..\..\..\lib\twrk70f120m.kds\debug\bsp\bsp.a(adc.o)
                0x00010a94                _adc_read
 .text._adc_write
                0x00010b50       0x1c ..\..\..\..\..\..\..\lib\twrk70f120m.kds\debug\bsp\bsp.a(adc.o)
                0x00010b50                _adc_write
 .text._adc_ioctl
                0x00010b6c      0x158 ..\..\..\..\..\..\..\lib\twrk70f120m.kds\debug\bsp\bsp.a(adc.o)
                0x00010b6c                _adc_ioctl
 .text._bsp_get_serial_base_address
                0x00010cc4       0x80 ..\..\..\..\..\..\..\lib\twrk70f120m.kds\debug\bsp\bsp.a(serl_mk70.o)
                0x00010cc4                _bsp_get_serial_base_address
 .text._ksai_dma_init
                0x00010d44      0x5cc ..\..\..\..\..\..\..\lib\twrk70f120m.kds\debug\bsp\bsp.a(sai_dma_ksai.o)
                0x00010d44                _ksai_dma_init
 .text._ksai_dma_deinit
                0x00011310      0x17c ..\..\..\..\..\..\..\lib\twrk70f120m.kds\debug\bsp\bsp.a(sai_dma_ksai.o)
                0x00011310                _ksai_dma_deinit
 .text._ksai_tx_fifoerr_irq_handler
                0x0001148c       0x50 ..\..\..\..\..\..\..\lib\twrk70f120m.kds\debug\bsp\bsp.a(sai_dma_ksai.o)
                0x0001148c                _ksai_tx_fifoerr_irq_handler
 .text._ksai_tx_dma_irq_handler
                0x000114dc      0x108 ..\..\..\..\..\..\..\lib\twrk70f120m.kds\debug\bsp\bsp.a(sai_dma_ksai.o)
                0x000114dc                _ksai_tx_dma_irq_handler
 .text._ksai_rx_fifoerr_irq_handler
                0x000115e4       0x54 ..\..\..\..\..\..\..\lib\twrk70f120m.kds\debug\bsp\bsp.a(sai_dma_ksai.o)
                0x000115e4                _ksai_rx_fifoerr_irq_handler
 .text._ksai_rx_dma_irq_handler
                0x00011638      0x11c ..\..\..\..\..\..\..\lib\twrk70f120m.kds\debug\bsp\bsp.a(sai_dma_ksai.o)
                0x00011638                _ksai_rx_dma_irq_handler
 .text._ksai_dma_ioctl
                0x00011754     0x17f8 ..\..\..\..\..\..\..\lib\twrk70f120m.kds\debug\bsp\bsp.a(sai_dma_ksai.o)
                0x00011754                _ksai_dma_ioctl
 .text._ksai_hw_init
                0x00012f4c      0x364 ..\..\..\..\..\..\..\lib\twrk70f120m.kds\debug\bsp\bsp.a(sai_dma_ksai.o)
                0x00012f4c                _ksai_hw_init
 .text._ki2s_find_mclk_freq_div
                0x000132b0      0x100 ..\..\..\..\..\..\..\lib\twrk70f120m.kds\debug\bsp\bsp.a(sai_dma_ksai.o)
                0x000132b0                _ki2s_find_mclk_freq_div
 .text._ki2s_set_master_mode
                0x000133b0      0x25c ..\..\..\..\..\..\..\lib\twrk70f120m.kds\debug\bsp\bsp.a(sai_dma_ksai.o)
                0x000133b0                _ki2s_set_master_mode
 .text._ki2s_set_slave_mode
                0x0001360c      0x228 ..\..\..\..\..\..\..\lib\twrk70f120m.kds\debug\bsp\bsp.a(sai_dma_ksai.o)
                0x0001360c                _ki2s_set_slave_mode
 .text._ki2s_set_bclk_mode
                0x00013834      0x150 ..\..\..\..\..\..\..\lib\twrk70f120m.kds\debug\bsp\bsp.a(sai_dma_ksai.o)
                0x00013834                _ki2s_set_bclk_mode
 .text._io_i2c_polled_install
                0x00013984       0x8c ..\..\..\..\..\..\..\lib\twrk70f120m.kds\debug\bsp\bsp.a(i2c_pol.o)
                0x00013984                _io_i2c_polled_install
 .text._io_i2c_polled_uninstall
                0x00013a10       0x4c ..\..\..\..\..\..\..\lib\twrk70f120m.kds\debug\bsp\bsp.a(i2c_pol.o)
                0x00013a10                _io_i2c_polled_uninstall
 .text._io_i2c_polled_open
                0x00013a5c       0x74 ..\..\..\..\..\..\..\lib\twrk70f120m.kds\debug\bsp\bsp.a(i2c_pol.o)
                0x00013a5c                _io_i2c_polled_open
 .text._io_i2c_polled_close
                0x00013ad0       0x58 ..\..\..\..\..\..\..\lib\twrk70f120m.kds\debug\bsp\bsp.a(i2c_pol.o)
                0x00013ad0                _io_i2c_polled_close
 .text._io_i2c_polled_read
                0x00013b28       0x30 ..\..\..\..\..\..\..\lib\twrk70f120m.kds\debug\bsp\bsp.a(i2c_pol.o)
                0x00013b28                _io_i2c_polled_read
 .text._io_i2c_polled_write
                0x00013b58       0x30 ..\..\..\..\..\..\..\lib\twrk70f120m.kds\debug\bsp\bsp.a(i2c_pol.o)
                0x00013b58                _io_i2c_polled_write
 .text._io_i2c_polled_ioctl
                0x00013b88       0x68 ..\..\..\..\..\..\..\lib\twrk70f120m.kds\debug\bsp\bsp.a(i2c_pol.o)
                0x00013b88                _io_i2c_polled_ioctl
 .text._io_i2c_int_install
                0x00013bf0       0x8c ..\..\..\..\..\..\..\lib\twrk70f120m.kds\debug\bsp\bsp.a(i2c_int.o)
                0x00013bf0                _io_i2c_int_install
 .text._io_i2c_int_uninstall
                0x00013c7c       0x48 ..\..\..\..\..\..\..\lib\twrk70f120m.kds\debug\bsp\bsp.a(i2c_int.o)
                0x00013c7c                _io_i2c_int_uninstall
 .text._io_i2c_int_open
                0x00013cc4       0x6c ..\..\..\..\..\..\..\lib\twrk70f120m.kds\debug\bsp\bsp.a(i2c_int.o)
                0x00013cc4                _io_i2c_int_open
 .text._io_i2c_int_close
                0x00013d30       0x68 ..\..\..\..\..\..\..\lib\twrk70f120m.kds\debug\bsp\bsp.a(i2c_int.o)
                0x00013d30                _io_i2c_int_close
 .text._io_i2c_int_read
                0x00013d98       0x30 ..\..\..\..\..\..\..\lib\twrk70f120m.kds\debug\bsp\bsp.a(i2c_int.o)
                0x00013d98                _io_i2c_int_read
 .text._io_i2c_int_write
                0x00013dc8       0x30 ..\..\..\..\..\..\..\lib\twrk70f120m.kds\debug\bsp\bsp.a(i2c_int.o)
                0x00013dc8                _io_i2c_int_write
 .text._io_i2c_int_ioctl
                0x00013df8       0x68 ..\..\..\..\..\..\..\lib\twrk70f120m.kds\debug\bsp\bsp.a(i2c_int.o)
                0x00013df8                _io_i2c_int_ioctl
 .text._bsp_get_esdhc_base_address
                0x00013e60       0x30 ..\..\..\..\..\..\..\lib\twrk70f120m.kds\debug\bsp\bsp.a(esdhc_mk70.o)
                0x00013e60                _bsp_get_esdhc_base_address
 .text._bsp_get_esdhc_vector
                0x00013e90       0x2c ..\..\..\..\..\..\..\lib\twrk70f120m.kds\debug\bsp\bsp.a(esdhc_mk70.o)
                0x00013e90                _bsp_get_esdhc_vector
 .text.edma_channel_sgaidx
                0x00013ebc       0x6c ..\..\..\..\..\..\..\lib\twrk70f120m.kds\debug\bsp\bsp.a(edma.o)
 .text.edma_done_isr
                0x00013f28      0x1ac ..\..\..\..\..\..\..\lib\twrk70f120m.kds\debug\bsp\bsp.a(edma.o)
 .text.edma_err_isr
                0x000140d4       0xa4 ..\..\..\..\..\..\..\lib\twrk70f120m.kds\debug\bsp\bsp.a(edma.o)
 .text.edma_reset_module
                0x00014178       0xc4 ..\..\..\..\..\..\..\lib\twrk70f120m.kds\debug\bsp\bsp.a(edma.o)
 .text.edma_install_isrs
                0x0001423c       0xe0 ..\..\..\..\..\..\..\lib\twrk70f120m.kds\debug\bsp\bsp.a(edma.o)
 .text.edma_uninstall_isrs
                0x0001431c       0xd8 ..\..\..\..\..\..\..\lib\twrk70f120m.kds\debug\bsp\bsp.a(edma.o)
 .text.edma_init
                0x000143f4       0x30 ..\..\..\..\..\..\..\lib\twrk70f120m.kds\debug\bsp\bsp.a(edma.o)
 .text.edma_deinit
                0x00014424       0x40 ..\..\..\..\..\..\..\lib\twrk70f120m.kds\debug\bsp\bsp.a(edma.o)
 .text.edma_channel_claim
                0x00014464       0xf0 ..\..\..\..\..\..\..\lib\twrk70f120m.kds\debug\bsp\bsp.a(edma.o)
 .text.edma_channel_release
                0x00014554       0x58 ..\..\..\..\..\..\..\lib\twrk70f120m.kds\debug\bsp\bsp.a(edma.o)
 .text.edma_channel_reset
                0x000145ac       0xb4 ..\..\..\..\..\..\..\lib\twrk70f120m.kds\debug\bsp\bsp.a(edma.o)
 .text.edma_channel_setup
                0x00014660       0xa0 ..\..\..\..\..\..\..\lib\twrk70f120m.kds\debug\bsp\bsp.a(edma.o)
 .text.edma_channel_status
                0x00014700      0x164 ..\..\..\..\..\..\..\lib\twrk70f120m.kds\debug\bsp\bsp.a(edma.o)
 .text.edma_tcd_prepare
                0x00014864      0x250 ..\..\..\..\..\..\..\lib\twrk70f120m.kds\debug\bsp\bsp.a(edma.o)
 .text.edma_hwtcd_push
                0x00014ab4       0x74 ..\..\..\..\..\..\..\lib\twrk70f120m.kds\debug\bsp\bsp.a(edma.o)
 .text.edma_transfer_submit
                0x00014b28      0x21c ..\..\..\..\..\..\..\lib\twrk70f120m.kds\debug\bsp\bsp.a(edma.o)
 .text.edma_request_source
                0x00014d44       0x58 ..\..\..\..\..\..\..\lib\twrk70f120m.kds\debug\bsp\bsp.a(edma.o)
 .text.edma_request_enable
                0x00014d9c       0x90 ..\..\..\..\..\..\..\lib\twrk70f120m.kds\debug\bsp\bsp.a(edma.o)
 .text.edma_request_disable
                0x00014e2c       0x40 ..\..\..\..\..\..\..\lib\twrk70f120m.kds\debug\bsp\bsp.a(edma.o)
 .text._adt_hw_ioctl
                0x00014e6c      0x2b8 ..\..\..\..\..\..\..\lib\twrk70f120m.kds\debug\bsp\bsp.a(adt_kpdb.o)
                0x00014e6c                _adt_hw_ioctl
 .text._adt_hw_install
                0x00015124       0x1c ..\..\..\..\..\..\..\lib\twrk70f120m.kds\debug\bsp\bsp.a(adt_kpdb.o)
                0x00015124                _adt_hw_install
 .text._adt_hw_init
                0x00015140      0x1d0 ..\..\..\..\..\..\..\lib\twrk70f120m.kds\debug\bsp\bsp.a(adt_kpdb.o)
                0x00015140                _adt_hw_init
 .text._adt_hw_deinit
                0x00015310       0x24 ..\..\..\..\..\..\..\lib\twrk70f120m.kds\debug\bsp\bsp.a(adt_kpdb.o)
                0x00015310                _adt_hw_deinit
 .text.adt_period_prescaler
                0x00015334      0x23c ..\..\..\..\..\..\..\lib\twrk70f120m.kds\debug\bsp\bsp.a(adt_kpdb.o)
 .text._adt_hw_channel_init
                0x00015570      0x1d4 ..\..\..\..\..\..\..\lib\twrk70f120m.kds\debug\bsp\bsp.a(adt_kpdb.o)
                0x00015570                _adt_hw_channel_init
 .text._adt_hw_channel_deinit
                0x00015744      0x148 ..\..\..\..\..\..\..\lib\twrk70f120m.kds\debug\bsp\bsp.a(adt_kpdb.o)
                0x00015744                _adt_hw_channel_deinit
 .text._adt_trigger
                0x0001588c      0x144 ..\..\..\..\..\..\..\lib\twrk70f120m.kds\debug\bsp\bsp.a(adt_kpdb.o)
                0x0001588c                _adt_trigger
 .text._adt_pause
                0x000159d0      0x128 ..\..\..\..\..\..\..\lib\twrk70f120m.kds\debug\bsp\bsp.a(adt_kpdb.o)
                0x000159d0                _adt_pause
 .text._adt_resume
                0x00015af8      0x134 ..\..\..\..\..\..\..\lib\twrk70f120m.kds\debug\bsp\bsp.a(adt_kpdb.o)
                0x00015af8                _adt_resume
 .text._adt_stop
                0x00015c2c      0x118 ..\..\..\..\..\..\..\lib\twrk70f120m.kds\debug\bsp\bsp.a(adt_kpdb.o)
                0x00015c2c                _adt_stop
 .text._adt_process_data
                0x00015d44      0x11c ..\..\..\..\..\..\..\lib\twrk70f120m.kds\debug\bsp\bsp.a(adt_kpdb.o)
                0x00015d44                _adt_process_data
 .text.adt_idelay_isr
                0x00015e60       0x68 ..\..\..\..\..\..\..\lib\twrk70f120m.kds\debug\bsp\bsp.a(adt_kpdb.o)
 .text._adc_hw_ioctl
                0x00015ec8      0x564 ..\..\..\..\..\..\..\lib\twrk70f120m.kds\debug\bsp\bsp.a(adc_kadc.o)
                0x00015ec8                _adc_hw_ioctl
 .text._adc_hw_install
                0x0001642c       0x20 ..\..\..\..\..\..\..\lib\twrk70f120m.kds\debug\bsp\bsp.a(adc_kadc.o)
                0x0001642c                _adc_hw_install
 .text._adc_hw_init
                0x0001644c      0x358 ..\..\..\..\..\..\..\lib\twrk70f120m.kds\debug\bsp\bsp.a(adc_kadc.o)
                0x0001644c                _adc_hw_init
 .text._adc_hw_deinit
                0x000167a4       0x34 ..\..\..\..\..\..\..\lib\twrk70f120m.kds\debug\bsp\bsp.a(adc_kadc.o)
                0x000167a4                _adc_hw_deinit
 .text._adc_hw_channel_init
                0x000167d8      0x19c ..\..\..\..\..\..\..\lib\twrk70f120m.kds\debug\bsp\bsp.a(adc_kadc.o)
                0x000167d8                _adc_hw_channel_init
 .text._adc_hw_channel_deinit
                0x00016974       0x90 ..\..\..\..\..\..\..\lib\twrk70f120m.kds\debug\bsp\bsp.a(adc_kadc.o)
                0x00016974                _adc_hw_channel_deinit
 .text.adc_process_data
                0x00016a04      0x110 ..\..\..\..\..\..\..\lib\twrk70f120m.kds\debug\bsp\bsp.a(adc_kadc.o)
 .text.adc_process_all_data
                0x00016b14       0x54 ..\..\..\..\..\..\..\lib\twrk70f120m.kds\debug\bsp\bsp.a(adc_kadc.o)
                0x00016b14                adc_process_all_data
 .text.adc_complete_isr
                0x00016b68       0x3c ..\..\..\..\..\..\..\lib\twrk70f120m.kds\debug\bsp\bsp.a(adc_kadc.o)
 .text.adc_calibrate
                0x00016ba4      0x154 ..\..\..\..\..\..\..\lib\twrk70f120m.kds\debug\bsp\bsp.a(adc_kadc.o)
 .text.adc_get_calibration_data
                0x00016cf8       0xe4 ..\..\..\..\..\..\..\lib\twrk70f120m.kds\debug\bsp\bsp.a(adc_kadc.o)
 .text.adc_set_calibration_data
                0x00016ddc      0x108 ..\..\..\..\..\..\..\lib\twrk70f120m.kds\debug\bsp\bsp.a(adc_kadc.o)
 .text._bsp_get_adc_base_address
                0x00016ee4       0x2c ..\..\..\..\..\..\..\lib\twrk70f120m.kds\debug\bsp\bsp.a(adc_mk70.o)
                0x00016ee4                _bsp_get_adc_base_address
 .text._bsp_get_sai_base_address
                0x00016f10       0x40 ..\..\..\..\..\..\..\lib\twrk70f120m.kds\debug\bsp\bsp.a(sai_mk70.o)
                0x00016f10                _bsp_get_sai_base_address
 .text._bsp_get_sai_tx_vector
                0x00016f50       0x38 ..\..\..\..\..\..\..\lib\twrk70f120m.kds\debug\bsp\bsp.a(sai_mk70.o)
                0x00016f50                _bsp_get_sai_tx_vector
 .text._bsp_get_sai_rx_vector
                0x00016f88       0x38 ..\..\..\..\..\..\..\lib\twrk70f120m.kds\debug\bsp\bsp.a(sai_mk70.o)
                0x00016f88                _bsp_get_sai_rx_vector
 .text._bsp_get_sai_tx_dma_source
                0x00016fc0       0x3c ..\..\..\..\..\..\..\lib\twrk70f120m.kds\debug\bsp\bsp.a(sai_mk70.o)
                0x00016fc0                _bsp_get_sai_tx_dma_source
 .text._bsp_get_sai_rx_dma_source
                0x00016ffc       0x3c ..\..\..\..\..\..\..\lib\twrk70f120m.kds\debug\bsp\bsp.a(sai_mk70.o)
                0x00016ffc                _bsp_get_sai_rx_dma_source
 .text._bsp_get_sai_dma_channel_mask
                0x00017038       0x3c ..\..\..\..\..\..\..\lib\twrk70f120m.kds\debug\bsp\bsp.a(sai_mk70.o)
                0x00017038                _bsp_get_sai_dma_channel_mask
 .text._bsp_get_edma_done_vectors
                0x00017074       0x34 ..\..\..\..\..\..\..\lib\twrk70f120m.kds\debug\bsp\bsp.a(edma_kinetisf.o)
                0x00017074                _bsp_get_edma_done_vectors
 .text._bsp_get_edma_error_vectors
                0x000170a8       0x34 ..\..\..\..\..\..\..\lib\twrk70f120m.kds\debug\bsp\bsp.a(edma_kinetisf.o)
                0x000170a8                _bsp_get_edma_error_vectors
 .text._bsp_edma_enable
                0x000170dc       0x60 ..\..\..\..\..\..\..\lib\twrk70f120m.kds\debug\bsp\bsp.a(edma_kinetisf.o)
                0x000170dc                _bsp_edma_enable
 .text._lwevent_create_internal
                0x0001713c      0x128 ..\..\..\..\..\..\..\lib\twrk70f120m.kds\debug\psp\psp.a(lwevent.o)
                0x0001713c                _lwevent_create_internal
 .text._lwevent_create
                0x00017264       0x20 ..\..\..\..\..\..\..\lib\twrk70f120m.kds\debug\psp\psp.a(lwevent.o)
                0x00017264                _lwevent_create
 .text._lwevent_destroy_internal
                0x00017284      0x174 ..\..\..\..\..\..\..\lib\twrk70f120m.kds\debug\psp\psp.a(lwevent.o)
                0x00017284                _lwevent_destroy_internal
 .text._lwevent_destroy
                0x000173f8       0x1c ..\..\..\..\..\..\..\lib\twrk70f120m.kds\debug\psp\psp.a(lwevent.o)
                0x000173f8                _lwevent_destroy
 .text._lwevent_clear
                0x00017414       0xb4 ..\..\..\..\..\..\..\lib\twrk70f120m.kds\debug\psp\psp.a(lwevent.o)
                0x00017414                _lwevent_clear
 .text._lwevent_get_signalled
                0x000174c8       0x68 ..\..\..\..\..\..\..\lib\twrk70f120m.kds\debug\psp\psp.a(lwevent.o)
                0x000174c8                _lwevent_get_signalled
 .text._lwevent_set
                0x00017530      0x1c4 ..\..\..\..\..\..\..\lib\twrk70f120m.kds\debug\psp\psp.a(lwevent.o)
                0x00017530                _lwevent_set
 .text._lwevent_wait_internal
                0x000176f4      0x158 ..\..\..\..\..\..\..\lib\twrk70f120m.kds\debug\psp\psp.a(lwevent.o)
                0x000176f4                _lwevent_wait_internal
 .text._lwevent_wait_ticks
                0x0001784c       0xc8 ..\..\..\..\..\..\..\lib\twrk70f120m.kds\debug\psp\psp.a(lwevent.o)
                0x0001784c                _lwevent_wait_ticks
 .text._io_dev_install_drvif
                0x00017914      0x164 ..\..\..\..\..\..\..\lib\twrk70f120m.kds\debug\psp\psp.a(io_instx.o)
                0x00017914                _io_dev_install_drvif
 .text._io_dev_install_ext
                0x00017a78       0x44 ..\..\..\..\..\..\..\lib\twrk70f120m.kds\debug\psp\psp.a(io_instx.o)
                0x00017a78                _io_dev_install_ext
 .text._io_dev_install
                0x00017abc       0x44 ..\..\..\..\..\..\..\lib\twrk70f120m.kds\debug\psp\psp.a(io_inst.o)
                0x00017abc                _io_dev_install
 .text._io_init
                0x00017b00       0x38 ..\..\..\..\..\..\..\lib\twrk70f120m.kds\debug\psp\psp.a(io_init.o)
                0x00017b00                _io_init
 .text._io_fopen
                0x00017b38       0xf4 ..\..\..\..\..\..\..\lib\twrk70f120m.kds\debug\psp\psp.a(io_fopen.o)
                0x00017b38                _io_fopen
 .text._psp_int_init
                0x00017c2c       0x28 ..\..\..\..\..\..\..\lib\twrk70f120m.kds\debug\psp\psp.a(psp_iinit.o)
                0x00017c2c                _psp_int_init
 .text._kinetis_mpu_disable
                0x00017c54       0x20 ..\..\..\..\..\..\..\lib\twrk70f120m.kds\debug\psp\psp.a(kinetis_mpu.o)
                0x00017c54                _kinetis_mpu_disable
 .text._int_set_vector_table
                0x00017c74       0x34 ..\..\..\..\..\..\..\lib\twrk70f120m.kds\debug\psp\psp.a(int_vtab.o)
                0x00017c74                _int_set_vector_table
 .text._psp_int_install
                0x00017ca8       0x20 ..\..\..\..\..\..\..\lib\twrk70f120m.kds\debug\psp\psp.a(int_inst.o)
                0x00017ca8                _psp_int_install
 .text._dcache_enable
                0x00017cc8       0x30 ..\..\..\..\..\..\..\lib\twrk70f120m.kds\debug\psp\psp.a(cache.o)
                0x00017cc8                _dcache_enable
 .text._dcache_invalidate_line
                0x00017cf8       0x40 ..\..\..\..\..\..\..\lib\twrk70f120m.kds\debug\psp\psp.a(cache.o)
                0x00017cf8                _dcache_invalidate_line
 .text._dcache_invalidate_mlines
                0x00017d38       0x34 ..\..\..\..\..\..\..\lib\twrk70f120m.kds\debug\psp\psp.a(cache.o)
                0x00017d38                _dcache_invalidate_mlines
 .text._dcache_flush_line
                0x00017d6c       0x40 ..\..\..\..\..\..\..\lib\twrk70f120m.kds\debug\psp\psp.a(cache.o)
                0x00017d6c                _dcache_flush_line
 .text._dcache_flush_mlines
                0x00017dac       0x34 ..\..\..\..\..\..\..\lib\twrk70f120m.kds\debug\psp\psp.a(cache.o)
                0x00017dac                _dcache_flush_mlines
 .text._icache_enable
                0x00017de0       0x2c ..\..\..\..\..\..\..\lib\twrk70f120m.kds\debug\psp\psp.a(cache.o)
                0x00017de0                _icache_enable
 *(.rodata*)
 .rodata        0x00017e0c      0x1ec Sources\gpio.o
 .rodata.MQX_template_list
                0x00017ff8       0x40 Sources\gpio.o
                0x00017ff8                MQX_template_list
 .rodata.gpio_ptr_arr
                0x00018038       0x18 ..\..\..\..\..\..\..\lib\twrk70f120m.kds\debug\bsp\bsp.a(lwgpio_kgpio.o)
 .rodata        0x00018050       0x40 ..\..\..\..\..\..\..\lib\twrk70f120m.kds\debug\psp\psp.a(task.o)
 .rodata.__func__.7897
                0x00018090       0x18 ..\..\..\..\..\..\..\lib\twrk70f120m.kds\debug\psp\psp.a(task.o)
 .rodata._mqx_zero_tick_struct
                0x000180a8        0xc ..\..\..\..\..\..\..\lib\twrk70f120m.kds\debug\psp\psp.a(mqx.o)
                0x000180a8                _mqx_zero_tick_struct
 .rodata._mqx_version_number
                0x000180b4        0x4 ..\..\..\..\..\..\..\lib\twrk70f120m.kds\debug\psp\psp.a(mqx.o)
                0x000180b4                _mqx_version_number
 .rodata        0x000180b8       0x98 ..\..\..\..\..\..\..\lib\twrk70f120m.kds\debug\psp\psp.a(mqx.o)
 .rodata._mqx_vendor
                0x00018150        0x4 ..\..\..\..\..\..\..\lib\twrk70f120m.kds\debug\psp\psp.a(mqx.o)
                0x00018150                _mqx_vendor
 .rodata        0x00018154       0x7c ..\..\..\..\..\..\..\lib\twrk70f120m.kds\debug\psp\psp.a(mem.o)
 .rodata.__func__.7973
                0x000181d0       0x20 ..\..\..\..\..\..\..\lib\twrk70f120m.kds\debug\psp\psp.a(mem.o)
 .rodata        0x000181f0        0x8 ..\..\..\..\..\..\..\lib\twrk70f120m.kds\debug\psp\psp.a(io_dopr.o)
 .rodata.upper_hex_string
                0x000181f8       0x14 ..\..\..\..\..\..\..\lib\twrk70f120m.kds\debug\psp\psp.a(io_dopr.o)
 .rodata.lower_hex_string
                0x0001820c       0x14 ..\..\..\..\..\..\..\lib\twrk70f120m.kds\debug\psp\psp.a(io_dopr.o)
 .rodata.str1.4
                0x00018220        0x4 ..\..\..\..\..\..\..\..\KDS_v3\toolchain\arm-none-eabi\lib\armv7e-m\fpu\libc.a(lib_a-impure.o)
 .rodata._global_impure_ptr
                0x00018224        0x4 ..\..\..\..\..\..\..\..\KDS_v3\toolchain\arm-none-eabi\lib\armv7e-m\fpu\libc.a(lib_a-impure.o)
                0x00018224                _global_impure_ptr
 .rodata        0x00018228        0x8 ..\..\..\..\..\..\..\lib\twrk70f120m.kds\debug\bsp\bsp.a(mqx_init.o)
 .rodata.MQX_init_struct
                0x00018230       0x30 ..\..\..\..\..\..\..\lib\twrk70f120m.kds\debug\bsp\bsp.a(mqx_init.o)
                0x00018230                MQX_init_struct
 .rodata.adc0_conv_table_a.9553
                0x00018260        0x4 ..\..\..\..\..\..\..\lib\twrk70f120m.kds\debug\bsp\bsp.a(init_gpio.o)
 .rodata.adc0_conv_table_bx.9552
                0x00018264       0x1c ..\..\..\..\..\..\..\lib\twrk70f120m.kds\debug\bsp\bsp.a(init_gpio.o)
 .rodata.adc1_conv_table_a.9555
                0x00018280        0x4 ..\..\..\..\..\..\..\lib\twrk70f120m.kds\debug\bsp\bsp.a(init_gpio.o)
 .rodata.adc1_conv_table_bx.9554
                0x00018284       0x1c ..\..\..\..\..\..\..\lib\twrk70f120m.kds\debug\bsp\bsp.a(init_gpio.o)
 .rodata.adc2_conv_table_a.9557
                0x000182a0        0x4 ..\..\..\..\..\..\..\lib\twrk70f120m.kds\debug\bsp\bsp.a(init_gpio.o)
 .rodata.adc2_conv_table_bx.9556
                0x000182a4       0x1c ..\..\..\..\..\..\..\lib\twrk70f120m.kds\debug\bsp\bsp.a(init_gpio.o)
 .rodata.adc3_conv_table_a.9559
                0x000182c0        0x4 ..\..\..\..\..\..\..\lib\twrk70f120m.kds\debug\bsp\bsp.a(init_gpio.o)
 .rodata.adc3_conv_table_bx.9558
                0x000182c4       0x1c ..\..\..\..\..\..\..\lib\twrk70f120m.kds\debug\bsp\bsp.a(init_gpio.o)
 .rodata        0x000182e0       0x30 ..\..\..\..\..\..\..\lib\twrk70f120m.kds\debug\bsp\bsp.a(init_bsp.o)
 .rodata._bsp_pdb_init
                0x00018310       0x10 ..\..\..\..\..\..\..\lib\twrk70f120m.kds\debug\bsp\bsp.a(init_adc.o)
                0x00018310                _bsp_pdb_init
 .rodata._bsp_adc1_init
                0x00018320       0x18 ..\..\..\..\..\..\..\lib\twrk70f120m.kds\debug\bsp\bsp.a(init_adc.o)
                0x00018320                _bsp_adc1_init
 .rodata.MCGTransitionMatrix
                0x00018338       0x1c ..\..\..\..\..\..\..\lib\twrk70f120m.kds\debug\bsp\bsp.a(bsp_cm.o)
 .rodata.PE_CpuClockConfigurations
                0x00018354       0x78 ..\..\..\..\..\..\..\lib\twrk70f120m.kds\debug\bsp\bsp.a(bsp_cm.o)
                0x00018354                PE_CpuClockConfigurations
 .rodata.TRANSMIT_FIFO_SIZE
                0x000183cc        0x8 ..\..\..\..\..\..\..\lib\twrk70f120m.kds\debug\bsp\bsp.a(serl_pol_kuart.o)
 .rodata.RECEIVE_FIFO_SIZE
                0x000183d4        0x8 ..\..\..\..\..\..\..\lib\twrk70f120m.kds\debug\bsp\bsp.a(serl_pol_kuart.o)
 .rodata        0x000183dc       0x10 ..\..\..\..\..\..\..\lib\twrk70f120m.kds\debug\bsp\bsp.a(io_sinit.o)
 .rodata        0x000183ec        0x4 ..\..\..\..\..\..\..\lib\twrk70f120m.kds\debug\bsp\bsp.a(sai_dma.o)
 .rodata.BAUDRATE_MULT
                0x000183f0        0xc ..\..\..\..\..\..\..\lib\twrk70f120m.kds\debug\bsp\bsp.a(i2c_pol_ki2c.o)
 .rodata.BAUDRATE_ICR
                0x000183fc      0x100 ..\..\..\..\..\..\..\lib\twrk70f120m.kds\debug\bsp\bsp.a(i2c_pol_ki2c.o)
 .rodata.systick_devif
                0x000184fc       0x18 ..\..\..\..\..\..\..\lib\twrk70f120m.kds\debug\bsp\bsp.a(hwtimer_systick.o)
                0x000184fc                systick_devif
 .rodata.alignment_tab
                0x00018514       0x10 ..\..\..\..\..\..\..\lib\twrk70f120m.kds\debug\bsp\bsp.a(dma.o)
 .rodata._bsp_sci2_init
                0x00018524       0x24 ..\..\..\..\..\..\..\lib\twrk70f120m.kds\debug\bsp\bsp.a(init_sci.o)
                0x00018524                _bsp_sci2_init
 .rodata        0x00018548        0x8 ..\..\..\..\..\..\..\lib\twrk70f120m.kds\debug\bsp\bsp.a(init_sai.o)
 .rodata._bsp_sai_init
                0x00018550       0x14 ..\..\..\..\..\..\..\lib\twrk70f120m.kds\debug\bsp\bsp.a(init_sai.o)
                0x00018550                _bsp_sai_init
 .rodata._bsp_i2c0_init
                0x00018564       0x14 ..\..\..\..\..\..\..\lib\twrk70f120m.kds\debug\bsp\bsp.a(init_i2c.o)
                0x00018564                _bsp_i2c0_init
 .rodata._bsp_esdhc0_init
                0x00018578        0xc ..\..\..\..\..\..\..\lib\twrk70f120m.kds\debug\bsp\bsp.a(init_esdhc.o)
                0x00018578                _bsp_esdhc0_init
 .rodata._bsp_dma_devif_list
                0x00018584       0x18 ..\..\..\..\..\..\..\lib\twrk70f120m.kds\debug\bsp\bsp.a(init_dma.o)
                0x00018584                _bsp_dma_devif_list
 .rodata.adc_max_frq_table.9720
                0x0001859c       0x20 ..\..\..\..\..\..\..\lib\twrk70f120m.kds\debug\bsp\bsp.a(adc_kadc.o)
 .rodata.edma_done_vectors
                0x000185bc       0x40 ..\..\..\..\..\..\..\lib\twrk70f120m.kds\debug\bsp\bsp.a(edma_kinetisf.o)
 .rodata.edma_error_vectors
                0x000185fc        0x4 ..\..\..\..\..\..\..\lib\twrk70f120m.kds\debug\bsp\bsp.a(edma_kinetisf.o)
 *(.eh_frame)
 *(.eh_frame_hdr)
                0x00018600                . = ALIGN (0x8)
 *crtbegin.o(.ctors)
 *(EXCLUDE_FILE(*crtend.o) .ctors)
 *(SORT(.ctors.*))
 *crtend.o(.ctors)
 *crtbegin.o(.dtors)
 *(EXCLUDE_FILE(*crtend.o) .dtors)
 *(SORT(.dtors.*))
 *crtend.o(.dtors)
                0x00018600                __preinit_array_start = .
 *(.preinit_array*)
                0x00018600                __preinit_array_end = .
                0x00018600                __init_array_start = .
 *(SORT(.init_array.*))
 .init_array.00000
                0x00018600        0x4 ..\..\..\..\..\..\..\..\KDS_v3\toolchain\arm-none-eabi\lib\armv7e-m\fpu\libc.a(lib_a-__call_atexit.o)
 *(.init_array*)
                0x00018604                __init_array_end = .
                0x00018604                __fini_array_start = .
 *(SORT(.fini_array.*))
 *(.fini_array*)
                0x00018604                __fini_array_end = .
                0x00018604                . = ALIGN (0x4)
                0x00018604                __zero_table_start__ = .
                0x00018604        0x4 LONG 0x700004c0 _bss_start
                0x00018608        0x4 LONG 0x16c (_bss_end - _bss_start)
                0x0001860c                __zero_table_end__ = .
                0x0001860c                . = ALIGN (0x4)
                0x0001860c                __copy_table_start__ = .
                0x0001860c        0x4 LONG 0x18620 LOADADDR (.data)
                0x00018610        0x4 LONG 0x70000000 _data_start
                0x00018614        0x4 LONG 0x4bc (_data_end - _data_start)
                0x00018618                __copy_table_end__ = .

.glue_7         0x00018618        0x0
 .glue_7        0x00000000        0x0 linker stubs

.glue_7t        0x00018618        0x0
 .glue_7t       0x00000000        0x0 linker stubs

.vfp11_veneer   0x00018618        0x0
 .vfp11_veneer  0x00000000        0x0 linker stubs

.v4_bx          0x00018618        0x0
 .v4_bx         0x00000000        0x0 linker stubs

.iplt           0x00018618        0x0
 .iplt          0x00000000        0x0 Sources\gpio.o

.ARM.extab
 *(.ARM.extab* .gnu.linkonce.armextab.*)

.ARM            0x00018618        0x8
                0x00018618                __exidx_start = .
 *(.ARM.exidx*)
 .ARM.exidx     0x00018618        0x8 ..\..\..\..\..\..\..\..\KDS_v3\toolchain\lib\gcc\arm-none-eabi\4.8.4\armv7e-m\fpu\libgcc.a(_divdi3.o)
 .ARM.exidx     0x00018620        0x0 ..\..\..\..\..\..\..\..\KDS_v3\toolchain\lib\gcc\arm-none-eabi\4.8.4\armv7e-m\fpu\libgcc.a(_udivdi3.o)
                                  0x8 (size before relaxing)
                0x00018620                __exidx_end = .

.rel.dyn        0x00018620        0x0
 .rel.iplt      0x00000000        0x0 Sources\gpio.o

.data           0x70000000      0x4bc load address 0x00018620
                0x70000000                . = ALIGN (0x80)
                0x70000000                _data_start = .
                0x70000000                __VECTOR_TABLE_RAM_START = .
 *(.vectors_ram)
 *(.data*)
 .data.pcr_reg_arr
                0x70000000       0x18 ..\..\..\..\..\..\..\lib\twrk70f120m.kds\debug\bsp\bsp.a(lwgpio_kgpio.o)
                0x70000000                pcr_reg_arr
 .data._mqx_kernel_data
                0x70000018        0x4 ..\..\..\..\..\..\..\lib\twrk70f120m.kds\debug\psp\psp.a(mqx.o)
                0x70000018                _mqx_kernel_data
 *fill*         0x7000001c        0x4 
 .data.impure_data
                0x70000020      0x428 ..\..\..\..\..\..\..\..\KDS_v3\toolchain\arm-none-eabi\lib\armv7e-m\fpu\libc.a(lib_a-impure.o)
 .data._bsp_audio_data_init
                0x70000448        0xc ..\..\..\..\..\..\..\lib\twrk70f120m.kds\debug\bsp\bsp.a(init_sai.o)
                0x70000448                _bsp_audio_data_init
 .data._bsp_ksai_init
                0x70000454       0x1c ..\..\..\..\..\..\..\lib\twrk70f120m.kds\debug\bsp\bsp.a(init_sai.o)
                0x70000454                _bsp_ksai_init
 .data.edma_devif
                0x70000470       0x2c ..\..\..\..\..\..\..\lib\twrk70f120m.kds\debug\bsp\bsp.a(edma.o)
                0x70000470                edma_devif
 .data.edma_base_tab
                0x7000049c        0x4 ..\..\..\..\..\..\..\lib\twrk70f120m.kds\debug\bsp\bsp.a(edma.o)
 .data.dmamux_base_tab
                0x700004a0        0x8 ..\..\..\..\..\..\..\lib\twrk70f120m.kds\debug\bsp\bsp.a(edma.o)
 .data.pdb_external
                0x700004a8        0x4 ..\..\..\..\..\..\..\lib\twrk70f120m.kds\debug\bsp\bsp.a(adt_kpdb.o)
 .data.adc_address
                0x700004ac       0x10 ..\..\..\..\..\..\..\lib\twrk70f120m.kds\debug\bsp\bsp.a(adc_mk70.o)
                0x700004bc                . = ALIGN (0x4)
                0x700004bc                _data_end = .

.igot.plt       0x700004bc        0x0 load address 0x00018adc
 .igot.plt      0x00000000        0x0 Sources\gpio.o

.rom_end_data   0x00018adc        0x0
                0x00018adc                _rom_data_end = .

.bss            0x700004c0      0x16c
                0x700004c0                . = ALIGN (0x4)
                0x700004c0                _bss_start = .
 *(.bss*)
 .bss.heuristic.7829
                0x700004c0        0x4 ..\..\..\..\..\..\..\lib\twrk70f120m.kds\debug\psp\psp.a(psp_mstiq.o)
 .bss.ms_per_tick.7828
                0x700004c4        0x4 ..\..\..\..\..\..\..\lib\twrk70f120m.kds\debug\psp\psp.a(psp_mstiq.o)
 .bss.ClockConfigurationID
                0x700004c8        0x1 ..\..\..\..\..\..\..\lib\twrk70f120m.kds\debug\bsp\bsp.a(bsp_cm.o)
 *fill*         0x700004c9        0x3 
 .bss.alarm_time
                0x700004cc        0x4 ..\..\..\..\..\..\..\lib\twrk70f120m.kds\debug\bsp\bsp.a(krtc.o)
 .bss.alarm_period
                0x700004d0        0x4 ..\..\..\..\..\..\..\lib\twrk70f120m.kds\debug\bsp\bsp.a(krtc.o)
 .bss.devif_list
                0x700004d4        0x4 ..\..\..\..\..\..\..\lib\twrk70f120m.kds\debug\bsp\bsp.a(dma.o)
 .bss.devif_list_count
                0x700004d8        0x4 ..\..\..\..\..\..\..\lib\twrk70f120m.kds\debug\bsp\bsp.a(dma.o)
 .bss.edma_channel_context
                0x700004dc       0x80 ..\..\..\..\..\..\..\lib\twrk70f120m.kds\debug\bsp\bsp.a(edma.o)
 .bss.pdb_internal
                0x7000055c       0x34 ..\..\..\..\..\..\..\lib\twrk70f120m.kds\debug\bsp\bsp.a(adt_kpdb.o)
 .bss.adc_internal
                0x70000590       0x24 ..\..\..\..\..\..\..\lib\twrk70f120m.kds\debug\bsp\bsp.a(adc_kadc.o)
 *(COMMON)
 COMMON         0x700005b4       0x1c Sources\gpio.o
                0x700005b4                lwsem
 COMMON         0x700005d0       0x10 ..\..\..\..\..\..\..\lib\twrk70f120m.kds\debug\psp\psp.a(mqx.o)
                0x700005d0                _mqx_system_stack
                0x700005d4                _sleep_p3_loop_ram
                0x700005d8                _sleep_p3_ram
                0x700005dc                _sleep_p3_wfi_ram
 COMMON         0x700005e0       0x48 ..\..\..\..\..\..\..\lib\twrk70f120m.kds\debug\bsp\bsp.a(init_bsp.o)
                0x700005e0                _BSP_sram_pool
                0x700005e8                systimer
 COMMON         0x70000628        0x4 ..\..\..\..\..\..\..\lib\twrk70f120m.kds\debug\bsp\bsp.a(adc_kadc.o)
                0x70000628                adc_bundle
                0x7000062c                . = ALIGN (0x4)
                0x7000062c                _bss_end = .

.kernel_data    0x7000062c        0x4
                0x70000630                . = ALIGN (0x10)
 *fill*         0x7000062c        0x4 
                0x70000630                __KERNEL_DATA_START = .

.end_of_kernel_data
                0x77fffff0        0x0
                0x77fffff0                __KERNEL_DATA_END = .
                0x77fffff0                __KERNEL_AREA_END = .

.boot_stack     0x2000fa00        0x0
                0x2000fa00                _stack_end = .

.end_of_boot_stack
                0x2000fc00        0x0
                0x2000fc00                __BOOT_STACK_ADDRESS = .

.sram_data      0x1fff0000        0x0
                0x1fff0000                . = ALIGN (0x200)
                0x1fff0000                __BDT_BASE = .
 *(.usb_bdt)
                0x1fff0000                __BDT_END = .
                0x1fff0000                __SRAM_POOL = .
                0x1fff0000                __UNCACHED_DATA_START = .
                0x00018adc                _flashx_start = _rom_data_end
                0x00019000                __FLASHX_START_ADDR = ((((_flashx_start + __FLASHX_SECT_SIZE) - 0x1) / __FLASHX_SECT_SIZE) * __FLASHX_SECT_SIZE)
                0x00100000                __FLASHX_END_ADDR = (__INTERNAL_FLASH_BASE + __INTERNAL_FLASH_SIZE)
OUTPUT(gpio.elf elf32-littlearm)

.debug_info     0x00000000    0x3cb5d
 .debug_info    0x00000000      0x4a4 Sources\gpio.o
 .debug_info    0x000004a4      0x95c ..\..\..\..\..\..\..\lib\twrk70f120m.kds\debug\bsp\bsp.a(lwgpio_kgpio.o)
 .debug_info    0x00000e00      0x11a ..\..\..\..\..\..\..\lib\twrk70f120m.kds\debug\bsp\bsp.a(vectors.o)
 .debug_info    0x00000f1a     0x235b ..\..\..\..\..\..\..\lib\twrk70f120m.kds\debug\psp\psp.a(time.o)
 .debug_info    0x00003275     0x27c5 ..\..\..\..\..\..\..\lib\twrk70f120m.kds\debug\psp\psp.a(task.o)
 .debug_info    0x00005a3a     0x12e4 ..\..\..\..\..\..\..\lib\twrk70f120m.kds\debug\psp\psp.a(sched.o)
 .debug_info    0x00006d1e      0x447 ..\..\..\..\..\..\..\lib\twrk70f120m.kds\debug\psp\psp.a(queue.o)
 .debug_info    0x00007165     0x174f ..\..\..\..\..\..\..\lib\twrk70f120m.kds\debug\psp\psp.a(mqx.o)
 .debug_info    0x000088b4     0x2865 ..\..\..\..\..\..\..\lib\twrk70f120m.kds\debug\psp\psp.a(mem.o)
 .debug_info    0x0000b119     0x15a4 ..\..\..\..\..\..\..\lib\twrk70f120m.kds\debug\psp\psp.a(lwsem.o)
 .debug_info    0x0000c6bd     0x163d ..\..\..\..\..\..\..\lib\twrk70f120m.kds\debug\psp\psp.a(klog.o)
 .debug_info    0x0000dcfa     0x1451 ..\..\..\..\..\..\..\lib\twrk70f120m.kds\debug\psp\psp.a(int.o)
 .debug_info    0x0000f14b      0xfe3 ..\..\..\..\..\..\..\lib\twrk70f120m.kds\debug\psp\psp.a(inittask.o)
 .debug_info    0x0001012e      0xfa8 ..\..\..\..\..\..\..\lib\twrk70f120m.kds\debug\psp\psp.a(idletask.o)
 .debug_info    0x000110d6      0x410 ..\..\..\..\..\..\..\lib\twrk70f120m.kds\debug\psp\psp.a(io_pntf.o)
 .debug_info    0x000114e6      0x3ed ..\..\..\..\..\..\..\lib\twrk70f120m.kds\debug\psp\psp.a(io_fputc.o)
 .debug_info    0x000118d3      0x8c5 ..\..\..\..\..\..\..\lib\twrk70f120m.kds\debug\psp\psp.a(io_dopr.o)
 .debug_info    0x00012198      0x535 ..\..\..\..\..\..\..\lib\twrk70f120m.kds\debug\psp\psp.a(stack_de.o)
 .debug_info    0x000126cd     0x12a9 ..\..\..\..\..\..\..\lib\twrk70f120m.kds\debug\psp\psp.a(stack_bu.o)
 .debug_info    0x00013976     0x11ab ..\..\..\..\..\..\..\lib\twrk70f120m.kds\debug\psp\psp.a(sc_irdyq.o)
 .debug_info    0x00014b21     0x10ae ..\..\..\..\..\..\..\lib\twrk70f120m.kds\debug\psp\psp.a(psp_tisu.o)
 .debug_info    0x00015bcf     0x1035 ..\..\..\..\..\..\..\lib\twrk70f120m.kds\debug\psp\psp.a(psp_tinm.o)
 .debug_info    0x00016c04     0x114f ..\..\..\..\..\..\..\lib\twrk70f120m.kds\debug\psp\psp.a(psp_tims.o)
 .debug_info    0x00017d53     0x103c ..\..\..\..\..\..\..\lib\twrk70f120m.kds\debug\psp\psp.a(psp_tiad.o)
 .debug_info    0x00018d8f     0x1059 ..\..\..\..\..\..\..\lib\twrk70f120m.kds\debug\psp\psp.a(psp_mstiq.o)
 .debug_info    0x00019de8      0x147 ..\..\..\..\..\..\..\lib\twrk70f120m.kds\debug\psp\psp.a(psp_mat3.o)
 .debug_info    0x00019f2f      0x288 ..\..\..\..\..\..\..\lib\twrk70f120m.kds\debug\psp\psp.a(psp_mat2.o)
 .debug_info    0x0001a1b7      0x205 ..\..\..\..\..\..\..\lib\twrk70f120m.kds\debug\psp\psp.a(psp_mat1.o)
 .debug_info    0x0001a3bc      0x470 ..\..\..\..\..\..\..\lib\twrk70f120m.kds\debug\psp\psp.a(nvic.o)
 .debug_info    0x0001a82c       0xe4 ..\..\..\..\..\..\..\lib\twrk70f120m.kds\debug\psp\psp.a(k_assert.o)
 .debug_info    0x0001a910       0x9e ..\..\..\..\..\..\..\lib\twrk70f120m.kds\debug\psp\psp.a(dispatch.o)
 .debug_info    0x0001a9ae       0x9a ..\..\..\..\..\..\..\lib\twrk70f120m.kds\debug\psp\psp.a(boot.o)
 .debug_info    0x0001aa48     0x1785 ..\..\..\..\..\..\..\lib\twrk70f120m.kds\debug\psp\psp.a(lwlog.o)
 .debug_info    0x0001c1cd      0xfa6 ..\..\..\..\..\..\..\lib\twrk70f120m.kds\debug\psp\psp.a(io_ghand.o)
 .debug_info    0x0001d173      0x60e ..\..\..\..\..\..\..\lib\twrk70f120m.kds\debug\psp\psp.a(io_fp.o)
 .debug_info    0x0001d781      0x3b7 ..\..\..\..\..\..\..\lib\twrk70f120m.kds\debug\psp\psp.a(comp.o)
 .debug_info    0x0001db38      0x2a2 ..\..\..\..\..\..\..\lib\twrk70f120m.kds\debug\bsp\bsp.a(mqx_main.o)
 .debug_info    0x0001ddda      0x2cf ..\..\..\..\..\..\..\lib\twrk70f120m.kds\debug\bsp\bsp.a(mqx_init.o)
 .debug_info    0x0001e0a9      0xc16 ..\..\..\..\..\..\..\lib\twrk70f120m.kds\debug\bsp\bsp.a(init_hw.o)
 .debug_info    0x0001ecbf     0x100a ..\..\..\..\..\..\..\lib\twrk70f120m.kds\debug\bsp\bsp.a(init_gpio.o)
 .debug_info    0x0001fcc9     0x2004 ..\..\..\..\..\..\..\lib\twrk70f120m.kds\debug\bsp\bsp.a(init_bsp.o)
 .debug_info    0x00021ccd      0x5d1 ..\..\..\..\..\..\..\lib\twrk70f120m.kds\debug\bsp\bsp.a(init_adc.o)
 .debug_info    0x0002229e     0x1233 ..\..\..\..\..\..\..\lib\twrk70f120m.kds\debug\bsp\bsp.a(bsp_cm.o)
 .debug_info    0x000234d1      0xf4f ..\..\..\..\..\..\..\lib\twrk70f120m.kds\debug\bsp\bsp.a(serl_pol_kuart.o)
 .debug_info    0x00024420      0x971 ..\..\..\..\..\..\..\lib\twrk70f120m.kds\debug\bsp\bsp.a(serl_pol.o)
 .debug_info    0x00024d91      0xfa3 ..\..\..\..\..\..\..\lib\twrk70f120m.kds\debug\bsp\bsp.a(io_sinit.o)
 .debug_info    0x00025d34      0x7c1 ..\..\..\..\..\..\..\lib\twrk70f120m.kds\debug\bsp\bsp.a(sai_dma.o)
 .debug_info    0x000264f5      0x773 ..\..\..\..\..\..\..\lib\twrk70f120m.kds\debug\bsp\bsp.a(krtc.o)
 .debug_info    0x00026c68      0xa57 ..\..\..\..\..\..\..\lib\twrk70f120m.kds\debug\bsp\bsp.a(i2c_pol_ki2c.o)
 .debug_info    0x000276bf      0x516 ..\..\..\..\..\..\..\lib\twrk70f120m.kds\debug\bsp\bsp.a(i2c_mk70.o)
 .debug_info    0x00027bd5      0xc00 ..\..\..\..\..\..\..\lib\twrk70f120m.kds\debug\bsp\bsp.a(i2c_int_ki2c_legacy.o)
 .debug_info    0x000287d5      0xa48 ..\..\..\..\..\..\..\lib\twrk70f120m.kds\debug\bsp\bsp.a(hwtimer_systick.o)
 .debug_info    0x0002921d      0xaf8 ..\..\..\..\..\..\..\lib\twrk70f120m.kds\debug\bsp\bsp.a(hwtimer_kinetis.o)
 .debug_info    0x00029d15      0x771 ..\..\..\..\..\..\..\lib\twrk70f120m.kds\debug\bsp\bsp.a(hwtimer.o)
 .debug_info    0x0002a486     0x1189 ..\..\..\..\..\..\..\lib\twrk70f120m.kds\debug\bsp\bsp.a(esdhc.o)
 .debug_info    0x0002b60f      0x991 ..\..\..\..\..\..\..\lib\twrk70f120m.kds\debug\bsp\bsp.a(dma.o)
 .debug_info    0x0002bfa0      0xe92 ..\..\..\..\..\..\..\lib\twrk70f120m.kds\debug\bsp\bsp.a(adc.o)
 .debug_info    0x0002ce32      0x4f0 ..\..\..\..\..\..\..\lib\twrk70f120m.kds\debug\bsp\bsp.a(init_sci.o)
 .debug_info    0x0002d322      0x34a ..\..\..\..\..\..\..\lib\twrk70f120m.kds\debug\bsp\bsp.a(init_sai.o)
 .debug_info    0x0002d66c      0x180 ..\..\..\..\..\..\..\lib\twrk70f120m.kds\debug\bsp\bsp.a(init_i2c.o)
 .debug_info    0x0002d7ec       0xfa ..\..\..\..\..\..\..\lib\twrk70f120m.kds\debug\bsp\bsp.a(init_esdhc.o)
 .debug_info    0x0002d8e6      0x473 ..\..\..\..\..\..\..\lib\twrk70f120m.kds\debug\bsp\bsp.a(init_dma.o)
 .debug_info    0x0002dd59      0x7ea ..\..\..\..\..\..\..\lib\twrk70f120m.kds\debug\bsp\bsp.a(serl_mk70.o)
 .debug_info    0x0002e543     0x169a ..\..\..\..\..\..\..\lib\twrk70f120m.kds\debug\bsp\bsp.a(sai_dma_ksai.o)
 .debug_info    0x0002fbdd      0x7d0 ..\..\..\..\..\..\..\lib\twrk70f120m.kds\debug\bsp\bsp.a(i2c_pol.o)
 .debug_info    0x000303ad      0x7c5 ..\..\..\..\..\..\..\lib\twrk70f120m.kds\debug\bsp\bsp.a(i2c_int.o)
 .debug_info    0x00030b72      0x61a ..\..\..\..\..\..\..\lib\twrk70f120m.kds\debug\bsp\bsp.a(esdhc_mk70.o)
 .debug_info    0x0003118c     0x13c1 ..\..\..\..\..\..\..\lib\twrk70f120m.kds\debug\bsp\bsp.a(edma.o)
 .debug_info    0x0003254d     0x14f3 ..\..\..\..\..\..\..\lib\twrk70f120m.kds\debug\bsp\bsp.a(adt_kpdb.o)
 .debug_info    0x00033a40     0x1362 ..\..\..\..\..\..\..\lib\twrk70f120m.kds\debug\bsp\bsp.a(adc_kadc.o)
 .debug_info    0x00034da2      0x2ae ..\..\..\..\..\..\..\lib\twrk70f120m.kds\debug\bsp\bsp.a(adc_mk70.o)
 .debug_info    0x00035050      0x749 ..\..\..\..\..\..\..\lib\twrk70f120m.kds\debug\bsp\bsp.a(sai_mk70.o)
 .debug_info    0x00035799      0x703 ..\..\..\..\..\..\..\lib\twrk70f120m.kds\debug\bsp\bsp.a(edma_kinetisf.o)
 .debug_info    0x00035e9c     0x164b ..\..\..\..\..\..\..\lib\twrk70f120m.kds\debug\psp\psp.a(lwevent.o)
 .debug_info    0x000374e7     0x13c7 ..\..\..\..\..\..\..\lib\twrk70f120m.kds\debug\psp\psp.a(io_instx.o)
 .debug_info    0x000388ae      0x49b ..\..\..\..\..\..\..\lib\twrk70f120m.kds\debug\psp\psp.a(io_inst.o)
 .debug_info    0x00038d49      0xfb5 ..\..\..\..\..\..\..\lib\twrk70f120m.kds\debug\psp\psp.a(io_init.o)
 .debug_info    0x00039cfe     0x129f ..\..\..\..\..\..\..\lib\twrk70f120m.kds\debug\psp\psp.a(io_fopen.o)
 .debug_info    0x0003af9d       0xf0 ..\..\..\..\..\..\..\lib\twrk70f120m.kds\debug\psp\psp.a(psp_iinit.o)
 .debug_info    0x0003b08d      0x38e ..\..\..\..\..\..\..\lib\twrk70f120m.kds\debug\psp\psp.a(kinetis_mpu.o)
 .debug_info    0x0003b41b      0x384 ..\..\..\..\..\..\..\lib\twrk70f120m.kds\debug\psp\psp.a(int_vtab.o)
 .debug_info    0x0003b79f      0xf95 ..\..\..\..\..\..\..\lib\twrk70f120m.kds\debug\psp\psp.a(int_inst.o)
 .debug_info    0x0003c734      0x429 ..\..\..\..\..\..\..\lib\twrk70f120m.kds\debug\psp\psp.a(cache.o)

.debug_abbrev   0x00000000     0x6572
 .debug_abbrev  0x00000000      0x145 Sources\gpio.o
 .debug_abbrev  0x00000145      0x186 ..\..\..\..\..\..\..\lib\twrk70f120m.kds\debug\bsp\bsp.a(lwgpio_kgpio.o)
 .debug_abbrev  0x000002cb       0x85 ..\..\..\..\..\..\..\lib\twrk70f120m.kds\debug\bsp\bsp.a(vectors.o)
 .debug_abbrev  0x00000350      0x1fc ..\..\..\..\..\..\..\lib\twrk70f120m.kds\debug\psp\psp.a(time.o)
 .debug_abbrev  0x0000054c      0x21b ..\..\..\..\..\..\..\lib\twrk70f120m.kds\debug\psp\psp.a(task.o)
 .debug_abbrev  0x00000767      0x186 ..\..\..\..\..\..\..\lib\twrk70f120m.kds\debug\psp\psp.a(sched.o)
 .debug_abbrev  0x000008ed      0x13d ..\..\..\..\..\..\..\lib\twrk70f120m.kds\debug\psp\psp.a(queue.o)
 .debug_abbrev  0x00000a2a      0x1ce ..\..\..\..\..\..\..\lib\twrk70f120m.kds\debug\psp\psp.a(mqx.o)
 .debug_abbrev  0x00000bf8      0x1ce ..\..\..\..\..\..\..\lib\twrk70f120m.kds\debug\psp\psp.a(mem.o)
 .debug_abbrev  0x00000dc6      0x17a ..\..\..\..\..\..\..\lib\twrk70f120m.kds\debug\psp\psp.a(lwsem.o)
 .debug_abbrev  0x00000f40      0x1c1 ..\..\..\..\..\..\..\lib\twrk70f120m.kds\debug\psp\psp.a(klog.o)
 .debug_abbrev  0x00001101      0x186 ..\..\..\..\..\..\..\lib\twrk70f120m.kds\debug\psp\psp.a(int.o)
 .debug_abbrev  0x00001287      0x144 ..\..\..\..\..\..\..\lib\twrk70f120m.kds\debug\psp\psp.a(inittask.o)
 .debug_abbrev  0x000013cb      0x12d ..\..\..\..\..\..\..\lib\twrk70f120m.kds\debug\psp\psp.a(idletask.o)
 .debug_abbrev  0x000014f8       0xf0 ..\..\..\..\..\..\..\lib\twrk70f120m.kds\debug\psp\psp.a(io_pntf.o)
 .debug_abbrev  0x000015e8       0xf3 ..\..\..\..\..\..\..\lib\twrk70f120m.kds\debug\psp\psp.a(io_fputc.o)
 .debug_abbrev  0x000016db      0x181 ..\..\..\..\..\..\..\lib\twrk70f120m.kds\debug\psp\psp.a(io_dopr.o)
 .debug_abbrev  0x0000185c       0xdb ..\..\..\..\..\..\..\lib\twrk70f120m.kds\debug\psp\psp.a(stack_de.o)
 .debug_abbrev  0x00001937      0x14a ..\..\..\..\..\..\..\lib\twrk70f120m.kds\debug\psp\psp.a(stack_bu.o)
 .debug_abbrev  0x00001a81      0x167 ..\..\..\..\..\..\..\lib\twrk70f120m.kds\debug\psp\psp.a(sc_irdyq.o)
 .debug_abbrev  0x00001be8      0x155 ..\..\..\..\..\..\..\lib\twrk70f120m.kds\debug\psp\psp.a(psp_tisu.o)
 .debug_abbrev  0x00001d3d      0x145 ..\..\..\..\..\..\..\lib\twrk70f120m.kds\debug\psp\psp.a(psp_tinm.o)
 .debug_abbrev  0x00001e82      0x171 ..\..\..\..\..\..\..\lib\twrk70f120m.kds\debug\psp\psp.a(psp_tims.o)
 .debug_abbrev  0x00001ff3      0x12d ..\..\..\..\..\..\..\lib\twrk70f120m.kds\debug\psp\psp.a(psp_tiad.o)
 .debug_abbrev  0x00002120      0x13a ..\..\..\..\..\..\..\lib\twrk70f120m.kds\debug\psp\psp.a(psp_mstiq.o)
 .debug_abbrev  0x0000225a       0x82 ..\..\..\..\..\..\..\lib\twrk70f120m.kds\debug\psp\psp.a(psp_mat3.o)
 .debug_abbrev  0x000022dc       0xb0 ..\..\..\..\..\..\..\lib\twrk70f120m.kds\debug\psp\psp.a(psp_mat2.o)
 .debug_abbrev  0x0000238c       0xb0 ..\..\..\..\..\..\..\lib\twrk70f120m.kds\debug\psp\psp.a(psp_mat1.o)
 .debug_abbrev  0x0000243c      0x106 ..\..\..\..\..\..\..\lib\twrk70f120m.kds\debug\psp\psp.a(nvic.o)
 .debug_abbrev  0x00002542       0x5c ..\..\..\..\..\..\..\lib\twrk70f120m.kds\debug\psp\psp.a(k_assert.o)
 .debug_abbrev  0x0000259e       0x14 ..\..\..\..\..\..\..\lib\twrk70f120m.kds\debug\psp\psp.a(dispatch.o)
 .debug_abbrev  0x000025b2       0x14 ..\..\..\..\..\..\..\lib\twrk70f120m.kds\debug\psp\psp.a(boot.o)
 .debug_abbrev  0x000025c6      0x193 ..\..\..\..\..\..\..\lib\twrk70f120m.kds\debug\psp\psp.a(lwlog.o)
 .debug_abbrev  0x00002759      0x12f ..\..\..\..\..\..\..\lib\twrk70f120m.kds\debug\psp\psp.a(io_ghand.o)
 .debug_abbrev  0x00002888       0xda ..\..\..\..\..\..\..\lib\twrk70f120m.kds\debug\psp\psp.a(io_fp.o)
 .debug_abbrev  0x00002962      0x122 ..\..\..\..\..\..\..\lib\twrk70f120m.kds\debug\psp\psp.a(comp.o)
 .debug_abbrev  0x00002a84       0xc3 ..\..\..\..\..\..\..\lib\twrk70f120m.kds\debug\bsp\bsp.a(mqx_main.o)
 .debug_abbrev  0x00002b47       0xd1 ..\..\..\..\..\..\..\lib\twrk70f120m.kds\debug\bsp\bsp.a(mqx_init.o)
 .debug_abbrev  0x00002c18      0x141 ..\..\..\..\..\..\..\lib\twrk70f120m.kds\debug\bsp\bsp.a(init_hw.o)
 .debug_abbrev  0x00002d59      0x1ce ..\..\..\..\..\..\..\lib\twrk70f120m.kds\debug\bsp\bsp.a(init_gpio.o)
 .debug_abbrev  0x00002f27      0x1d0 ..\..\..\..\..\..\..\lib\twrk70f120m.kds\debug\bsp\bsp.a(init_bsp.o)
 .debug_abbrev  0x000030f7       0x8a ..\..\..\..\..\..\..\lib\twrk70f120m.kds\debug\bsp\bsp.a(init_adc.o)
 .debug_abbrev  0x00003181      0x21b ..\..\..\..\..\..\..\lib\twrk70f120m.kds\debug\bsp\bsp.a(bsp_cm.o)
 .debug_abbrev  0x0000339c      0x1cb ..\..\..\..\..\..\..\lib\twrk70f120m.kds\debug\bsp\bsp.a(serl_pol_kuart.o)
 .debug_abbrev  0x00003567      0x150 ..\..\..\..\..\..\..\lib\twrk70f120m.kds\debug\bsp\bsp.a(serl_pol.o)
 .debug_abbrev  0x000036b7      0x11e ..\..\..\..\..\..\..\lib\twrk70f120m.kds\debug\bsp\bsp.a(io_sinit.o)
 .debug_abbrev  0x000037d5      0x140 ..\..\..\..\..\..\..\lib\twrk70f120m.kds\debug\bsp\bsp.a(sai_dma.o)
 .debug_abbrev  0x00003915      0x17f ..\..\..\..\..\..\..\lib\twrk70f120m.kds\debug\bsp\bsp.a(krtc.o)
 .debug_abbrev  0x00003a94      0x1c6 ..\..\..\..\..\..\..\lib\twrk70f120m.kds\debug\bsp\bsp.a(i2c_pol_ki2c.o)
 .debug_abbrev  0x00003c5a       0xea ..\..\..\..\..\..\..\lib\twrk70f120m.kds\debug\bsp\bsp.a(i2c_mk70.o)
 .debug_abbrev  0x00003d44      0x18a ..\..\..\..\..\..\..\lib\twrk70f120m.kds\debug\bsp\bsp.a(i2c_int_ki2c_legacy.o)
 .debug_abbrev  0x00003ece      0x1a5 ..\..\..\..\..\..\..\lib\twrk70f120m.kds\debug\bsp\bsp.a(hwtimer_systick.o)
 .debug_abbrev  0x00004073      0x190 ..\..\..\..\..\..\..\lib\twrk70f120m.kds\debug\bsp\bsp.a(hwtimer_kinetis.o)
 .debug_abbrev  0x00004203      0x148 ..\..\..\..\..\..\..\lib\twrk70f120m.kds\debug\bsp\bsp.a(hwtimer.o)
 .debug_abbrev  0x0000434b      0x1d7 ..\..\..\..\..\..\..\lib\twrk70f120m.kds\debug\bsp\bsp.a(esdhc.o)
 .debug_abbrev  0x00004522      0x146 ..\..\..\..\..\..\..\lib\twrk70f120m.kds\debug\bsp\bsp.a(dma.o)
 .debug_abbrev  0x00004668      0x1bc ..\..\..\..\..\..\..\lib\twrk70f120m.kds\debug\bsp\bsp.a(adc.o)
 .debug_abbrev  0x00004824       0x92 ..\..\..\..\..\..\..\lib\twrk70f120m.kds\debug\bsp\bsp.a(init_sci.o)
 .debug_abbrev  0x000048b6       0xa3 ..\..\..\..\..\..\..\lib\twrk70f120m.kds\debug\bsp\bsp.a(init_sai.o)
 .debug_abbrev  0x00004959       0x78 ..\..\..\..\..\..\..\lib\twrk70f120m.kds\debug\bsp\bsp.a(init_i2c.o)
 .debug_abbrev  0x000049d1       0x6b ..\..\..\..\..\..\..\lib\twrk70f120m.kds\debug\bsp\bsp.a(init_esdhc.o)
 .debug_abbrev  0x00004a3c       0xb9 ..\..\..\..\..\..\..\lib\twrk70f120m.kds\debug\bsp\bsp.a(init_dma.o)
 .debug_abbrev  0x00004af5      0x11f ..\..\..\..\..\..\..\lib\twrk70f120m.kds\debug\bsp\bsp.a(serl_mk70.o)
 .debug_abbrev  0x00004c14      0x1da ..\..\..\..\..\..\..\lib\twrk70f120m.kds\debug\bsp\bsp.a(sai_dma_ksai.o)
 .debug_abbrev  0x00004dee      0x143 ..\..\..\..\..\..\..\lib\twrk70f120m.kds\debug\bsp\bsp.a(i2c_pol.o)
 .debug_abbrev  0x00004f31      0x143 ..\..\..\..\..\..\..\lib\twrk70f120m.kds\debug\bsp\bsp.a(i2c_int.o)
 .debug_abbrev  0x00005074       0xfc ..\..\..\..\..\..\..\lib\twrk70f120m.kds\debug\bsp\bsp.a(esdhc_mk70.o)
 .debug_abbrev  0x00005170      0x219 ..\..\..\..\..\..\..\lib\twrk70f120m.kds\debug\bsp\bsp.a(edma.o)
 .debug_abbrev  0x00005389      0x259 ..\..\..\..\..\..\..\lib\twrk70f120m.kds\debug\bsp\bsp.a(adt_kpdb.o)
 .debug_abbrev  0x000055e2      0x229 ..\..\..\..\..\..\..\lib\twrk70f120m.kds\debug\bsp\bsp.a(adc_kadc.o)
 .debug_abbrev  0x0000580b       0xd4 ..\..\..\..\..\..\..\lib\twrk70f120m.kds\debug\bsp\bsp.a(adc_mk70.o)
 .debug_abbrev  0x000058df       0xfc ..\..\..\..\..\..\..\lib\twrk70f120m.kds\debug\bsp\bsp.a(sai_mk70.o)
 .debug_abbrev  0x000059db       0xee ..\..\..\..\..\..\..\lib\twrk70f120m.kds\debug\bsp\bsp.a(edma_kinetisf.o)
 .debug_abbrev  0x00005ac9      0x190 ..\..\..\..\..\..\..\lib\twrk70f120m.kds\debug\psp\psp.a(lwevent.o)
 .debug_abbrev  0x00005c59      0x145 ..\..\..\..\..\..\..\lib\twrk70f120m.kds\debug\psp\psp.a(io_instx.o)
 .debug_abbrev  0x00005d9e       0xd5 ..\..\..\..\..\..\..\lib\twrk70f120m.kds\debug\psp\psp.a(io_inst.o)
 .debug_abbrev  0x00005e73      0x120 ..\..\..\..\..\..\..\lib\twrk70f120m.kds\debug\psp\psp.a(io_init.o)
 .debug_abbrev  0x00005f93      0x136 ..\..\..\..\..\..\..\lib\twrk70f120m.kds\debug\psp\psp.a(io_fopen.o)
 .debug_abbrev  0x000060c9       0x6a ..\..\..\..\..\..\..\lib\twrk70f120m.kds\debug\psp\psp.a(psp_iinit.o)
 .debug_abbrev  0x00006133      0x12a ..\..\..\..\..\..\..\lib\twrk70f120m.kds\debug\psp\psp.a(kinetis_mpu.o)
 .debug_abbrev  0x0000625d       0xf7 ..\..\..\..\..\..\..\lib\twrk70f120m.kds\debug\psp\psp.a(int_vtab.o)
 .debug_abbrev  0x00006354      0x11e ..\..\..\..\..\..\..\lib\twrk70f120m.kds\debug\psp\psp.a(int_inst.o)
 .debug_abbrev  0x00006472      0x100 ..\..\..\..\..\..\..\lib\twrk70f120m.kds\debug\psp\psp.a(cache.o)

.debug_loc      0x00000000     0x87ec
 .debug_loc     0x00000000       0x72 Sources\gpio.o
 .debug_loc     0x00000072      0x310 ..\..\..\..\..\..\..\lib\twrk70f120m.kds\debug\bsp\bsp.a(lwgpio_kgpio.o)
 .debug_loc     0x00000382      0xc10 ..\..\..\..\..\..\..\lib\twrk70f120m.kds\debug\psp\psp.a(time.o)
 .debug_loc     0x00000f92      0xb2d ..\..\..\..\..\..\..\lib\twrk70f120m.kds\debug\psp\psp.a(task.o)
 .debug_loc     0x00001abf      0x218 ..\..\..\..\..\..\..\lib\twrk70f120m.kds\debug\psp\psp.a(sched.o)
 .debug_loc     0x00001cd7      0x230 ..\..\..\..\..\..\..\lib\twrk70f120m.kds\debug\psp\psp.a(queue.o)
 .debug_loc     0x00001f07      0x448 ..\..\..\..\..\..\..\lib\twrk70f120m.kds\debug\psp\psp.a(mqx.o)
 .debug_loc     0x0000234f      0xb17 ..\..\..\..\..\..\..\lib\twrk70f120m.kds\debug\psp\psp.a(mem.o)
 .debug_loc     0x00002e66      0x310 ..\..\..\..\..\..\..\lib\twrk70f120m.kds\debug\psp\psp.a(lwsem.o)
 .debug_loc     0x00003176      0x462 ..\..\..\..\..\..\..\lib\twrk70f120m.kds\debug\psp\psp.a(klog.o)
 .debug_loc     0x000035d8      0x348 ..\..\..\..\..\..\..\lib\twrk70f120m.kds\debug\psp\psp.a(int.o)
 .debug_loc     0x00003920       0x64 ..\..\..\..\..\..\..\lib\twrk70f120m.kds\debug\psp\psp.a(inittask.o)
 .debug_loc     0x00003984       0x38 ..\..\..\..\..\..\..\lib\twrk70f120m.kds\debug\psp\psp.a(idletask.o)
 .debug_loc     0x000039bc       0x44 ..\..\..\..\..\..\..\lib\twrk70f120m.kds\debug\psp\psp.a(io_pntf.o)
 .debug_loc     0x00003a00       0x38 ..\..\..\..\..\..\..\lib\twrk70f120m.kds\debug\psp\psp.a(io_fputc.o)
 .debug_loc     0x00003a38      0x11c ..\..\..\..\..\..\..\lib\twrk70f120m.kds\debug\psp\psp.a(io_dopr.o)
 .debug_loc     0x00003b54       0x38 ..\..\..\..\..\..\..\lib\twrk70f120m.kds\debug\psp\psp.a(stack_de.o)
 .debug_loc     0x00003b8c       0x70 ..\..\..\..\..\..\..\lib\twrk70f120m.kds\debug\psp\psp.a(stack_bu.o)
 .debug_loc     0x00003bfc       0x70 ..\..\..\..\..\..\..\lib\twrk70f120m.kds\debug\psp\psp.a(sc_irdyq.o)
 .debug_loc     0x00003c6c       0x70 ..\..\..\..\..\..\..\lib\twrk70f120m.kds\debug\psp\psp.a(psp_tisu.o)
 .debug_loc     0x00003cdc       0x38 ..\..\..\..\..\..\..\lib\twrk70f120m.kds\debug\psp\psp.a(psp_tinm.o)
 .debug_loc     0x00003d14       0xa8 ..\..\..\..\..\..\..\lib\twrk70f120m.kds\debug\psp\psp.a(psp_tims.o)
 .debug_loc     0x00003dbc       0x38 ..\..\..\..\..\..\..\lib\twrk70f120m.kds\debug\psp\psp.a(psp_tiad.o)
 .debug_loc     0x00003df4       0x38 ..\..\..\..\..\..\..\lib\twrk70f120m.kds\debug\psp\psp.a(psp_mstiq.o)
 .debug_loc     0x00003e2c       0x38 ..\..\..\..\..\..\..\lib\twrk70f120m.kds\debug\psp\psp.a(psp_mat3.o)
 .debug_loc     0x00003e64       0x3a ..\..\..\..\..\..\..\lib\twrk70f120m.kds\debug\psp\psp.a(psp_mat2.o)
 .debug_loc     0x00003e9e       0x3a ..\..\..\..\..\..\..\lib\twrk70f120m.kds\debug\psp\psp.a(psp_mat1.o)
 .debug_loc     0x00003ed8       0xe0 ..\..\..\..\..\..\..\lib\twrk70f120m.kds\debug\psp\psp.a(nvic.o)
 .debug_loc     0x00003fb8       0x38 ..\..\..\..\..\..\..\lib\twrk70f120m.kds\debug\psp\psp.a(k_assert.o)
 .debug_loc     0x00003ff0      0x2d8 ..\..\..\..\..\..\..\lib\twrk70f120m.kds\debug\psp\psp.a(lwlog.o)
 .debug_loc     0x000042c8       0x38 ..\..\..\..\..\..\..\lib\twrk70f120m.kds\debug\psp\psp.a(io_ghand.o)
 .debug_loc     0x00004300      0x1c8 ..\..\..\..\..\..\..\lib\twrk70f120m.kds\debug\psp\psp.a(io_fp.o)
 .debug_loc     0x000044c8      0x270 ..\..\..\..\..\..\..\lib\twrk70f120m.kds\debug\psp\psp.a(comp.o)
 .debug_loc     0x00004738       0x2c ..\..\..\..\..\..\..\lib\twrk70f120m.kds\debug\bsp\bsp.a(mqx_main.o)
 .debug_loc     0x00004764      0x17c ..\..\..\..\..\..\..\lib\twrk70f120m.kds\debug\bsp\bsp.a(init_hw.o)
 .debug_loc     0x000048e0      0x448 ..\..\..\..\..\..\..\lib\twrk70f120m.kds\debug\bsp\bsp.a(init_gpio.o)
 .debug_loc     0x00004d28      0x10c ..\..\..\..\..\..\..\lib\twrk70f120m.kds\debug\bsp\bsp.a(init_bsp.o)
 .debug_loc     0x00004e34      0x444 ..\..\..\..\..\..\..\lib\twrk70f120m.kds\debug\bsp\bsp.a(bsp_cm.o)
 .debug_loc     0x00005278      0x230 ..\..\..\..\..\..\..\lib\twrk70f120m.kds\debug\bsp\bsp.a(serl_pol_kuart.o)
 .debug_loc     0x000054a8      0x188 ..\..\..\..\..\..\..\lib\twrk70f120m.kds\debug\bsp\bsp.a(serl_pol.o)
 .debug_loc     0x00005630       0x38 ..\..\..\..\..\..\..\lib\twrk70f120m.kds\debug\bsp\bsp.a(io_sinit.o)
 .debug_loc     0x00005668      0x118 ..\..\..\..\..\..\..\lib\twrk70f120m.kds\debug\bsp\bsp.a(sai_dma.o)
 .debug_loc     0x00005780      0x188 ..\..\..\..\..\..\..\lib\twrk70f120m.kds\debug\bsp\bsp.a(krtc.o)
 .debug_loc     0x00005908      0x1c0 ..\..\..\..\..\..\..\lib\twrk70f120m.kds\debug\bsp\bsp.a(i2c_pol_ki2c.o)
 .debug_loc     0x00005ac8       0x70 ..\..\..\..\..\..\..\lib\twrk70f120m.kds\debug\bsp\bsp.a(i2c_mk70.o)
 .debug_loc     0x00005b38      0x150 ..\..\..\..\..\..\..\lib\twrk70f120m.kds\debug\bsp\bsp.a(i2c_int_ki2c_legacy.o)
 .debug_loc     0x00005c88      0x188 ..\..\..\..\..\..\..\lib\twrk70f120m.kds\debug\bsp\bsp.a(hwtimer_systick.o)
 .debug_loc     0x00005e10      0x1b4 ..\..\..\..\..\..\..\lib\twrk70f120m.kds\debug\bsp\bsp.a(hwtimer_kinetis.o)
 .debug_loc     0x00005fc4      0x348 ..\..\..\..\..\..\..\lib\twrk70f120m.kds\debug\bsp\bsp.a(hwtimer.o)
 .debug_loc     0x0000630c      0x3be ..\..\..\..\..\..\..\lib\twrk70f120m.kds\debug\bsp\bsp.a(esdhc.o)
 .debug_loc     0x000066ca      0x348 ..\..\..\..\..\..\..\lib\twrk70f120m.kds\debug\bsp\bsp.a(dma.o)
 .debug_loc     0x00006a12      0x152 ..\..\..\..\..\..\..\lib\twrk70f120m.kds\debug\bsp\bsp.a(adc.o)
 .debug_loc     0x00006b64       0xe0 ..\..\..\..\..\..\..\lib\twrk70f120m.kds\debug\bsp\bsp.a(serl_mk70.o)
 .debug_loc     0x00006c44      0x2a4 ..\..\..\..\..\..\..\lib\twrk70f120m.kds\debug\bsp\bsp.a(sai_dma_ksai.o)
 .debug_loc     0x00006ee8      0x188 ..\..\..\..\..\..\..\lib\twrk70f120m.kds\debug\bsp\bsp.a(i2c_pol.o)
 .debug_loc     0x00007070      0x188 ..\..\..\..\..\..\..\lib\twrk70f120m.kds\debug\bsp\bsp.a(i2c_int.o)
 .debug_loc     0x000071f8       0x70 ..\..\..\..\..\..\..\lib\twrk70f120m.kds\debug\bsp\bsp.a(esdhc_mk70.o)
 .debug_loc     0x00007268      0x42c ..\..\..\..\..\..\..\lib\twrk70f120m.kds\debug\bsp\bsp.a(edma.o)
 .debug_loc     0x00007694      0x368 ..\..\..\..\..\..\..\lib\twrk70f120m.kds\debug\bsp\bsp.a(adt_kpdb.o)
 .debug_loc     0x000079fc      0x2a2 ..\..\..\..\..\..\..\lib\twrk70f120m.kds\debug\bsp\bsp.a(adc_kadc.o)
 .debug_loc     0x00007c9e       0x38 ..\..\..\..\..\..\..\lib\twrk70f120m.kds\debug\bsp\bsp.a(adc_mk70.o)
 .debug_loc     0x00007cd6      0x150 ..\..\..\..\..\..\..\lib\twrk70f120m.kds\debug\bsp\bsp.a(sai_mk70.o)
 .debug_loc     0x00007e26       0xa8 ..\..\..\..\..\..\..\lib\twrk70f120m.kds\debug\bsp\bsp.a(edma_kinetisf.o)
 .debug_loc     0x00007ece      0x2da ..\..\..\..\..\..\..\lib\twrk70f120m.kds\debug\psp\psp.a(lwevent.o)
 .debug_loc     0x000081a8       0x70 ..\..\..\..\..\..\..\lib\twrk70f120m.kds\debug\psp\psp.a(io_instx.o)
 .debug_loc     0x00008218       0x38 ..\..\..\..\..\..\..\lib\twrk70f120m.kds\debug\psp\psp.a(io_inst.o)
 .debug_loc     0x00008250       0x38 ..\..\..\..\..\..\..\lib\twrk70f120m.kds\debug\psp\psp.a(io_init.o)
 .debug_loc     0x00008288       0x38 ..\..\..\..\..\..\..\lib\twrk70f120m.kds\debug\psp\psp.a(io_fopen.o)
 .debug_loc     0x000082c0       0x38 ..\..\..\..\..\..\..\lib\twrk70f120m.kds\debug\psp\psp.a(psp_iinit.o)
 .debug_loc     0x000082f8      0x138 ..\..\..\..\..\..\..\lib\twrk70f120m.kds\debug\psp\psp.a(kinetis_mpu.o)
 .debug_loc     0x00008430       0x64 ..\..\..\..\..\..\..\lib\twrk70f120m.kds\debug\psp\psp.a(int_vtab.o)
 .debug_loc     0x00008494       0x38 ..\..\..\..\..\..\..\lib\twrk70f120m.kds\debug\psp\psp.a(int_inst.o)
 .debug_loc     0x000084cc      0x320 ..\..\..\..\..\..\..\lib\twrk70f120m.kds\debug\psp\psp.a(cache.o)

.debug_aranges  0x00000000     0x1b88
 .debug_aranges
                0x00000000       0x28 Sources\gpio.o
 .debug_aranges
                0x00000028       0x88 ..\..\..\..\..\..\..\lib\twrk70f120m.kds\debug\bsp\bsp.a(lwgpio_kgpio.o)
 .debug_aranges
                0x000000b0       0x18 ..\..\..\..\..\..\..\lib\twrk70f120m.kds\debug\bsp\bsp.a(vectors.o)
 .debug_aranges
                0x000000c8      0x1d8 ..\..\..\..\..\..\..\lib\twrk70f120m.kds\debug\psp\psp.a(time.o)
 .debug_aranges
                0x000002a0      0x1b8 ..\..\..\..\..\..\..\lib\twrk70f120m.kds\debug\psp\psp.a(task.o)
 .debug_aranges
                0x00000458       0x68 ..\..\..\..\..\..\..\lib\twrk70f120m.kds\debug\psp\psp.a(sched.o)
 .debug_aranges
                0x000004c0       0x68 ..\..\..\..\..\..\..\lib\twrk70f120m.kds\debug\psp\psp.a(queue.o)
 .debug_aranges
                0x00000528       0xb8 ..\..\..\..\..\..\..\lib\twrk70f120m.kds\debug\psp\psp.a(mqx.o)
 .debug_aranges
                0x000005e0      0x1b0 ..\..\..\..\..\..\..\lib\twrk70f120m.kds\debug\psp\psp.a(mem.o)
 .debug_aranges
                0x00000790       0x88 ..\..\..\..\..\..\..\lib\twrk70f120m.kds\debug\psp\psp.a(lwsem.o)
 .debug_aranges
                0x00000818       0xb8 ..\..\..\..\..\..\..\lib\twrk70f120m.kds\debug\psp\psp.a(klog.o)
 .debug_aranges
                0x000008d0       0x90 ..\..\..\..\..\..\..\lib\twrk70f120m.kds\debug\psp\psp.a(int.o)
 .debug_aranges
                0x00000960       0x28 ..\..\..\..\..\..\..\lib\twrk70f120m.kds\debug\psp\psp.a(inittask.o)
 .debug_aranges
                0x00000988       0x20 ..\..\..\..\..\..\..\lib\twrk70f120m.kds\debug\psp\psp.a(idletask.o)
 .debug_aranges
                0x000009a8       0x20 ..\..\..\..\..\..\..\lib\twrk70f120m.kds\debug\psp\psp.a(io_pntf.o)
 .debug_aranges
                0x000009c8       0x20 ..\..\..\..\..\..\..\lib\twrk70f120m.kds\debug\psp\psp.a(io_fputc.o)
 .debug_aranges
                0x000009e8       0x40 ..\..\..\..\..\..\..\lib\twrk70f120m.kds\debug\psp\psp.a(io_dopr.o)
 .debug_aranges
                0x00000a28       0x20 ..\..\..\..\..\..\..\lib\twrk70f120m.kds\debug\psp\psp.a(stack_de.o)
 .debug_aranges
                0x00000a48       0x28 ..\..\..\..\..\..\..\lib\twrk70f120m.kds\debug\psp\psp.a(stack_bu.o)
 .debug_aranges
                0x00000a70       0x28 ..\..\..\..\..\..\..\lib\twrk70f120m.kds\debug\psp\psp.a(sc_irdyq.o)
 .debug_aranges
                0x00000a98       0x28 ..\..\..\..\..\..\..\lib\twrk70f120m.kds\debug\psp\psp.a(psp_tisu.o)
 .debug_aranges
                0x00000ac0       0x20 ..\..\..\..\..\..\..\lib\twrk70f120m.kds\debug\psp\psp.a(psp_tinm.o)
 .debug_aranges
                0x00000ae0       0x30 ..\..\..\..\..\..\..\lib\twrk70f120m.kds\debug\psp\psp.a(psp_tims.o)
 .debug_aranges
                0x00000b10       0x20 ..\..\..\..\..\..\..\lib\twrk70f120m.kds\debug\psp\psp.a(psp_tiad.o)
 .debug_aranges
                0x00000b30       0x20 ..\..\..\..\..\..\..\lib\twrk70f120m.kds\debug\psp\psp.a(psp_mstiq.o)
 .debug_aranges
                0x00000b50       0x20 ..\..\..\..\..\..\..\lib\twrk70f120m.kds\debug\psp\psp.a(psp_mat3.o)
 .debug_aranges
                0x00000b70       0x20 ..\..\..\..\..\..\..\lib\twrk70f120m.kds\debug\psp\psp.a(psp_mat2.o)
 .debug_aranges
                0x00000b90       0x20 ..\..\..\..\..\..\..\lib\twrk70f120m.kds\debug\psp\psp.a(psp_mat1.o)
 .debug_aranges
                0x00000bb0       0x38 ..\..\..\..\..\..\..\lib\twrk70f120m.kds\debug\psp\psp.a(nvic.o)
 .debug_aranges
                0x00000be8       0x20 ..\..\..\..\..\..\..\lib\twrk70f120m.kds\debug\psp\psp.a(k_assert.o)
 .debug_aranges
                0x00000c08       0x20 ..\..\..\..\..\..\..\lib\twrk70f120m.kds\debug\psp\psp.a(dispatch.o)
 .debug_aranges
                0x00000c28       0x20 ..\..\..\..\..\..\..\lib\twrk70f120m.kds\debug\psp\psp.a(boot.o)
 .debug_aranges
                0x00000c48       0x80 ..\..\..\..\..\..\..\lib\twrk70f120m.kds\debug\psp\psp.a(lwlog.o)
 .debug_aranges
                0x00000cc8       0x20 ..\..\..\..\..\..\..\lib\twrk70f120m.kds\debug\psp\psp.a(io_ghand.o)
 .debug_aranges
                0x00000ce8       0x58 ..\..\..\..\..\..\..\lib\twrk70f120m.kds\debug\psp\psp.a(io_fp.o)
 .debug_aranges
                0x00000d40       0x78 ..\..\..\..\..\..\..\lib\twrk70f120m.kds\debug\psp\psp.a(comp.o)
 .debug_aranges
                0x00000db8       0x20 ..\..\..\..\..\..\..\lib\twrk70f120m.kds\debug\bsp\bsp.a(mqx_main.o)
 .debug_aranges
                0x00000dd8       0x18 ..\..\..\..\..\..\..\lib\twrk70f120m.kds\debug\bsp\bsp.a(mqx_init.o)
 .debug_aranges
                0x00000df0       0x50 ..\..\..\..\..\..\..\lib\twrk70f120m.kds\debug\bsp\bsp.a(init_hw.o)
 .debug_aranges
                0x00000e40       0xb8 ..\..\..\..\..\..\..\lib\twrk70f120m.kds\debug\bsp\bsp.a(init_gpio.o)
 .debug_aranges
                0x00000ef8       0x40 ..\..\..\..\..\..\..\lib\twrk70f120m.kds\debug\bsp\bsp.a(init_bsp.o)
 .debug_aranges
                0x00000f38       0x18 ..\..\..\..\..\..\..\lib\twrk70f120m.kds\debug\bsp\bsp.a(init_adc.o)
 .debug_aranges
                0x00000f50       0xc0 ..\..\..\..\..\..\..\lib\twrk70f120m.kds\debug\bsp\bsp.a(bsp_cm.o)
 .debug_aranges
                0x00001010       0x68 ..\..\..\..\..\..\..\lib\twrk70f120m.kds\debug\bsp\bsp.a(serl_pol_kuart.o)
 .debug_aranges
                0x00001078       0x50 ..\..\..\..\..\..\..\lib\twrk70f120m.kds\debug\bsp\bsp.a(serl_pol.o)
 .debug_aranges
                0x000010c8       0x20 ..\..\..\..\..\..\..\lib\twrk70f120m.kds\debug\bsp\bsp.a(io_sinit.o)
 .debug_aranges
                0x000010e8       0x40 ..\..\..\..\..\..\..\lib\twrk70f120m.kds\debug\bsp\bsp.a(sai_dma.o)
 .debug_aranges
                0x00001128       0x50 ..\..\..\..\..\..\..\lib\twrk70f120m.kds\debug\bsp\bsp.a(krtc.o)
 .debug_aranges
                0x00001178       0x58 ..\..\..\..\..\..\..\lib\twrk70f120m.kds\debug\bsp\bsp.a(i2c_pol_ki2c.o)
 .debug_aranges
                0x000011d0       0x28 ..\..\..\..\..\..\..\lib\twrk70f120m.kds\debug\bsp\bsp.a(i2c_mk70.o)
 .debug_aranges
                0x000011f8       0x48 ..\..\..\..\..\..\..\lib\twrk70f120m.kds\debug\bsp\bsp.a(i2c_int_ki2c_legacy.o)
 .debug_aranges
                0x00001240       0x50 ..\..\..\..\..\..\..\lib\twrk70f120m.kds\debug\bsp\bsp.a(hwtimer_systick.o)
 .debug_aranges
                0x00001290       0x58 ..\..\..\..\..\..\..\lib\twrk70f120m.kds\debug\bsp\bsp.a(hwtimer_kinetis.o)
 .debug_aranges
                0x000012e8       0x90 ..\..\..\..\..\..\..\lib\twrk70f120m.kds\debug\bsp\bsp.a(hwtimer.o)
 .debug_aranges
                0x00001378       0xa0 ..\..\..\..\..\..\..\lib\twrk70f120m.kds\debug\bsp\bsp.a(esdhc.o)
 .debug_aranges
                0x00001418       0x90 ..\..\..\..\..\..\..\lib\twrk70f120m.kds\debug\bsp\bsp.a(dma.o)
 .debug_aranges
                0x000014a8       0x48 ..\..\..\..\..\..\..\lib\twrk70f120m.kds\debug\bsp\bsp.a(adc.o)
 .debug_aranges
                0x000014f0       0x18 ..\..\..\..\..\..\..\lib\twrk70f120m.kds\debug\bsp\bsp.a(init_sci.o)
 .debug_aranges
                0x00001508       0x18 ..\..\..\..\..\..\..\lib\twrk70f120m.kds\debug\bsp\bsp.a(init_sai.o)
 .debug_aranges
                0x00001520       0x18 ..\..\..\..\..\..\..\lib\twrk70f120m.kds\debug\bsp\bsp.a(init_i2c.o)
 .debug_aranges
                0x00001538       0x18 ..\..\..\..\..\..\..\lib\twrk70f120m.kds\debug\bsp\bsp.a(init_esdhc.o)
 .debug_aranges
                0x00001550       0x18 ..\..\..\..\..\..\..\lib\twrk70f120m.kds\debug\bsp\bsp.a(init_dma.o)
 .debug_aranges
                0x00001568       0x38 ..\..\..\..\..\..\..\lib\twrk70f120m.kds\debug\bsp\bsp.a(serl_mk70.o)
 .debug_aranges
                0x000015a0       0x78 ..\..\..\..\..\..\..\lib\twrk70f120m.kds\debug\bsp\bsp.a(sai_dma_ksai.o)
 .debug_aranges
                0x00001618       0x50 ..\..\..\..\..\..\..\lib\twrk70f120m.kds\debug\bsp\bsp.a(i2c_pol.o)
 .debug_aranges
                0x00001668       0x50 ..\..\..\..\..\..\..\lib\twrk70f120m.kds\debug\bsp\bsp.a(i2c_int.o)
 .debug_aranges
                0x000016b8       0x28 ..\..\..\..\..\..\..\lib\twrk70f120m.kds\debug\bsp\bsp.a(esdhc_mk70.o)
 .debug_aranges
                0x000016e0       0xb0 ..\..\..\..\..\..\..\lib\twrk70f120m.kds\debug\bsp\bsp.a(edma.o)
 .debug_aranges
                0x00001790       0x98 ..\..\..\..\..\..\..\lib\twrk70f120m.kds\debug\bsp\bsp.a(adt_kpdb.o)
 .debug_aranges
                0x00001828       0x78 ..\..\..\..\..\..\..\lib\twrk70f120m.kds\debug\bsp\bsp.a(adc_kadc.o)
 .debug_aranges
                0x000018a0       0x20 ..\..\..\..\..\..\..\lib\twrk70f120m.kds\debug\bsp\bsp.a(adc_mk70.o)
 .debug_aranges
                0x000018c0       0x48 ..\..\..\..\..\..\..\lib\twrk70f120m.kds\debug\bsp\bsp.a(sai_mk70.o)
 .debug_aranges
                0x00001908       0x30 ..\..\..\..\..\..\..\lib\twrk70f120m.kds\debug\bsp\bsp.a(edma_kinetisf.o)
 .debug_aranges
                0x00001938       0x80 ..\..\..\..\..\..\..\lib\twrk70f120m.kds\debug\psp\psp.a(lwevent.o)
 .debug_aranges
                0x000019b8       0x28 ..\..\..\..\..\..\..\lib\twrk70f120m.kds\debug\psp\psp.a(io_instx.o)
 .debug_aranges
                0x000019e0       0x20 ..\..\..\..\..\..\..\lib\twrk70f120m.kds\debug\psp\psp.a(io_inst.o)
 .debug_aranges
                0x00001a00       0x20 ..\..\..\..\..\..\..\lib\twrk70f120m.kds\debug\psp\psp.a(io_init.o)
 .debug_aranges
                0x00001a20       0x20 ..\..\..\..\..\..\..\lib\twrk70f120m.kds\debug\psp\psp.a(io_fopen.o)
 .debug_aranges
                0x00001a40       0x20 ..\..\..\..\..\..\..\lib\twrk70f120m.kds\debug\psp\psp.a(psp_iinit.o)
 .debug_aranges
                0x00001a60       0x48 ..\..\..\..\..\..\..\lib\twrk70f120m.kds\debug\psp\psp.a(kinetis_mpu.o)
 .debug_aranges
                0x00001aa8       0x28 ..\..\..\..\..\..\..\lib\twrk70f120m.kds\debug\psp\psp.a(int_vtab.o)
 .debug_aranges
                0x00001ad0       0x20 ..\..\..\..\..\..\..\lib\twrk70f120m.kds\debug\psp\psp.a(int_inst.o)
 .debug_aranges
                0x00001af0       0x98 ..\..\..\..\..\..\..\lib\twrk70f120m.kds\debug\psp\psp.a(cache.o)

.debug_macinfo  0x00000000  0x3314db1
 .debug_macinfo
                0x00000000    0xa8179 Sources\gpio.o
 .debug_macinfo
                0x000a8179    0xa83fd ..\..\..\..\..\..\..\lib\twrk70f120m.kds\debug\bsp\bsp.a(lwgpio_kgpio.o)
 .debug_macinfo
                0x00150576    0xaf72b ..\..\..\..\..\..\..\lib\twrk70f120m.kds\debug\bsp\bsp.a(vectors.o)
 .debug_macinfo
                0x001ffca1    0x9ccb8 ..\..\..\..\..\..\..\lib\twrk70f120m.kds\debug\psp\psp.a(time.o)
 .debug_macinfo
                0x0029c959    0x9caf7 ..\..\..\..\..\..\..\lib\twrk70f120m.kds\debug\psp\psp.a(task.o)
 .debug_macinfo
                0x00339450    0x9ca6a ..\..\..\..\..\..\..\lib\twrk70f120m.kds\debug\psp\psp.a(sched.o)
 .debug_macinfo
                0x003d5eba    0x9cded ..\..\..\..\..\..\..\lib\twrk70f120m.kds\debug\psp\psp.a(queue.o)
 .debug_macinfo
                0x00472ca7    0x9cafd ..\..\..\..\..\..\..\lib\twrk70f120m.kds\debug\psp\psp.a(mqx.o)
 .debug_macinfo
                0x0050f7a4    0x9ca8c ..\..\..\..\..\..\..\lib\twrk70f120m.kds\debug\psp\psp.a(mem.o)
 .debug_macinfo
                0x005ac230    0x9ca6a ..\..\..\..\..\..\..\lib\twrk70f120m.kds\debug\psp\psp.a(lwsem.o)
 .debug_macinfo
                0x00648c9a    0x9cb2a ..\..\..\..\..\..\..\lib\twrk70f120m.kds\debug\psp\psp.a(klog.o)
 .debug_macinfo
                0x006e57c4    0x9ca6a ..\..\..\..\..\..\..\lib\twrk70f120m.kds\debug\psp\psp.a(int.o)
 .debug_macinfo
                0x0078222e    0x9ca6a ..\..\..\..\..\..\..\lib\twrk70f120m.kds\debug\psp\psp.a(inittask.o)
 .debug_macinfo
                0x0081ec98    0x9ca6a ..\..\..\..\..\..\..\lib\twrk70f120m.kds\debug\psp\psp.a(idletask.o)
 .debug_macinfo
                0x008bb702    0x9456d ..\..\..\..\..\..\..\lib\twrk70f120m.kds\debug\psp\psp.a(io_pntf.o)
 .debug_macinfo
                0x0094fc6f    0x9456d ..\..\..\..\..\..\..\lib\twrk70f120m.kds\debug\psp\psp.a(io_fputc.o)
 .debug_macinfo
                0x009e41dc    0x9456d ..\..\..\..\..\..\..\lib\twrk70f120m.kds\debug\psp\psp.a(io_dopr.o)
 .debug_macinfo
                0x00a78749    0x9ca6a ..\..\..\..\..\..\..\lib\twrk70f120m.kds\debug\psp\psp.a(stack_de.o)
 .debug_macinfo
                0x00b151b3    0x9ca6a ..\..\..\..\..\..\..\lib\twrk70f120m.kds\debug\psp\psp.a(stack_bu.o)
 .debug_macinfo
                0x00bb1c1d    0x9ca6a ..\..\..\..\..\..\..\lib\twrk70f120m.kds\debug\psp\psp.a(sc_irdyq.o)
 .debug_macinfo
                0x00c4e687    0x9ca6a ..\..\..\..\..\..\..\lib\twrk70f120m.kds\debug\psp\psp.a(psp_tisu.o)
 .debug_macinfo
                0x00ceb0f1    0x9ca6a ..\..\..\..\..\..\..\lib\twrk70f120m.kds\debug\psp\psp.a(psp_tinm.o)
 .debug_macinfo
                0x00d87b5b    0x9ca6a ..\..\..\..\..\..\..\lib\twrk70f120m.kds\debug\psp\psp.a(psp_tims.o)
 .debug_macinfo
                0x00e245c5    0x9ca6a ..\..\..\..\..\..\..\lib\twrk70f120m.kds\debug\psp\psp.a(psp_tiad.o)
 .debug_macinfo
                0x00ec102f    0x9ca6a ..\..\..\..\..\..\..\lib\twrk70f120m.kds\debug\psp\psp.a(psp_mstiq.o)
 .debug_macinfo
                0x00f5da99    0x9ca6a ..\..\..\..\..\..\..\lib\twrk70f120m.kds\debug\psp\psp.a(psp_mat3.o)
 .debug_macinfo
                0x00ffa503    0x9ca6a ..\..\..\..\..\..\..\lib\twrk70f120m.kds\debug\psp\psp.a(psp_mat2.o)
 .debug_macinfo
                0x01096f6d    0x9ca6a ..\..\..\..\..\..\..\lib\twrk70f120m.kds\debug\psp\psp.a(psp_mat1.o)
 .debug_macinfo
                0x011339d7    0x9ca6e ..\..\..\..\..\..\..\lib\twrk70f120m.kds\debug\psp\psp.a(nvic.o)
 .debug_macinfo
                0x011d0445    0xa818e ..\..\..\..\..\..\..\lib\twrk70f120m.kds\debug\psp\psp.a(k_assert.o)
 .debug_macinfo
                0x012785d3    0x9caee ..\..\..\..\..\..\..\lib\twrk70f120m.kds\debug\psp\psp.a(lwlog.o)
 .debug_macinfo
                0x013150c1    0x9ca6e ..\..\..\..\..\..\..\lib\twrk70f120m.kds\debug\psp\psp.a(io_ghand.o)
 .debug_macinfo
                0x013b1b2f    0x9dc16 ..\..\..\..\..\..\..\lib\twrk70f120m.kds\debug\psp\psp.a(io_fp.o)
 .debug_macinfo
                0x0144f745    0x92dba ..\..\..\..\..\..\..\lib\twrk70f120m.kds\debug\psp\psp.a(comp.o)
 .debug_macinfo
                0x014e24ff    0xa8171 ..\..\..\..\..\..\..\lib\twrk70f120m.kds\debug\bsp\bsp.a(mqx_main.o)
 .debug_macinfo
                0x0158a670    0xa8171 ..\..\..\..\..\..\..\lib\twrk70f120m.kds\debug\bsp\bsp.a(mqx_init.o)
 .debug_macinfo
                0x016327e1    0xa81aa ..\..\..\..\..\..\..\lib\twrk70f120m.kds\debug\bsp\bsp.a(init_hw.o)
 .debug_macinfo
                0x016da98b    0xa82dc ..\..\..\..\..\..\..\lib\twrk70f120m.kds\debug\bsp\bsp.a(init_gpio.o)
 .debug_macinfo
                0x01782c67    0xaf68f ..\..\..\..\..\..\..\lib\twrk70f120m.kds\debug\bsp\bsp.a(init_bsp.o)
 .debug_macinfo
                0x018322f6    0xa8171 ..\..\..\..\..\..\..\lib\twrk70f120m.kds\debug\bsp\bsp.a(init_adc.o)
 .debug_macinfo
                0x018da467    0xa828a ..\..\..\..\..\..\..\lib\twrk70f120m.kds\debug\bsp\bsp.a(bsp_cm.o)
 .debug_macinfo
                0x019826f1    0xa8776 ..\..\..\..\..\..\..\lib\twrk70f120m.kds\debug\bsp\bsp.a(serl_pol_kuart.o)
 .debug_macinfo
                0x01a2ae67    0xafc92 ..\..\..\..\..\..\..\lib\twrk70f120m.kds\debug\bsp\bsp.a(serl_pol.o)
 .debug_macinfo
                0x01adaaf9    0x9d567 ..\..\..\..\..\..\..\lib\twrk70f120m.kds\debug\bsp\bsp.a(io_sinit.o)
 .debug_macinfo
                0x01b78060    0x9504b ..\..\..\..\..\..\..\lib\twrk70f120m.kds\debug\bsp\bsp.a(sai_dma.o)
 .debug_macinfo
                0x01c0d0ab    0xa8171 ..\..\..\..\..\..\..\lib\twrk70f120m.kds\debug\bsp\bsp.a(krtc.o)
 .debug_macinfo
                0x01cb521c    0xa835e ..\..\..\..\..\..\..\lib\twrk70f120m.kds\debug\bsp\bsp.a(i2c_pol_ki2c.o)
 .debug_macinfo
                0x01d5d57a    0xa8175 ..\..\..\..\..\..\..\lib\twrk70f120m.kds\debug\bsp\bsp.a(i2c_mk70.o)
 .debug_macinfo
                0x01e056ef    0xa8351 ..\..\..\..\..\..\..\lib\twrk70f120m.kds\debug\bsp\bsp.a(i2c_int_ki2c_legacy.o)
 .debug_macinfo
                0x01eada40    0xa8179 ..\..\..\..\..\..\..\lib\twrk70f120m.kds\debug\bsp\bsp.a(hwtimer_systick.o)
 .debug_macinfo
                0x01f55bb9    0xa818d ..\..\..\..\..\..\..\lib\twrk70f120m.kds\debug\bsp\bsp.a(hwtimer_kinetis.o)
 .debug_macinfo
                0x01ffdd46    0xa8175 ..\..\..\..\..\..\..\lib\twrk70f120m.kds\debug\bsp\bsp.a(hwtimer.o)
 .debug_macinfo
                0x020a5ebb    0xa85da ..\..\..\..\..\..\..\lib\twrk70f120m.kds\debug\bsp\bsp.a(esdhc.o)
 .debug_macinfo
                0x0214e495    0x92609 ..\..\..\..\..\..\..\lib\twrk70f120m.kds\debug\bsp\bsp.a(dma.o)
 .debug_macinfo
                0x021e0a9e    0xa884c ..\..\..\..\..\..\..\lib\twrk70f120m.kds\debug\bsp\bsp.a(adc.o)
 .debug_macinfo
                0x022892ea    0xa8171 ..\..\..\..\..\..\..\lib\twrk70f120m.kds\debug\bsp\bsp.a(init_sci.o)
 .debug_macinfo
                0x0233145b    0xa8175 ..\..\..\..\..\..\..\lib\twrk70f120m.kds\debug\bsp\bsp.a(init_sai.o)
 .debug_macinfo
                0x023d95d0    0xa8171 ..\..\..\..\..\..\..\lib\twrk70f120m.kds\debug\bsp\bsp.a(init_i2c.o)
 .debug_macinfo
                0x02481741    0xa8171 ..\..\..\..\..\..\..\lib\twrk70f120m.kds\debug\bsp\bsp.a(init_esdhc.o)
 .debug_macinfo
                0x025298b2    0xa8199 ..\..\..\..\..\..\..\lib\twrk70f120m.kds\debug\bsp\bsp.a(init_dma.o)
 .debug_macinfo
                0x025d1a4b    0xa8175 ..\..\..\..\..\..\..\lib\twrk70f120m.kds\debug\bsp\bsp.a(serl_mk70.o)
 .debug_macinfo
                0x02679bc0    0xa83cf ..\..\..\..\..\..\..\lib\twrk70f120m.kds\debug\bsp\bsp.a(sai_dma_ksai.o)
 .debug_macinfo
                0x02721f8f    0x9d16d ..\..\..\..\..\..\..\lib\twrk70f120m.kds\debug\bsp\bsp.a(i2c_pol.o)
 .debug_macinfo
                0x027bf0fc    0x9d16d ..\..\..\..\..\..\..\lib\twrk70f120m.kds\debug\bsp\bsp.a(i2c_int.o)
 .debug_macinfo
                0x0285c269    0xa8171 ..\..\..\..\..\..\..\lib\twrk70f120m.kds\debug\bsp\bsp.a(esdhc_mk70.o)
 .debug_macinfo
                0x029043da    0xa82c2 ..\..\..\..\..\..\..\lib\twrk70f120m.kds\debug\bsp\bsp.a(edma.o)
 .debug_macinfo
                0x029ac69c    0xa8a0e ..\..\..\..\..\..\..\lib\twrk70f120m.kds\debug\bsp\bsp.a(adt_kpdb.o)
 .debug_macinfo
                0x02a550aa    0xa86f3 ..\..\..\..\..\..\..\lib\twrk70f120m.kds\debug\bsp\bsp.a(adc_kadc.o)
 .debug_macinfo
                0x02afd79d    0xa8171 ..\..\..\..\..\..\..\lib\twrk70f120m.kds\debug\bsp\bsp.a(adc_mk70.o)
 .debug_macinfo
                0x02ba590e    0xa8232 ..\..\..\..\..\..\..\lib\twrk70f120m.kds\debug\bsp\bsp.a(sai_mk70.o)
 .debug_macinfo
                0x02c4db40    0xa8186 ..\..\..\..\..\..\..\lib\twrk70f120m.kds\debug\bsp\bsp.a(edma_kinetisf.o)
 .debug_macinfo
                0x02cf5cc6    0x9cb15 ..\..\..\..\..\..\..\lib\twrk70f120m.kds\debug\psp\psp.a(lwevent.o)
 .debug_macinfo
                0x02d927db    0x9ccb0 ..\..\..\..\..\..\..\lib\twrk70f120m.kds\debug\psp\psp.a(io_instx.o)
 .debug_macinfo
                0x02e2f48b    0x9cc3d ..\..\..\..\..\..\..\lib\twrk70f120m.kds\debug\psp\psp.a(io_inst.o)
 .debug_macinfo
                0x02ecc0c8    0x9cc23 ..\..\..\..\..\..\..\lib\twrk70f120m.kds\debug\psp\psp.a(io_init.o)
 .debug_macinfo
                0x02f68ceb    0x9ccb0 ..\..\..\..\..\..\..\lib\twrk70f120m.kds\debug\psp\psp.a(io_fopen.o)
 .debug_macinfo
                0x0300599b    0x9ca6a ..\..\..\..\..\..\..\lib\twrk70f120m.kds\debug\psp\psp.a(psp_iinit.o)
 .debug_macinfo
                0x030a2405    0x9ca6e ..\..\..\..\..\..\..\lib\twrk70f120m.kds\debug\psp\psp.a(kinetis_mpu.o)
 .debug_macinfo
                0x0313ee73    0x9ca6a ..\..\..\..\..\..\..\lib\twrk70f120m.kds\debug\psp\psp.a(int_vtab.o)
 .debug_macinfo
                0x031db8dd    0x9ca6a ..\..\..\..\..\..\..\lib\twrk70f120m.kds\debug\psp\psp.a(int_inst.o)
 .debug_macinfo
                0x03278347    0x9ca6a ..\..\..\..\..\..\..\lib\twrk70f120m.kds\debug\psp\psp.a(cache.o)

.debug_line     0x00000000    0x3a15f
 .debug_line    0x00000000      0x923 Sources\gpio.o
 .debug_line    0x00000923     0x1176 ..\..\..\..\..\..\..\lib\twrk70f120m.kds\debug\bsp\bsp.a(lwgpio_kgpio.o)
 .debug_line    0x00001a99     0x1087 ..\..\..\..\..\..\..\lib\twrk70f120m.kds\debug\bsp\bsp.a(vectors.o)
 .debug_line    0x00002b20      0xc03 ..\..\..\..\..\..\..\lib\twrk70f120m.kds\debug\psp\psp.a(time.o)
 .debug_line    0x00003723      0xd25 ..\..\..\..\..\..\..\lib\twrk70f120m.kds\debug\psp\psp.a(task.o)
 .debug_line    0x00004448      0x6c4 ..\..\..\..\..\..\..\lib\twrk70f120m.kds\debug\psp\psp.a(sched.o)
 .debug_line    0x00004b0c      0x69d ..\..\..\..\..\..\..\lib\twrk70f120m.kds\debug\psp\psp.a(queue.o)
 .debug_line    0x000051a9      0x82b ..\..\..\..\..\..\..\lib\twrk70f120m.kds\debug\psp\psp.a(mqx.o)
 .debug_line    0x000059d4      0xfea ..\..\..\..\..\..\..\lib\twrk70f120m.kds\debug\psp\psp.a(mem.o)
 .debug_line    0x000069be      0x7f9 ..\..\..\..\..\..\..\lib\twrk70f120m.kds\debug\psp\psp.a(lwsem.o)
 .debug_line    0x000071b7      0x8d7 ..\..\..\..\..\..\..\lib\twrk70f120m.kds\debug\psp\psp.a(klog.o)
 .debug_line    0x00007a8e      0x79d ..\..\..\..\..\..\..\lib\twrk70f120m.kds\debug\psp\psp.a(int.o)
 .debug_line    0x0000822b      0x5d9 ..\..\..\..\..\..\..\lib\twrk70f120m.kds\debug\psp\psp.a(inittask.o)
 .debug_line    0x00008804      0x5ba ..\..\..\..\..\..\..\lib\twrk70f120m.kds\debug\psp\psp.a(idletask.o)
 .debug_line    0x00008dbe      0x555 ..\..\..\..\..\..\..\lib\twrk70f120m.kds\debug\psp\psp.a(io_pntf.o)
 .debug_line    0x00009313      0x54f ..\..\..\..\..\..\..\lib\twrk70f120m.kds\debug\psp\psp.a(io_fputc.o)
 .debug_line    0x00009862      0x7ee ..\..\..\..\..\..\..\lib\twrk70f120m.kds\debug\psp\psp.a(io_dopr.o)
 .debug_line    0x0000a050      0x5b9 ..\..\..\..\..\..\..\lib\twrk70f120m.kds\debug\psp\psp.a(stack_de.o)
 .debug_line    0x0000a609      0x5e6 ..\..\..\..\..\..\..\lib\twrk70f120m.kds\debug\psp\psp.a(stack_bu.o)
 .debug_line    0x0000abef      0x5fb ..\..\..\..\..\..\..\lib\twrk70f120m.kds\debug\psp\psp.a(sc_irdyq.o)
 .debug_line    0x0000b1ea      0x5e5 ..\..\..\..\..\..\..\lib\twrk70f120m.kds\debug\psp\psp.a(psp_tisu.o)
 .debug_line    0x0000b7cf      0x5bf ..\..\..\..\..\..\..\lib\twrk70f120m.kds\debug\psp\psp.a(psp_tinm.o)
 .debug_line    0x0000bd8e      0x5f0 ..\..\..\..\..\..\..\lib\twrk70f120m.kds\debug\psp\psp.a(psp_tims.o)
 .debug_line    0x0000c37e      0x5c1 ..\..\..\..\..\..\..\lib\twrk70f120m.kds\debug\psp\psp.a(psp_tiad.o)
 .debug_line    0x0000c93f      0x5ca ..\..\..\..\..\..\..\lib\twrk70f120m.kds\debug\psp\psp.a(psp_mstiq.o)
 .debug_line    0x0000cf09      0x5c9 ..\..\..\..\..\..\..\lib\twrk70f120m.kds\debug\psp\psp.a(psp_mat3.o)
 .debug_line    0x0000d4d2      0x5d4 ..\..\..\..\..\..\..\lib\twrk70f120m.kds\debug\psp\psp.a(psp_mat2.o)
 .debug_line    0x0000daa6      0x5d8 ..\..\..\..\..\..\..\lib\twrk70f120m.kds\debug\psp\psp.a(psp_mat1.o)
 .debug_line    0x0000e07e      0x610 ..\..\..\..\..\..\..\lib\twrk70f120m.kds\debug\psp\psp.a(nvic.o)
 .debug_line    0x0000e68e     0x102e ..\..\..\..\..\..\..\lib\twrk70f120m.kds\debug\psp\psp.a(k_assert.o)
 .debug_line    0x0000f6bc      0x1f0 ..\..\..\..\..\..\..\lib\twrk70f120m.kds\debug\psp\psp.a(dispatch.o)
 .debug_line    0x0000f8ac       0x80 ..\..\..\..\..\..\..\lib\twrk70f120m.kds\debug\psp\psp.a(boot.o)
 .debug_line    0x0000f92c      0x7b9 ..\..\..\..\..\..\..\lib\twrk70f120m.kds\debug\psp\psp.a(lwlog.o)
 .debug_line    0x000100e5      0x5b9 ..\..\..\..\..\..\..\lib\twrk70f120m.kds\debug\psp\psp.a(io_ghand.o)
 .debug_line    0x0001069e      0x7cf ..\..\..\..\..\..\..\lib\twrk70f120m.kds\debug\psp\psp.a(io_fp.o)
 .debug_line    0x00010e6d      0x610 ..\..\..\..\..\..\..\lib\twrk70f120m.kds\debug\psp\psp.a(comp.o)
 .debug_line    0x0001147d     0x103b ..\..\..\..\..\..\..\lib\twrk70f120m.kds\debug\bsp\bsp.a(mqx_main.o)
 .debug_line    0x000124b8     0x1029 ..\..\..\..\..\..\..\lib\twrk70f120m.kds\debug\bsp\bsp.a(mqx_init.o)
 .debug_line    0x000134e1     0x112a ..\..\..\..\..\..\..\lib\twrk70f120m.kds\debug\bsp\bsp.a(init_hw.o)
 .debug_line    0x0001460b     0x1308 ..\..\..\..\..\..\..\lib\twrk70f120m.kds\debug\bsp\bsp.a(init_gpio.o)
 .debug_line    0x00015913     0x114a ..\..\..\..\..\..\..\lib\twrk70f120m.kds\debug\bsp\bsp.a(init_bsp.o)
 .debug_line    0x00016a5d     0x1020 ..\..\..\..\..\..\..\lib\twrk70f120m.kds\debug\bsp\bsp.a(init_adc.o)
 .debug_line    0x00017a7d     0x1325 ..\..\..\..\..\..\..\lib\twrk70f120m.kds\debug\bsp\bsp.a(bsp_cm.o)
 .debug_line    0x00018da2     0x1232 ..\..\..\..\..\..\..\lib\twrk70f120m.kds\debug\bsp\bsp.a(serl_pol_kuart.o)
 .debug_line    0x00019fd4     0x1213 ..\..\..\..\..\..\..\lib\twrk70f120m.kds\debug\bsp\bsp.a(serl_pol.o)
 .debug_line    0x0001b1e7      0x5e6 ..\..\..\..\..\..\..\lib\twrk70f120m.kds\debug\bsp\bsp.a(io_sinit.o)
 .debug_line    0x0001b7cd      0x624 ..\..\..\..\..\..\..\lib\twrk70f120m.kds\debug\bsp\bsp.a(sai_dma.o)
 .debug_line    0x0001bdf1     0x10cf ..\..\..\..\..\..\..\lib\twrk70f120m.kds\debug\bsp\bsp.a(krtc.o)
 .debug_line    0x0001cec0     0x128f ..\..\..\..\..\..\..\lib\twrk70f120m.kds\debug\bsp\bsp.a(i2c_pol_ki2c.o)
 .debug_line    0x0001e14f     0x1056 ..\..\..\..\..\..\..\lib\twrk70f120m.kds\debug\bsp\bsp.a(i2c_mk70.o)
 .debug_line    0x0001f1a5     0x11c8 ..\..\..\..\..\..\..\lib\twrk70f120m.kds\debug\bsp\bsp.a(i2c_int_ki2c_legacy.o)
 .debug_line    0x0002036d     0x10f4 ..\..\..\..\..\..\..\lib\twrk70f120m.kds\debug\bsp\bsp.a(hwtimer_systick.o)
 .debug_line    0x00021461     0x10d3 ..\..\..\..\..\..\..\lib\twrk70f120m.kds\debug\bsp\bsp.a(hwtimer_kinetis.o)
 .debug_line    0x00022534     0x11b2 ..\..\..\..\..\..\..\lib\twrk70f120m.kds\debug\bsp\bsp.a(hwtimer.o)
 .debug_line    0x000236e6     0x1463 ..\..\..\..\..\..\..\lib\twrk70f120m.kds\debug\bsp\bsp.a(esdhc.o)
 .debug_line    0x00024b49      0x6bb ..\..\..\..\..\..\..\lib\twrk70f120m.kds\debug\bsp\bsp.a(dma.o)
 .debug_line    0x00025204     0x1196 ..\..\..\..\..\..\..\lib\twrk70f120m.kds\debug\bsp\bsp.a(adc.o)
 .debug_line    0x0002639a     0x1029 ..\..\..\..\..\..\..\lib\twrk70f120m.kds\debug\bsp\bsp.a(init_sci.o)
 .debug_line    0x000273c3     0x1029 ..\..\..\..\..\..\..\lib\twrk70f120m.kds\debug\bsp\bsp.a(init_sai.o)
 .debug_line    0x000283ec     0x1029 ..\..\..\..\..\..\..\lib\twrk70f120m.kds\debug\bsp\bsp.a(init_i2c.o)
 .debug_line    0x00029415     0x102b ..\..\..\..\..\..\..\lib\twrk70f120m.kds\debug\bsp\bsp.a(init_esdhc.o)
 .debug_line    0x0002a440     0x1040 ..\..\..\..\..\..\..\lib\twrk70f120m.kds\debug\bsp\bsp.a(init_dma.o)
 .debug_line    0x0002b480     0x10ae ..\..\..\..\..\..\..\lib\twrk70f120m.kds\debug\bsp\bsp.a(serl_mk70.o)
 .debug_line    0x0002c52e     0x15ac ..\..\..\..\..\..\..\lib\twrk70f120m.kds\debug\bsp\bsp.a(sai_dma_ksai.o)
 .debug_line    0x0002dada      0x6c2 ..\..\..\..\..\..\..\lib\twrk70f120m.kds\debug\bsp\bsp.a(i2c_pol.o)
 .debug_line    0x0002e19c      0x6c2 ..\..\..\..\..\..\..\lib\twrk70f120m.kds\debug\bsp\bsp.a(i2c_int.o)
 .debug_line    0x0002e85e     0x1048 ..\..\..\..\..\..\..\lib\twrk70f120m.kds\debug\bsp\bsp.a(esdhc_mk70.o)
 .debug_line    0x0002f8a6     0x1360 ..\..\..\..\..\..\..\lib\twrk70f120m.kds\debug\bsp\bsp.a(edma.o)
 .debug_line    0x00030c06     0x12cd ..\..\..\..\..\..\..\lib\twrk70f120m.kds\debug\bsp\bsp.a(adt_kpdb.o)
 .debug_line    0x00031ed3     0x12d5 ..\..\..\..\..\..\..\lib\twrk70f120m.kds\debug\bsp\bsp.a(adc_kadc.o)
 .debug_line    0x000331a8     0x102f ..\..\..\..\..\..\..\lib\twrk70f120m.kds\debug\bsp\bsp.a(adc_mk70.o)
 .debug_line    0x000341d7     0x10e7 ..\..\..\..\..\..\..\lib\twrk70f120m.kds\debug\bsp\bsp.a(sai_mk70.o)
 .debug_line    0x000352be     0x106e ..\..\..\..\..\..\..\lib\twrk70f120m.kds\debug\bsp\bsp.a(edma_kinetisf.o)
 .debug_line    0x0003632c      0x7e7 ..\..\..\..\..\..\..\lib\twrk70f120m.kds\debug\psp\psp.a(lwevent.o)
 .debug_line    0x00036b13      0x615 ..\..\..\..\..\..\..\lib\twrk70f120m.kds\debug\psp\psp.a(io_instx.o)
 .debug_line    0x00037128      0x5d0 ..\..\..\..\..\..\..\lib\twrk70f120m.kds\debug\psp\psp.a(io_inst.o)
 .debug_line    0x000376f8      0x5ca ..\..\..\..\..\..\..\lib\twrk70f120m.kds\debug\psp\psp.a(io_init.o)
 .debug_line    0x00037cc2      0x5ef ..\..\..\..\..\..\..\lib\twrk70f120m.kds\debug\psp\psp.a(io_fopen.o)
 .debug_line    0x000382b1      0x5be ..\..\..\..\..\..\..\lib\twrk70f120m.kds\debug\psp\psp.a(psp_iinit.o)
 .debug_line    0x0003886f      0x661 ..\..\..\..\..\..\..\lib\twrk70f120m.kds\debug\psp\psp.a(kinetis_mpu.o)
 .debug_line    0x00038ed0      0x5d0 ..\..\..\..\..\..\..\lib\twrk70f120m.kds\debug\psp\psp.a(int_vtab.o)
 .debug_line    0x000394a0      0x5bd ..\..\..\..\..\..\..\lib\twrk70f120m.kds\debug\psp\psp.a(int_inst.o)
 .debug_line    0x00039a5d      0x702 ..\..\..\..\..\..\..\lib\twrk70f120m.kds\debug\psp\psp.a(cache.o)

.debug_str      0x00000000     0x9e99
 .debug_str     0x00000000      0x4c9 Sources\gpio.o
                                0x56d (size before relaxing)
 .debug_str     0x000004c9      0x9c7 ..\..\..\..\..\..\..\lib\twrk70f120m.kds\debug\bsp\bsp.a(lwgpio_kgpio.o)
                                0xb7d (size before relaxing)
 .debug_str     0x00000e90       0x63 ..\..\..\..\..\..\..\lib\twrk70f120m.kds\debug\bsp\bsp.a(vectors.o)
                                0x278 (size before relaxing)
 .debug_str     0x00000ef3     0x126a ..\..\..\..\..\..\..\lib\twrk70f120m.kds\debug\psp\psp.a(time.o)
                               0x173c (size before relaxing)
 .debug_str     0x0000215d      0x80f ..\..\..\..\..\..\..\lib\twrk70f120m.kds\debug\psp\psp.a(task.o)
                               0x18a0 (size before relaxing)
 .debug_str     0x0000296c      0x167 ..\..\..\..\..\..\..\lib\twrk70f120m.kds\debug\psp\psp.a(sched.o)
                               0x1173 (size before relaxing)
 .debug_str     0x00002ad3       0xd4 ..\..\..\..\..\..\..\lib\twrk70f120m.kds\debug\psp\psp.a(queue.o)
                                0x385 (size before relaxing)
 .debug_str     0x00002ba7      0x3a0 ..\..\..\..\..\..\..\lib\twrk70f120m.kds\debug\psp\psp.a(mqx.o)
                               0x13ea (size before relaxing)
 .debug_str     0x00002f47      0x692 ..\..\..\..\..\..\..\lib\twrk70f120m.kds\debug\psp\psp.a(mem.o)
                               0x1706 (size before relaxing)
 .debug_str     0x000035d9      0x15d ..\..\..\..\..\..\..\lib\twrk70f120m.kds\debug\psp\psp.a(lwsem.o)
                               0x11a6 (size before relaxing)
 .debug_str     0x00003736      0x2d0 ..\..\..\..\..\..\..\lib\twrk70f120m.kds\debug\psp\psp.a(klog.o)
                               0x130c (size before relaxing)
 .debug_str     0x00003a06      0x229 ..\..\..\..\..\..\..\lib\twrk70f120m.kds\debug\psp\psp.a(int.o)
                               0x1242 (size before relaxing)
 .debug_str     0x00003c2f       0x43 ..\..\..\..\..\..\..\lib\twrk70f120m.kds\debug\psp\psp.a(inittask.o)
                                0xfd6 (size before relaxing)
 .debug_str     0x00003c72       0x34 ..\..\..\..\..\..\..\lib\twrk70f120m.kds\debug\psp\psp.a(idletask.o)
                                0xfa2 (size before relaxing)
 .debug_str     0x00003ca6      0x19f ..\..\..\..\..\..\..\lib\twrk70f120m.kds\debug\psp\psp.a(io_pntf.o)
                                0x462 (size before relaxing)
 .debug_str     0x00003e45       0x4a ..\..\..\..\..\..\..\lib\twrk70f120m.kds\debug\psp\psp.a(io_fputc.o)
                                0x453 (size before relaxing)
 .debug_str     0x00003e8f      0x19c ..\..\..\..\..\..\..\lib\twrk70f120m.kds\debug\psp\psp.a(io_dopr.o)
                                0x645 (size before relaxing)
 .debug_str     0x0000402b       0x44 ..\..\..\..\..\..\..\lib\twrk70f120m.kds\debug\psp\psp.a(stack_de.o)
                                0x60c (size before relaxing)
 .debug_str     0x0000406f       0xbb ..\..\..\..\..\..\..\lib\twrk70f120m.kds\debug\psp\psp.a(stack_bu.o)
                               0x1167 (size before relaxing)
 .debug_str     0x0000412a       0xc9 ..\..\..\..\..\..\..\lib\twrk70f120m.kds\debug\psp\psp.a(sc_irdyq.o)
                               0x1097 (size before relaxing)
 .debug_str     0x000041f3       0x6f ..\..\..\..\..\..\..\lib\twrk70f120m.kds\debug\psp\psp.a(psp_tisu.o)
                               0x1010 (size before relaxing)
 .debug_str     0x00004262       0x40 ..\..\..\..\..\..\..\lib\twrk70f120m.kds\debug\psp\psp.a(psp_tinm.o)
                                0xff4 (size before relaxing)
 .debug_str     0x000042a2       0x95 ..\..\..\..\..\..\..\lib\twrk70f120m.kds\debug\psp\psp.a(psp_tims.o)
                               0x1074 (size before relaxing)
 .debug_str     0x00004337       0x40 ..\..\..\..\..\..\..\lib\twrk70f120m.kds\debug\psp\psp.a(psp_tiad.o)
                                0xfe1 (size before relaxing)
 .debug_str     0x00004377       0x61 ..\..\..\..\..\..\..\lib\twrk70f120m.kds\debug\psp\psp.a(psp_mstiq.o)
                               0x1011 (size before relaxing)
 .debug_str     0x000043d8       0x54 ..\..\..\..\..\..\..\lib\twrk70f120m.kds\debug\psp\psp.a(psp_mat3.o)
                                0x280 (size before relaxing)
 .debug_str     0x0000442c       0x76 ..\..\..\..\..\..\..\lib\twrk70f120m.kds\debug\psp\psp.a(psp_mat2.o)
                                0x310 (size before relaxing)
 .debug_str     0x000044a2       0x3e ..\..\..\..\..\..\..\lib\twrk70f120m.kds\debug\psp\psp.a(psp_mat1.o)
                                0x2dd (size before relaxing)
 .debug_str     0x000044e0      0x180 ..\..\..\..\..\..\..\lib\twrk70f120m.kds\debug\psp\psp.a(nvic.o)
                                0x3da (size before relaxing)
 .debug_str     0x00004660       0x37 ..\..\..\..\..\..\..\lib\twrk70f120m.kds\debug\psp\psp.a(k_assert.o)
                                0x24e (size before relaxing)
 .debug_str     0x00004697      0x20f ..\..\..\..\..\..\..\lib\twrk70f120m.kds\debug\psp\psp.a(lwlog.o)
                               0x1268 (size before relaxing)
 .debug_str     0x000048a6       0x3b ..\..\..\..\..\..\..\lib\twrk70f120m.kds\debug\psp\psp.a(io_ghand.o)
                                0xf9f (size before relaxing)
 .debug_str     0x000048e1      0x116 ..\..\..\..\..\..\..\lib\twrk70f120m.kds\debug\psp\psp.a(io_fp.o)
                                0x370 (size before relaxing)
 .debug_str     0x000049f7      0x150 ..\..\..\..\..\..\..\lib\twrk70f120m.kds\debug\psp\psp.a(comp.o)
                                0x3ac (size before relaxing)
 .debug_str     0x00004b47       0x3e ..\..\..\..\..\..\..\lib\twrk70f120m.kds\debug\bsp\bsp.a(mqx_main.o)
                                0x44b (size before relaxing)
 .debug_str     0x00004b85       0x8e ..\..\..\..\..\..\..\lib\twrk70f120m.kds\debug\bsp\bsp.a(mqx_init.o)
                                0x4af (size before relaxing)
 .debug_str     0x00004c13      0x3d4 ..\..\..\..\..\..\..\lib\twrk70f120m.kds\debug\bsp\bsp.a(init_hw.o)
                                0x67d (size before relaxing)
 .debug_str     0x00004fe7      0x5a1 ..\..\..\..\..\..\..\lib\twrk70f120m.kds\debug\bsp\bsp.a(init_gpio.o)
                                0x99c (size before relaxing)
 .debug_str     0x00005588      0xb43 ..\..\..\..\..\..\..\lib\twrk70f120m.kds\debug\bsp\bsp.a(init_bsp.o)
                               0x2250 (size before relaxing)
 .debug_str     0x000060cb       0x69 ..\..\..\..\..\..\..\lib\twrk70f120m.kds\debug\bsp\bsp.a(init_adc.o)
                                0xad1 (size before relaxing)
 .debug_str     0x00006134      0x56e ..\..\..\..\..\..\..\lib\twrk70f120m.kds\debug\bsp\bsp.a(bsp_cm.o)
                                0xd4c (size before relaxing)
 .debug_str     0x000066a2      0x4c1 ..\..\..\..\..\..\..\lib\twrk70f120m.kds\debug\bsp\bsp.a(serl_pol_kuart.o)
                                0xb63 (size before relaxing)
 .debug_str     0x00006b63      0x207 ..\..\..\..\..\..\..\lib\twrk70f120m.kds\debug\bsp\bsp.a(serl_pol.o)
                                0x6ed (size before relaxing)
 .debug_str     0x00006d6a       0x4d ..\..\..\..\..\..\..\lib\twrk70f120m.kds\debug\bsp\bsp.a(io_sinit.o)
                                0xfb1 (size before relaxing)
 .debug_str     0x00006db7      0x115 ..\..\..\..\..\..\..\lib\twrk70f120m.kds\debug\bsp\bsp.a(sai_dma.o)
                                0x672 (size before relaxing)
 .debug_str     0x00006ecc       0xc9 ..\..\..\..\..\..\..\lib\twrk70f120m.kds\debug\bsp\bsp.a(krtc.o)
                                0x9d0 (size before relaxing)
 .debug_str     0x00006f95      0x372 ..\..\..\..\..\..\..\lib\twrk70f120m.kds\debug\bsp\bsp.a(i2c_pol_ki2c.o)
                                0x7df (size before relaxing)
 .debug_str     0x00007307       0x53 ..\..\..\..\..\..\..\lib\twrk70f120m.kds\debug\bsp\bsp.a(i2c_mk70.o)
                                0x90f (size before relaxing)
 .debug_str     0x0000735a       0xee ..\..\..\..\..\..\..\lib\twrk70f120m.kds\debug\bsp\bsp.a(i2c_int_ki2c_legacy.o)
                                0xdc0 (size before relaxing)
 .debug_str     0x00007448      0x118 ..\..\..\..\..\..\..\lib\twrk70f120m.kds\debug\bsp\bsp.a(hwtimer_systick.o)
                                0xc44 (size before relaxing)
 .debug_str     0x00007560      0x12d ..\..\..\..\..\..\..\lib\twrk70f120m.kds\debug\bsp\bsp.a(hwtimer_kinetis.o)
                                0xc86 (size before relaxing)
 .debug_str     0x0000768d      0x151 ..\..\..\..\..\..\..\lib\twrk70f120m.kds\debug\bsp\bsp.a(hwtimer.o)
                                0x69f (size before relaxing)
 .debug_str     0x000077de      0x4f7 ..\..\..\..\..\..\..\lib\twrk70f120m.kds\debug\bsp\bsp.a(esdhc.o)
                                0xae5 (size before relaxing)
 .debug_str     0x00007cd5      0x150 ..\..\..\..\..\..\..\lib\twrk70f120m.kds\debug\bsp\bsp.a(dma.o)
                                0x780 (size before relaxing)
 .debug_str     0x00007e25      0x418 ..\..\..\..\..\..\..\lib\twrk70f120m.kds\debug\bsp\bsp.a(adc.o)
                                0xafe (size before relaxing)
 .debug_str     0x0000823d       0x79 ..\..\..\..\..\..\..\lib\twrk70f120m.kds\debug\bsp\bsp.a(init_sci.o)
                                0x9ab (size before relaxing)
 .debug_str     0x000082b6       0xf7 ..\..\..\..\..\..\..\lib\twrk70f120m.kds\debug\bsp\bsp.a(init_sai.o)
                                0x502 (size before relaxing)
 .debug_str     0x000083ad       0x3d ..\..\..\..\..\..\..\lib\twrk70f120m.kds\debug\bsp\bsp.a(init_i2c.o)
                                0x302 (size before relaxing)
 .debug_str     0x000083ea       0x30 ..\..\..\..\..\..\..\lib\twrk70f120m.kds\debug\bsp\bsp.a(init_esdhc.o)
                                0x29c (size before relaxing)
 .debug_str     0x0000841a       0x39 ..\..\..\..\..\..\..\lib\twrk70f120m.kds\debug\bsp\bsp.a(init_dma.o)
                                0x56f (size before relaxing)
 .debug_str     0x00008453       0xaa ..\..\..\..\..\..\..\lib\twrk70f120m.kds\debug\bsp\bsp.a(serl_mk70.o)
                                0xa26 (size before relaxing)
 .debug_str     0x000084fd      0x5ec ..\..\..\..\..\..\..\lib\twrk70f120m.kds\debug\bsp\bsp.a(sai_dma_ksai.o)
                                0xf6d (size before relaxing)
 .debug_str     0x00008ae9       0xcc ..\..\..\..\..\..\..\lib\twrk70f120m.kds\debug\bsp\bsp.a(i2c_pol.o)
                                0x63a (size before relaxing)
 .debug_str     0x00008bb5       0xaa ..\..\..\..\..\..\..\lib\twrk70f120m.kds\debug\bsp\bsp.a(i2c_int.o)
                                0x61c (size before relaxing)
 .debug_str     0x00008c5f       0x68 ..\..\..\..\..\..\..\lib\twrk70f120m.kds\debug\bsp\bsp.a(esdhc_mk70.o)
                                0x9d0 (size before relaxing)
 .debug_str     0x00008cc7      0x536 ..\..\..\..\..\..\..\lib\twrk70f120m.kds\debug\bsp\bsp.a(edma.o)
                                0xb6e (size before relaxing)
 .debug_str     0x000091fd      0x29d ..\..\..\..\..\..\..\lib\twrk70f120m.kds\debug\bsp\bsp.a(adt_kpdb.o)
                                0xcbd (size before relaxing)
 .debug_str     0x0000949a      0x27b ..\..\..\..\..\..\..\lib\twrk70f120m.kds\debug\bsp\bsp.a(adc_kadc.o)
                                0xbe9 (size before relaxing)
 .debug_str     0x00009715       0x5e ..\..\..\..\..\..\..\lib\twrk70f120m.kds\debug\bsp\bsp.a(adc_mk70.o)
                                0x2dc (size before relaxing)
 .debug_str     0x00009773       0xc1 ..\..\..\..\..\..\..\lib\twrk70f120m.kds\debug\bsp\bsp.a(sai_mk70.o)
                                0xa13 (size before relaxing)
 .debug_str     0x00009834       0x7e ..\..\..\..\..\..\..\lib\twrk70f120m.kds\debug\bsp\bsp.a(edma_kinetisf.o)
                                0xa08 (size before relaxing)
 .debug_str     0x000098b2      0x183 ..\..\..\..\..\..\..\lib\twrk70f120m.kds\debug\psp\psp.a(lwevent.o)
                               0x1222 (size before relaxing)
 .debug_str     0x00009a35       0xb5 ..\..\..\..\..\..\..\lib\twrk70f120m.kds\debug\psp\psp.a(io_instx.o)
                               0x1219 (size before relaxing)
 .debug_str     0x00009aea       0x30 ..\..\..\..\..\..\..\lib\twrk70f120m.kds\debug\psp\psp.a(io_inst.o)
                                0x49e (size before relaxing)
 .debug_str     0x00009b1a       0x20 ..\..\..\..\..\..\..\lib\twrk70f120m.kds\debug\psp\psp.a(io_init.o)
                                0xfaf (size before relaxing)
 .debug_str     0x00009b3a       0x55 ..\..\..\..\..\..\..\lib\twrk70f120m.kds\debug\psp\psp.a(io_fopen.o)
                               0x1187 (size before relaxing)
 .debug_str     0x00009b8f       0x3a ..\..\..\..\..\..\..\lib\twrk70f120m.kds\debug\psp\psp.a(psp_iinit.o)
                                0x298 (size before relaxing)
 .debug_str     0x00009bc9       0xb2 ..\..\..\..\..\..\..\lib\twrk70f120m.kds\debug\psp\psp.a(kinetis_mpu.o)
                                0x359 (size before relaxing)
 .debug_str     0x00009c7b       0x7d ..\..\..\..\..\..\..\lib\twrk70f120m.kds\debug\psp\psp.a(int_vtab.o)
                                0x3ab (size before relaxing)
 .debug_str     0x00009cf8       0x3c ..\..\..\..\..\..\..\lib\twrk70f120m.kds\debug\psp\psp.a(int_inst.o)
                                0xfa0 (size before relaxing)
 .debug_str     0x00009d34      0x165 ..\..\..\..\..\..\..\lib\twrk70f120m.kds\debug\psp\psp.a(cache.o)
                                0x422 (size before relaxing)

.comment        0x00000000       0x70
 .comment       0x00000000       0x70 Sources\gpio.o
                                 0x71 (size before relaxing)
 .comment       0x00000000       0x71 ..\..\..\..\..\..\..\lib\twrk70f120m.kds\debug\bsp\bsp.a(lwgpio_kgpio.o)
 .comment       0x00000000       0x71 ..\..\..\..\..\..\..\lib\twrk70f120m.kds\debug\bsp\bsp.a(vectors.o)
 .comment       0x00000000       0x71 ..\..\..\..\..\..\..\lib\twrk70f120m.kds\debug\psp\psp.a(time.o)
 .comment       0x00000000       0x71 ..\..\..\..\..\..\..\lib\twrk70f120m.kds\debug\psp\psp.a(task.o)
 .comment       0x00000000       0x71 ..\..\..\..\..\..\..\lib\twrk70f120m.kds\debug\psp\psp.a(sched.o)
 .comment       0x00000000       0x71 ..\..\..\..\..\..\..\lib\twrk70f120m.kds\debug\psp\psp.a(queue.o)
 .comment       0x00000000       0x71 ..\..\..\..\..\..\..\lib\twrk70f120m.kds\debug\psp\psp.a(mqx.o)
 .comment       0x00000000       0x71 ..\..\..\..\..\..\..\lib\twrk70f120m.kds\debug\psp\psp.a(mem.o)
 .comment       0x00000000       0x71 ..\..\..\..\..\..\..\lib\twrk70f120m.kds\debug\psp\psp.a(lwsem.o)
 .comment       0x00000000       0x71 ..\..\..\..\..\..\..\lib\twrk70f120m.kds\debug\psp\psp.a(klog.o)
 .comment       0x00000000       0x71 ..\..\..\..\..\..\..\lib\twrk70f120m.kds\debug\psp\psp.a(int.o)
 .comment       0x00000000       0x71 ..\..\..\..\..\..\..\lib\twrk70f120m.kds\debug\psp\psp.a(inittask.o)
 .comment       0x00000000       0x71 ..\..\..\..\..\..\..\lib\twrk70f120m.kds\debug\psp\psp.a(idletask.o)
 .comment       0x00000000       0x71 ..\..\..\..\..\..\..\lib\twrk70f120m.kds\debug\psp\psp.a(io_pntf.o)
 .comment       0x00000000       0x71 ..\..\..\..\..\..\..\lib\twrk70f120m.kds\debug\psp\psp.a(io_fputc.o)
 .comment       0x00000000       0x71 ..\..\..\..\..\..\..\lib\twrk70f120m.kds\debug\psp\psp.a(io_dopr.o)
 .comment       0x00000000       0x71 ..\..\..\..\..\..\..\lib\twrk70f120m.kds\debug\psp\psp.a(stack_de.o)
 .comment       0x00000000       0x71 ..\..\..\..\..\..\..\lib\twrk70f120m.kds\debug\psp\psp.a(stack_bu.o)
 .comment       0x00000000       0x71 ..\..\..\..\..\..\..\lib\twrk70f120m.kds\debug\psp\psp.a(sc_irdyq.o)
 .comment       0x00000000       0x71 ..\..\..\..\..\..\..\lib\twrk70f120m.kds\debug\psp\psp.a(psp_tisu.o)
 .comment       0x00000000       0x71 ..\..\..\..\..\..\..\lib\twrk70f120m.kds\debug\psp\psp.a(psp_tinm.o)
 .comment       0x00000000       0x71 ..\..\..\..\..\..\..\lib\twrk70f120m.kds\debug\psp\psp.a(psp_tims.o)
 .comment       0x00000000       0x71 ..\..\..\..\..\..\..\lib\twrk70f120m.kds\debug\psp\psp.a(psp_tiad.o)
 .comment       0x00000000       0x71 ..\..\..\..\..\..\..\lib\twrk70f120m.kds\debug\psp\psp.a(psp_mstiq.o)
 .comment       0x00000000       0x71 ..\..\..\..\..\..\..\lib\twrk70f120m.kds\debug\psp\psp.a(psp_mat3.o)
 .comment       0x00000000       0x71 ..\..\..\..\..\..\..\lib\twrk70f120m.kds\debug\psp\psp.a(psp_mat2.o)
 .comment       0x00000000       0x71 ..\..\..\..\..\..\..\lib\twrk70f120m.kds\debug\psp\psp.a(psp_mat1.o)
 .comment       0x00000000       0x71 ..\..\..\..\..\..\..\lib\twrk70f120m.kds\debug\psp\psp.a(nvic.o)
 .comment       0x00000000       0x71 ..\..\..\..\..\..\..\lib\twrk70f120m.kds\debug\psp\psp.a(k_assert.o)
 .comment       0x00000000       0x71 ..\..\..\..\..\..\..\lib\twrk70f120m.kds\debug\psp\psp.a(lwlog.o)
 .comment       0x00000000       0x71 ..\..\..\..\..\..\..\lib\twrk70f120m.kds\debug\psp\psp.a(io_ghand.o)
 .comment       0x00000000       0x71 ..\..\..\..\..\..\..\lib\twrk70f120m.kds\debug\psp\psp.a(io_fp.o)
 .comment       0x00000000       0x71 ..\..\..\..\..\..\..\lib\twrk70f120m.kds\debug\psp\psp.a(comp.o)
 .comment       0x00000000       0x71 ..\..\..\..\..\..\..\lib\twrk70f120m.kds\debug\bsp\bsp.a(mqx_main.o)
 .comment       0x00000000       0x71 ..\..\..\..\..\..\..\lib\twrk70f120m.kds\debug\bsp\bsp.a(mqx_init.o)
 .comment       0x00000000       0x71 ..\..\..\..\..\..\..\lib\twrk70f120m.kds\debug\bsp\bsp.a(init_hw.o)
 .comment       0x00000000       0x71 ..\..\..\..\..\..\..\lib\twrk70f120m.kds\debug\bsp\bsp.a(init_gpio.o)
 .comment       0x00000000       0x71 ..\..\..\..\..\..\..\lib\twrk70f120m.kds\debug\bsp\bsp.a(init_bsp.o)
 .comment       0x00000000       0x71 ..\..\..\..\..\..\..\lib\twrk70f120m.kds\debug\bsp\bsp.a(init_adc.o)
 .comment       0x00000000       0x71 ..\..\..\..\..\..\..\lib\twrk70f120m.kds\debug\bsp\bsp.a(bsp_cm.o)
 .comment       0x00000000       0x71 ..\..\..\..\..\..\..\lib\twrk70f120m.kds\debug\bsp\bsp.a(serl_pol_kuart.o)
 .comment       0x00000000       0x71 ..\..\..\..\..\..\..\lib\twrk70f120m.kds\debug\bsp\bsp.a(serl_pol.o)
 .comment       0x00000000       0x71 ..\..\..\..\..\..\..\lib\twrk70f120m.kds\debug\bsp\bsp.a(io_sinit.o)
 .comment       0x00000000       0x71 ..\..\..\..\..\..\..\lib\twrk70f120m.kds\debug\bsp\bsp.a(sai_dma.o)
 .comment       0x00000000       0x71 ..\..\..\..\..\..\..\lib\twrk70f120m.kds\debug\bsp\bsp.a(krtc.o)
 .comment       0x00000000       0x71 ..\..\..\..\..\..\..\lib\twrk70f120m.kds\debug\bsp\bsp.a(i2c_pol_ki2c.o)
 .comment       0x00000000       0x71 ..\..\..\..\..\..\..\lib\twrk70f120m.kds\debug\bsp\bsp.a(i2c_mk70.o)
 .comment       0x00000000       0x71 ..\..\..\..\..\..\..\lib\twrk70f120m.kds\debug\bsp\bsp.a(i2c_int_ki2c_legacy.o)
 .comment       0x00000000       0x71 ..\..\..\..\..\..\..\lib\twrk70f120m.kds\debug\bsp\bsp.a(hwtimer_systick.o)
 .comment       0x00000000       0x71 ..\..\..\..\..\..\..\lib\twrk70f120m.kds\debug\bsp\bsp.a(hwtimer_kinetis.o)
 .comment       0x00000000       0x71 ..\..\..\..\..\..\..\lib\twrk70f120m.kds\debug\bsp\bsp.a(hwtimer.o)
 .comment       0x00000000       0x71 ..\..\..\..\..\..\..\lib\twrk70f120m.kds\debug\bsp\bsp.a(esdhc.o)
 .comment       0x00000000       0x71 ..\..\..\..\..\..\..\lib\twrk70f120m.kds\debug\bsp\bsp.a(dma.o)
 .comment       0x00000000       0x71 ..\..\..\..\..\..\..\lib\twrk70f120m.kds\debug\bsp\bsp.a(adc.o)
 .comment       0x00000000       0x71 ..\..\..\..\..\..\..\lib\twrk70f120m.kds\debug\bsp\bsp.a(init_sci.o)
 .comment       0x00000000       0x71 ..\..\..\..\..\..\..\lib\twrk70f120m.kds\debug\bsp\bsp.a(init_sai.o)
 .comment       0x00000000       0x71 ..\..\..\..\..\..\..\lib\twrk70f120m.kds\debug\bsp\bsp.a(init_i2c.o)
 .comment       0x00000000       0x71 ..\..\..\..\..\..\..\lib\twrk70f120m.kds\debug\bsp\bsp.a(init_esdhc.o)
 .comment       0x00000000       0x71 ..\..\..\..\..\..\..\lib\twrk70f120m.kds\debug\bsp\bsp.a(init_dma.o)
 .comment       0x00000000       0x71 ..\..\..\..\..\..\..\lib\twrk70f120m.kds\debug\bsp\bsp.a(serl_mk70.o)
 .comment       0x00000000       0x71 ..\..\..\..\..\..\..\lib\twrk70f120m.kds\debug\bsp\bsp.a(sai_dma_ksai.o)
 .comment       0x00000000       0x71 ..\..\..\..\..\..\..\lib\twrk70f120m.kds\debug\bsp\bsp.a(i2c_pol.o)
 .comment       0x00000000       0x71 ..\..\..\..\..\..\..\lib\twrk70f120m.kds\debug\bsp\bsp.a(i2c_int.o)
 .comment       0x00000000       0x71 ..\..\..\..\..\..\..\lib\twrk70f120m.kds\debug\bsp\bsp.a(esdhc_mk70.o)
 .comment       0x00000000       0x71 ..\..\..\..\..\..\..\lib\twrk70f120m.kds\debug\bsp\bsp.a(edma.o)
 .comment       0x00000000       0x71 ..\..\..\..\..\..\..\lib\twrk70f120m.kds\debug\bsp\bsp.a(adt_kpdb.o)
 .comment       0x00000000       0x71 ..\..\..\..\..\..\..\lib\twrk70f120m.kds\debug\bsp\bsp.a(adc_kadc.o)
 .comment       0x00000000       0x71 ..\..\..\..\..\..\..\lib\twrk70f120m.kds\debug\bsp\bsp.a(adc_mk70.o)
 .comment       0x00000000       0x71 ..\..\..\..\..\..\..\lib\twrk70f120m.kds\debug\bsp\bsp.a(sai_mk70.o)
 .comment       0x00000000       0x71 ..\..\..\..\..\..\..\lib\twrk70f120m.kds\debug\bsp\bsp.a(edma_kinetisf.o)
 .comment       0x00000000       0x71 ..\..\..\..\..\..\..\lib\twrk70f120m.kds\debug\psp\psp.a(lwevent.o)
 .comment       0x00000000       0x71 ..\..\..\..\..\..\..\lib\twrk70f120m.kds\debug\psp\psp.a(io_instx.o)
 .comment       0x00000000       0x71 ..\..\..\..\..\..\..\lib\twrk70f120m.kds\debug\psp\psp.a(io_inst.o)
 .comment       0x00000000       0x71 ..\..\..\..\..\..\..\lib\twrk70f120m.kds\debug\psp\psp.a(io_init.o)
 .comment       0x00000000       0x71 ..\..\..\..\..\..\..\lib\twrk70f120m.kds\debug\psp\psp.a(io_fopen.o)
 .comment       0x00000000       0x71 ..\..\..\..\..\..\..\lib\twrk70f120m.kds\debug\psp\psp.a(psp_iinit.o)
 .comment       0x00000000       0x71 ..\..\..\..\..\..\..\lib\twrk70f120m.kds\debug\psp\psp.a(kinetis_mpu.o)
 .comment       0x00000000       0x71 ..\..\..\..\..\..\..\lib\twrk70f120m.kds\debug\psp\psp.a(int_vtab.o)
 .comment       0x00000000       0x71 ..\..\..\..\..\..\..\lib\twrk70f120m.kds\debug\psp\psp.a(int_inst.o)
 .comment       0x00000000       0x71 ..\..\..\..\..\..\..\lib\twrk70f120m.kds\debug\psp\psp.a(cache.o)

.ARM.attributes
                0x00000000       0x37
 .ARM.attributes
                0x00000000       0x39 Sources\gpio.o
 .ARM.attributes
                0x00000039       0x39 ..\..\..\..\..\..\..\lib\twrk70f120m.kds\debug\bsp\bsp.a(lwgpio_kgpio.o)
 .ARM.attributes
                0x00000072       0x39 ..\..\..\..\..\..\..\lib\twrk70f120m.kds\debug\bsp\bsp.a(vectors.o)
 .ARM.attributes
                0x000000ab       0x39 ..\..\..\..\..\..\..\lib\twrk70f120m.kds\debug\psp\psp.a(time.o)
 .ARM.attributes
                0x000000e4       0x39 ..\..\..\..\..\..\..\lib\twrk70f120m.kds\debug\psp\psp.a(task.o)
 .ARM.attributes
                0x0000011d       0x39 ..\..\..\..\..\..\..\lib\twrk70f120m.kds\debug\psp\psp.a(sched.o)
 .ARM.attributes
                0x00000156       0x39 ..\..\..\..\..\..\..\lib\twrk70f120m.kds\debug\psp\psp.a(queue.o)
 .ARM.attributes
                0x0000018f       0x39 ..\..\..\..\..\..\..\lib\twrk70f120m.kds\debug\psp\psp.a(mqx.o)
 .ARM.attributes
                0x000001c8       0x39 ..\..\..\..\..\..\..\lib\twrk70f120m.kds\debug\psp\psp.a(mem.o)
 .ARM.attributes
                0x00000201       0x39 ..\..\..\..\..\..\..\lib\twrk70f120m.kds\debug\psp\psp.a(lwsem.o)
 .ARM.attributes
                0x0000023a       0x39 ..\..\..\..\..\..\..\lib\twrk70f120m.kds\debug\psp\psp.a(klog.o)
 .ARM.attributes
                0x00000273       0x39 ..\..\..\..\..\..\..\lib\twrk70f120m.kds\debug\psp\psp.a(int.o)
 .ARM.attributes
                0x000002ac       0x39 ..\..\..\..\..\..\..\lib\twrk70f120m.kds\debug\psp\psp.a(inittask.o)
 .ARM.attributes
                0x000002e5       0x39 ..\..\..\..\..\..\..\lib\twrk70f120m.kds\debug\psp\psp.a(idletask.o)
 .ARM.attributes
                0x0000031e       0x39 ..\..\..\..\..\..\..\lib\twrk70f120m.kds\debug\psp\psp.a(io_pntf.o)
 .ARM.attributes
                0x00000357       0x39 ..\..\..\..\..\..\..\lib\twrk70f120m.kds\debug\psp\psp.a(io_fputc.o)
 .ARM.attributes
                0x00000390       0x39 ..\..\..\..\..\..\..\lib\twrk70f120m.kds\debug\psp\psp.a(io_dopr.o)
 .ARM.attributes
                0x000003c9       0x39 ..\..\..\..\..\..\..\lib\twrk70f120m.kds\debug\psp\psp.a(stack_de.o)
 .ARM.attributes
                0x00000402       0x39 ..\..\..\..\..\..\..\lib\twrk70f120m.kds\debug\psp\psp.a(stack_bu.o)
 .ARM.attributes
                0x0000043b       0x39 ..\..\..\..\..\..\..\lib\twrk70f120m.kds\debug\psp\psp.a(sc_irdyq.o)
 .ARM.attributes
                0x00000474       0x39 ..\..\..\..\..\..\..\lib\twrk70f120m.kds\debug\psp\psp.a(psp_tisu.o)
 .ARM.attributes
                0x000004ad       0x39 ..\..\..\..\..\..\..\lib\twrk70f120m.kds\debug\psp\psp.a(psp_tinm.o)
 .ARM.attributes
                0x000004e6       0x39 ..\..\..\..\..\..\..\lib\twrk70f120m.kds\debug\psp\psp.a(psp_tims.o)
 .ARM.attributes
                0x0000051f       0x39 ..\..\..\..\..\..\..\lib\twrk70f120m.kds\debug\psp\psp.a(psp_tiad.o)
 .ARM.attributes
                0x00000558       0x39 ..\..\..\..\..\..\..\lib\twrk70f120m.kds\debug\psp\psp.a(psp_mstiq.o)
 .ARM.attributes
                0x00000591       0x39 ..\..\..\..\..\..\..\lib\twrk70f120m.kds\debug\psp\psp.a(psp_mat3.o)
 .ARM.attributes
                0x000005ca       0x39 ..\..\..\..\..\..\..\lib\twrk70f120m.kds\debug\psp\psp.a(psp_mat2.o)
 .ARM.attributes
                0x00000603       0x39 ..\..\..\..\..\..\..\lib\twrk70f120m.kds\debug\psp\psp.a(psp_mat1.o)
 .ARM.attributes
                0x0000063c       0x39 ..\..\..\..\..\..\..\lib\twrk70f120m.kds\debug\psp\psp.a(nvic.o)
 .ARM.attributes
                0x00000675       0x39 ..\..\..\..\..\..\..\lib\twrk70f120m.kds\debug\psp\psp.a(k_assert.o)
 .ARM.attributes
                0x000006ae       0x25 ..\..\..\..\..\..\..\lib\twrk70f120m.kds\debug\psp\psp.a(dispatch.o)
 .ARM.attributes
                0x000006d3       0x25 ..\..\..\..\..\..\..\lib\twrk70f120m.kds\debug\psp\psp.a(boot.o)
 .ARM.attributes
                0x000006f8       0x39 ..\..\..\..\..\..\..\lib\twrk70f120m.kds\debug\psp\psp.a(lwlog.o)
 .ARM.attributes
                0x00000731       0x39 ..\..\..\..\..\..\..\lib\twrk70f120m.kds\debug\psp\psp.a(io_ghand.o)
 .ARM.attributes
                0x0000076a       0x39 ..\..\..\..\..\..\..\lib\twrk70f120m.kds\debug\psp\psp.a(io_fp.o)
 .ARM.attributes
                0x000007a3       0x39 ..\..\..\..\..\..\..\lib\twrk70f120m.kds\debug\psp\psp.a(comp.o)
 .ARM.attributes
                0x000007dc       0x22 ..\..\..\..\..\..\..\..\KDS_v3\toolchain\lib\gcc\arm-none-eabi\4.8.4\armv7e-m\fpu\libgcc.a(_arm_addsubdf3.o)
 .ARM.attributes
                0x000007fe       0x22 ..\..\..\..\..\..\..\..\KDS_v3\toolchain\lib\gcc\arm-none-eabi\4.8.4\armv7e-m\fpu\libgcc.a(_arm_muldivdf3.o)
 .ARM.attributes
                0x00000820       0x22 ..\..\..\..\..\..\..\..\KDS_v3\toolchain\lib\gcc\arm-none-eabi\4.8.4\armv7e-m\fpu\libgcc.a(_arm_cmpdf2.o)
 .ARM.attributes
                0x00000842       0x22 ..\..\..\..\..\..\..\..\KDS_v3\toolchain\lib\gcc\arm-none-eabi\4.8.4\armv7e-m\fpu\libgcc.a(_arm_fixdfsi.o)
 .ARM.attributes
                0x00000864       0x22 ..\..\..\..\..\..\..\..\KDS_v3\toolchain\lib\gcc\arm-none-eabi\4.8.4\armv7e-m\fpu\libgcc.a(_arm_fixunsdfsi.o)
 .ARM.attributes
                0x00000886       0x22 ..\..\..\..\..\..\..\..\KDS_v3\toolchain\lib\gcc\arm-none-eabi\4.8.4\armv7e-m\fpu\libgcc.a(_aeabi_ldivmod.o)
 .ARM.attributes
                0x000008a8       0x22 ..\..\..\..\..\..\..\..\KDS_v3\toolchain\lib\gcc\arm-none-eabi\4.8.4\armv7e-m\fpu\libgcc.a(_aeabi_uldivmod.o)
 .ARM.attributes
                0x000008ca       0x34 ..\..\..\..\..\..\..\..\KDS_v3\toolchain\lib\gcc\arm-none-eabi\4.8.4\armv7e-m\fpu\libgcc.a(bpabi.o)
 .ARM.attributes
                0x000008fe       0x22 ..\..\..\..\..\..\..\..\KDS_v3\toolchain\lib\gcc\arm-none-eabi\4.8.4\armv7e-m\fpu\libgcc.a(_dvmd_tls.o)
 .ARM.attributes
                0x00000920       0x34 ..\..\..\..\..\..\..\..\KDS_v3\toolchain\lib\gcc\arm-none-eabi\4.8.4\armv7e-m\fpu\libgcc.a(_divdi3.o)
 .ARM.attributes
                0x00000954       0x34 ..\..\..\..\..\..\..\..\KDS_v3\toolchain\lib\gcc\arm-none-eabi\4.8.4\armv7e-m\fpu\libgcc.a(_udivdi3.o)
 .ARM.attributes
                0x00000988       0x34 ..\..\..\..\..\..\..\..\KDS_v3\toolchain\arm-none-eabi\lib\armv7e-m\fpu\libc.a(lib_a-atexit.o)
 .ARM.attributes
                0x000009bc       0x34 ..\..\..\..\..\..\..\..\KDS_v3\toolchain\arm-none-eabi\lib\armv7e-m\fpu\libc.a(lib_a-exit.o)
 .ARM.attributes
                0x000009f0       0x34 ..\..\..\..\..\..\..\..\KDS_v3\toolchain\arm-none-eabi\lib\armv7e-m\fpu\libc.a(lib_a-fini.o)
 .ARM.attributes
                0x00000a24       0x34 ..\..\..\..\..\..\..\..\KDS_v3\toolchain\arm-none-eabi\lib\armv7e-m\fpu\libc.a(lib_a-impure.o)
 .ARM.attributes
                0x00000a58       0x34 ..\..\..\..\..\..\..\..\KDS_v3\toolchain\arm-none-eabi\lib\armv7e-m\fpu\libc.a(lib_a-init.o)
 .ARM.attributes
                0x00000a8c       0x20 ..\..\..\..\..\..\..\..\KDS_v3\toolchain\arm-none-eabi\lib\armv7e-m\fpu\libc.a(lib_a-memcpy.o)
 .ARM.attributes
                0x00000aac       0x34 ..\..\..\..\..\..\..\..\KDS_v3\toolchain\arm-none-eabi\lib\armv7e-m\fpu\libc.a(lib_a-memset.o)
 .ARM.attributes
                0x00000ae0       0x34 ..\..\..\..\..\..\..\..\KDS_v3\toolchain\arm-none-eabi\lib\armv7e-m\fpu\libc.a(lib_a-s_modf.o)
 .ARM.attributes
                0x00000b14       0x34 ..\..\..\..\..\..\..\..\KDS_v3\toolchain\arm-none-eabi\lib\armv7e-m\fpu\libc.a(lib_a-strncmp.o)
 .ARM.attributes
                0x00000b48       0x34 ..\..\..\..\..\..\..\..\KDS_v3\toolchain\arm-none-eabi\lib\armv7e-m\fpu\libc.a(lib_a-__atexit.o)
 .ARM.attributes
                0x00000b7c       0x34 ..\..\..\..\..\..\..\..\KDS_v3\toolchain\arm-none-eabi\lib\armv7e-m\fpu\libc.a(lib_a-__call_atexit.o)
 .ARM.attributes
                0x00000bb0       0x20 ..\..\..\..\..\..\..\..\KDS_v3\toolchain\arm-none-eabi\lib\armv7e-m\fpu\libc.a(lib_a-strcmp.o)
 .ARM.attributes
                0x00000bd0       0x34 ..\..\..\..\..\..\..\..\KDS_v3\toolchain\arm-none-eabi\lib\armv7e-m\fpu\libc.a(lib_a-strlen.o)
 .ARM.attributes
                0x00000c04       0x39 ..\..\..\..\..\..\..\lib\twrk70f120m.kds\debug\bsp\bsp.a(mqx_main.o)
 .ARM.attributes
                0x00000c3d       0x39 ..\..\..\..\..\..\..\lib\twrk70f120m.kds\debug\bsp\bsp.a(mqx_init.o)
 .ARM.attributes
                0x00000c76       0x39 ..\..\..\..\..\..\..\lib\twrk70f120m.kds\debug\bsp\bsp.a(init_hw.o)
 .ARM.attributes
                0x00000caf       0x39 ..\..\..\..\..\..\..\lib\twrk70f120m.kds\debug\bsp\bsp.a(init_gpio.o)
 .ARM.attributes
                0x00000ce8       0x39 ..\..\..\..\..\..\..\lib\twrk70f120m.kds\debug\bsp\bsp.a(init_bsp.o)
 .ARM.attributes
                0x00000d21       0x39 ..\..\..\..\..\..\..\lib\twrk70f120m.kds\debug\bsp\bsp.a(init_adc.o)
 .ARM.attributes
                0x00000d5a       0x39 ..\..\..\..\..\..\..\lib\twrk70f120m.kds\debug\bsp\bsp.a(bsp_cm.o)
 .ARM.attributes
                0x00000d93       0x39 ..\..\..\..\..\..\..\lib\twrk70f120m.kds\debug\bsp\bsp.a(serl_pol_kuart.o)
 .ARM.attributes
                0x00000dcc       0x39 ..\..\..\..\..\..\..\lib\twrk70f120m.kds\debug\bsp\bsp.a(serl_pol.o)
 .ARM.attributes
                0x00000e05       0x39 ..\..\..\..\..\..\..\lib\twrk70f120m.kds\debug\bsp\bsp.a(io_sinit.o)
 .ARM.attributes
                0x00000e3e       0x39 ..\..\..\..\..\..\..\lib\twrk70f120m.kds\debug\bsp\bsp.a(sai_dma.o)
 .ARM.attributes
                0x00000e77       0x39 ..\..\..\..\..\..\..\lib\twrk70f120m.kds\debug\bsp\bsp.a(krtc.o)
 .ARM.attributes
                0x00000eb0       0x39 ..\..\..\..\..\..\..\lib\twrk70f120m.kds\debug\bsp\bsp.a(i2c_pol_ki2c.o)
 .ARM.attributes
                0x00000ee9       0x39 ..\..\..\..\..\..\..\lib\twrk70f120m.kds\debug\bsp\bsp.a(i2c_mk70.o)
 .ARM.attributes
                0x00000f22       0x39 ..\..\..\..\..\..\..\lib\twrk70f120m.kds\debug\bsp\bsp.a(i2c_int_ki2c_legacy.o)
 .ARM.attributes
                0x00000f5b       0x39 ..\..\..\..\..\..\..\lib\twrk70f120m.kds\debug\bsp\bsp.a(hwtimer_systick.o)
 .ARM.attributes
                0x00000f94       0x39 ..\..\..\..\..\..\..\lib\twrk70f120m.kds\debug\bsp\bsp.a(hwtimer_kinetis.o)
 .ARM.attributes
                0x00000fcd       0x39 ..\..\..\..\..\..\..\lib\twrk70f120m.kds\debug\bsp\bsp.a(hwtimer.o)
 .ARM.attributes
                0x00001006       0x39 ..\..\..\..\..\..\..\lib\twrk70f120m.kds\debug\bsp\bsp.a(esdhc.o)
 .ARM.attributes
                0x0000103f       0x39 ..\..\..\..\..\..\..\lib\twrk70f120m.kds\debug\bsp\bsp.a(dma.o)
 .ARM.attributes
                0x00001078       0x39 ..\..\..\..\..\..\..\lib\twrk70f120m.kds\debug\bsp\bsp.a(adc.o)
 .ARM.attributes
                0x000010b1       0x39 ..\..\..\..\..\..\..\lib\twrk70f120m.kds\debug\bsp\bsp.a(init_sci.o)
 .ARM.attributes
                0x000010ea       0x39 ..\..\..\..\..\..\..\lib\twrk70f120m.kds\debug\bsp\bsp.a(init_sai.o)
 .ARM.attributes
                0x00001123       0x39 ..\..\..\..\..\..\..\lib\twrk70f120m.kds\debug\bsp\bsp.a(init_i2c.o)
 .ARM.attributes
                0x0000115c       0x39 ..\..\..\..\..\..\..\lib\twrk70f120m.kds\debug\bsp\bsp.a(init_esdhc.o)
 .ARM.attributes
                0x00001195       0x39 ..\..\..\..\..\..\..\lib\twrk70f120m.kds\debug\bsp\bsp.a(init_dma.o)
 .ARM.attributes
                0x000011ce       0x39 ..\..\..\..\..\..\..\lib\twrk70f120m.kds\debug\bsp\bsp.a(serl_mk70.o)
 .ARM.attributes
                0x00001207       0x39 ..\..\..\..\..\..\..\lib\twrk70f120m.kds\debug\bsp\bsp.a(sai_dma_ksai.o)
 .ARM.attributes
                0x00001240       0x39 ..\..\..\..\..\..\..\lib\twrk70f120m.kds\debug\bsp\bsp.a(i2c_pol.o)
 .ARM.attributes
                0x00001279       0x39 ..\..\..\..\..\..\..\lib\twrk70f120m.kds\debug\bsp\bsp.a(i2c_int.o)
 .ARM.attributes
                0x000012b2       0x39 ..\..\..\..\..\..\..\lib\twrk70f120m.kds\debug\bsp\bsp.a(esdhc_mk70.o)
 .ARM.attributes
                0x000012eb       0x39 ..\..\..\..\..\..\..\lib\twrk70f120m.kds\debug\bsp\bsp.a(edma.o)
 .ARM.attributes
                0x00001324       0x39 ..\..\..\..\..\..\..\lib\twrk70f120m.kds\debug\bsp\bsp.a(adt_kpdb.o)
 .ARM.attributes
                0x0000135d       0x39 ..\..\..\..\..\..\..\lib\twrk70f120m.kds\debug\bsp\bsp.a(adc_kadc.o)
 .ARM.attributes
                0x00001396       0x39 ..\..\..\..\..\..\..\lib\twrk70f120m.kds\debug\bsp\bsp.a(adc_mk70.o)
 .ARM.attributes
                0x000013cf       0x39 ..\..\..\..\..\..\..\lib\twrk70f120m.kds\debug\bsp\bsp.a(sai_mk70.o)
 .ARM.attributes
                0x00001408       0x39 ..\..\..\..\..\..\..\lib\twrk70f120m.kds\debug\bsp\bsp.a(edma_kinetisf.o)
 .ARM.attributes
                0x00001441       0x39 ..\..\..\..\..\..\..\lib\twrk70f120m.kds\debug\psp\psp.a(lwevent.o)
 .ARM.attributes
                0x0000147a       0x39 ..\..\..\..\..\..\..\lib\twrk70f120m.kds\debug\psp\psp.a(io_instx.o)
 .ARM.attributes
                0x000014b3       0x39 ..\..\..\..\..\..\..\lib\twrk70f120m.kds\debug\psp\psp.a(io_inst.o)
 .ARM.attributes
                0x000014ec       0x39 ..\..\..\..\..\..\..\lib\twrk70f120m.kds\debug\psp\psp.a(io_init.o)
 .ARM.attributes
                0x00001525       0x39 ..\..\..\..\..\..\..\lib\twrk70f120m.kds\debug\psp\psp.a(io_fopen.o)
 .ARM.attributes
                0x0000155e       0x39 ..\..\..\..\..\..\..\lib\twrk70f120m.kds\debug\psp\psp.a(psp_iinit.o)
 .ARM.attributes
                0x00001597       0x39 ..\..\..\..\..\..\..\lib\twrk70f120m.kds\debug\psp\psp.a(kinetis_mpu.o)
 .ARM.attributes
                0x000015d0       0x39 ..\..\..\..\..\..\..\lib\twrk70f120m.kds\debug\psp\psp.a(int_vtab.o)
 .ARM.attributes
                0x00001609       0x39 ..\..\..\..\..\..\..\lib\twrk70f120m.kds\debug\psp\psp.a(int_inst.o)
 .ARM.attributes
                0x00001642       0x39 ..\..\..\..\..\..\..\lib\twrk70f120m.kds\debug\psp\psp.a(cache.o)

.debug_frame    0x00000000     0x52f4
 .debug_frame   0x00000000       0x50 Sources\gpio.o
 .debug_frame   0x00000050      0x19c ..\..\..\..\..\..\..\lib\twrk70f120m.kds\debug\bsp\bsp.a(lwgpio_kgpio.o)
 .debug_frame   0x000001ec      0x724 ..\..\..\..\..\..\..\lib\twrk70f120m.kds\debug\psp\psp.a(time.o)
 .debug_frame   0x00000910      0x674 ..\..\..\..\..\..\..\lib\twrk70f120m.kds\debug\psp\psp.a(task.o)
 .debug_frame   0x00000f84      0x158 ..\..\..\..\..\..\..\lib\twrk70f120m.kds\debug\psp\psp.a(sched.o)
 .debug_frame   0x000010dc      0x144 ..\..\..\..\..\..\..\lib\twrk70f120m.kds\debug\psp\psp.a(queue.o)
 .debug_frame   0x00001220      0x268 ..\..\..\..\..\..\..\lib\twrk70f120m.kds\debug\psp\psp.a(mqx.o)
 .debug_frame   0x00001488      0x658 ..\..\..\..\..\..\..\lib\twrk70f120m.kds\debug\psp\psp.a(mem.o)
 .debug_frame   0x00001ae0      0x1cc ..\..\..\..\..\..\..\lib\twrk70f120m.kds\debug\psp\psp.a(lwsem.o)
 .debug_frame   0x00001cac      0x288 ..\..\..\..\..\..\..\lib\twrk70f120m.kds\debug\psp\psp.a(klog.o)
 .debug_frame   0x00001f34      0x1dc ..\..\..\..\..\..\..\lib\twrk70f120m.kds\debug\psp\psp.a(int.o)
 .debug_frame   0x00002110       0x48 ..\..\..\..\..\..\..\lib\twrk70f120m.kds\debug\psp\psp.a(inittask.o)
 .debug_frame   0x00002158       0x2c ..\..\..\..\..\..\..\lib\twrk70f120m.kds\debug\psp\psp.a(idletask.o)
 .debug_frame   0x00002184       0x3c ..\..\..\..\..\..\..\lib\twrk70f120m.kds\debug\psp\psp.a(io_pntf.o)
 .debug_frame   0x000021c0       0x30 ..\..\..\..\..\..\..\lib\twrk70f120m.kds\debug\psp\psp.a(io_fputc.o)
 .debug_frame   0x000021f0       0xc0 ..\..\..\..\..\..\..\lib\twrk70f120m.kds\debug\psp\psp.a(io_dopr.o)
 .debug_frame   0x000022b0       0x2c ..\..\..\..\..\..\..\lib\twrk70f120m.kds\debug\psp\psp.a(stack_de.o)
 .debug_frame   0x000022dc       0x50 ..\..\..\..\..\..\..\lib\twrk70f120m.kds\debug\psp\psp.a(stack_bu.o)
 .debug_frame   0x0000232c       0x4c ..\..\..\..\..\..\..\lib\twrk70f120m.kds\debug\psp\psp.a(sc_irdyq.o)
 .debug_frame   0x00002378       0x50 ..\..\..\..\..\..\..\lib\twrk70f120m.kds\debug\psp\psp.a(psp_tisu.o)
 .debug_frame   0x000023c8       0x30 ..\..\..\..\..\..\..\lib\twrk70f120m.kds\debug\psp\psp.a(psp_tinm.o)
 .debug_frame   0x000023f8       0x70 ..\..\..\..\..\..\..\lib\twrk70f120m.kds\debug\psp\psp.a(psp_tims.o)
 .debug_frame   0x00002468       0x34 ..\..\..\..\..\..\..\lib\twrk70f120m.kds\debug\psp\psp.a(psp_tiad.o)
 .debug_frame   0x0000249c       0x34 ..\..\..\..\..\..\..\lib\twrk70f120m.kds\debug\psp\psp.a(psp_mstiq.o)
 .debug_frame   0x000024d0       0x34 ..\..\..\..\..\..\..\lib\twrk70f120m.kds\debug\psp\psp.a(psp_mat3.o)
 .debug_frame   0x00002504       0x34 ..\..\..\..\..\..\..\lib\twrk70f120m.kds\debug\psp\psp.a(psp_mat2.o)
 .debug_frame   0x00002538       0x38 ..\..\..\..\..\..\..\lib\twrk70f120m.kds\debug\psp\psp.a(psp_mat1.o)
 .debug_frame   0x00002570       0x84 ..\..\..\..\..\..\..\lib\twrk70f120m.kds\debug\psp\psp.a(nvic.o)
 .debug_frame   0x000025f4       0x2c ..\..\..\..\..\..\..\lib\twrk70f120m.kds\debug\psp\psp.a(k_assert.o)
 .debug_frame   0x00002620      0x1b0 ..\..\..\..\..\..\..\lib\twrk70f120m.kds\debug\psp\psp.a(lwlog.o)
 .debug_frame   0x000027d0       0x30 ..\..\..\..\..\..\..\lib\twrk70f120m.kds\debug\psp\psp.a(io_ghand.o)
 .debug_frame   0x00002800      0x118 ..\..\..\..\..\..\..\lib\twrk70f120m.kds\debug\psp\psp.a(io_fp.o)
 .debug_frame   0x00002918      0x170 ..\..\..\..\..\..\..\lib\twrk70f120m.kds\debug\psp\psp.a(comp.o)
 .debug_frame   0x00002a88       0x50 ..\..\..\..\..\..\..\..\KDS_v3\toolchain\lib\gcc\arm-none-eabi\4.8.4\armv7e-m\fpu\libgcc.a(bpabi.o)
 .debug_frame   0x00002ad8       0x34 ..\..\..\..\..\..\..\..\KDS_v3\toolchain\lib\gcc\arm-none-eabi\4.8.4\armv7e-m\fpu\libgcc.a(_divdi3.o)
 .debug_frame   0x00002b0c       0x34 ..\..\..\..\..\..\..\..\KDS_v3\toolchain\lib\gcc\arm-none-eabi\4.8.4\armv7e-m\fpu\libgcc.a(_udivdi3.o)
 .debug_frame   0x00002b40       0x20 ..\..\..\..\..\..\..\..\KDS_v3\toolchain\arm-none-eabi\lib\armv7e-m\fpu\libc.a(lib_a-atexit.o)
 .debug_frame   0x00002b60       0x28 ..\..\..\..\..\..\..\..\KDS_v3\toolchain\arm-none-eabi\lib\armv7e-m\fpu\libc.a(lib_a-exit.o)
 .debug_frame   0x00002b88       0x2c ..\..\..\..\..\..\..\..\KDS_v3\toolchain\arm-none-eabi\lib\armv7e-m\fpu\libc.a(lib_a-fini.o)
 .debug_frame   0x00002bb4       0x2c ..\..\..\..\..\..\..\..\KDS_v3\toolchain\arm-none-eabi\lib\armv7e-m\fpu\libc.a(lib_a-init.o)
 .debug_frame   0x00002be0       0x2c ..\..\..\..\..\..\..\..\KDS_v3\toolchain\arm-none-eabi\lib\armv7e-m\fpu\libc.a(lib_a-memset.o)
 .debug_frame   0x00002c0c       0x30 ..\..\..\..\..\..\..\..\KDS_v3\toolchain\arm-none-eabi\lib\armv7e-m\fpu\libc.a(lib_a-s_modf.o)
 .debug_frame   0x00002c3c       0x28 ..\..\..\..\..\..\..\..\KDS_v3\toolchain\arm-none-eabi\lib\armv7e-m\fpu\libc.a(lib_a-strncmp.o)
 .debug_frame   0x00002c64       0x30 ..\..\..\..\..\..\..\..\KDS_v3\toolchain\arm-none-eabi\lib\armv7e-m\fpu\libc.a(lib_a-__atexit.o)
 .debug_frame   0x00002c94       0x48 ..\..\..\..\..\..\..\..\KDS_v3\toolchain\arm-none-eabi\lib\armv7e-m\fpu\libc.a(lib_a-__call_atexit.o)
 .debug_frame   0x00002cdc       0x20 ..\..\..\..\..\..\..\..\KDS_v3\toolchain\arm-none-eabi\lib\armv7e-m\fpu\libc.a(lib_a-strlen.o)
 .debug_frame   0x00002cfc       0x2c ..\..\..\..\..\..\..\lib\twrk70f120m.kds\debug\bsp\bsp.a(mqx_main.o)
 .debug_frame   0x00002d28       0xd4 ..\..\..\..\..\..\..\lib\twrk70f120m.kds\debug\bsp\bsp.a(init_hw.o)
 .debug_frame   0x00002dfc      0x244 ..\..\..\..\..\..\..\lib\twrk70f120m.kds\debug\bsp\bsp.a(init_gpio.o)
 .debug_frame   0x00003040       0xac ..\..\..\..\..\..\..\lib\twrk70f120m.kds\debug\bsp\bsp.a(init_bsp.o)
 .debug_frame   0x000030ec      0x260 ..\..\..\..\..\..\..\lib\twrk70f120m.kds\debug\bsp\bsp.a(bsp_cm.o)
 .debug_frame   0x0000334c      0x140 ..\..\..\..\..\..\..\lib\twrk70f120m.kds\debug\bsp\bsp.a(serl_pol_kuart.o)
 .debug_frame   0x0000348c       0xf0 ..\..\..\..\..\..\..\lib\twrk70f120m.kds\debug\bsp\bsp.a(serl_pol.o)
 .debug_frame   0x0000357c       0x30 ..\..\..\..\..\..\..\lib\twrk70f120m.kds\debug\bsp\bsp.a(io_sinit.o)
 .debug_frame   0x000035ac       0xb0 ..\..\..\..\..\..\..\lib\twrk70f120m.kds\debug\bsp\bsp.a(sai_dma.o)
 .debug_frame   0x0000365c       0xe0 ..\..\..\..\..\..\..\lib\twrk70f120m.kds\debug\bsp\bsp.a(krtc.o)
 .debug_frame   0x0000373c      0x110 ..\..\..\..\..\..\..\lib\twrk70f120m.kds\debug\bsp\bsp.a(i2c_pol_ki2c.o)
 .debug_frame   0x0000384c       0x48 ..\..\..\..\..\..\..\lib\twrk70f120m.kds\debug\bsp\bsp.a(i2c_mk70.o)
 .debug_frame   0x00003894       0xd0 ..\..\..\..\..\..\..\lib\twrk70f120m.kds\debug\bsp\bsp.a(i2c_int_ki2c_legacy.o)
 .debug_frame   0x00003964       0xe4 ..\..\..\..\..\..\..\lib\twrk70f120m.kds\debug\bsp\bsp.a(hwtimer_systick.o)
 .debug_frame   0x00003a48       0xec ..\..\..\..\..\..\..\lib\twrk70f120m.kds\debug\bsp\bsp.a(hwtimer_kinetis.o)
 .debug_frame   0x00003b34      0x1ec ..\..\..\..\..\..\..\lib\twrk70f120m.kds\debug\bsp\bsp.a(hwtimer.o)
 .debug_frame   0x00003d20      0x22c ..\..\..\..\..\..\..\lib\twrk70f120m.kds\debug\bsp\bsp.a(esdhc.o)
 .debug_frame   0x00003f4c      0x1ec ..\..\..\..\..\..\..\lib\twrk70f120m.kds\debug\bsp\bsp.a(dma.o)
 .debug_frame   0x00004138       0xc8 ..\..\..\..\..\..\..\lib\twrk70f120m.kds\debug\bsp\bsp.a(adc.o)
 .debug_frame   0x00004200       0x80 ..\..\..\..\..\..\..\lib\twrk70f120m.kds\debug\bsp\bsp.a(serl_mk70.o)
 .debug_frame   0x00004280      0x18c ..\..\..\..\..\..\..\lib\twrk70f120m.kds\debug\bsp\bsp.a(sai_dma_ksai.o)
 .debug_frame   0x0000440c       0xf0 ..\..\..\..\..\..\..\lib\twrk70f120m.kds\debug\bsp\bsp.a(i2c_pol.o)
 .debug_frame   0x000044fc       0xf0 ..\..\..\..\..\..\..\lib\twrk70f120m.kds\debug\bsp\bsp.a(i2c_int.o)
 .debug_frame   0x000045ec       0x48 ..\..\..\..\..\..\..\lib\twrk70f120m.kds\debug\bsp\bsp.a(esdhc_mk70.o)
 .debug_frame   0x00004634      0x258 ..\..\..\..\..\..\..\lib\twrk70f120m.kds\debug\bsp\bsp.a(edma.o)
 .debug_frame   0x0000488c      0x1ec ..\..\..\..\..\..\..\lib\twrk70f120m.kds\debug\bsp\bsp.a(adt_kpdb.o)
 .debug_frame   0x00004a78      0x18c ..\..\..\..\..\..\..\lib\twrk70f120m.kds\debug\bsp\bsp.a(adc_kadc.o)
 .debug_frame   0x00004c04       0x2c ..\..\..\..\..\..\..\lib\twrk70f120m.kds\debug\bsp\bsp.a(adc_mk70.o)
 .debug_frame   0x00004c30       0xb8 ..\..\..\..\..\..\..\lib\twrk70f120m.kds\debug\bsp\bsp.a(sai_mk70.o)
 .debug_frame   0x00004ce8       0x64 ..\..\..\..\..\..\..\lib\twrk70f120m.kds\debug\bsp\bsp.a(edma_kinetisf.o)
 .debug_frame   0x00004d4c      0x1b0 ..\..\..\..\..\..\..\lib\twrk70f120m.kds\debug\psp\psp.a(lwevent.o)
 .debug_frame   0x00004efc       0x50 ..\..\..\..\..\..\..\lib\twrk70f120m.kds\debug\psp\psp.a(io_instx.o)
 .debug_frame   0x00004f4c       0x30 ..\..\..\..\..\..\..\lib\twrk70f120m.kds\debug\psp\psp.a(io_inst.o)
 .debug_frame   0x00004f7c       0x30 ..\..\..\..\..\..\..\lib\twrk70f120m.kds\debug\psp\psp.a(io_init.o)
 .debug_frame   0x00004fac       0x30 ..\..\..\..\..\..\..\lib\twrk70f120m.kds\debug\psp\psp.a(io_fopen.o)
 .debug_frame   0x00004fdc       0x30 ..\..\..\..\..\..\..\lib\twrk70f120m.kds\debug\psp\psp.a(psp_iinit.o)
 .debug_frame   0x0000500c       0xb0 ..\..\..\..\..\..\..\lib\twrk70f120m.kds\debug\psp\psp.a(kinetis_mpu.o)
 .debug_frame   0x000050bc       0x44 ..\..\..\..\..\..\..\lib\twrk70f120m.kds\debug\psp\psp.a(int_vtab.o)
 .debug_frame   0x00005100       0x30 ..\..\..\..\..\..\..\lib\twrk70f120m.kds\debug\psp\psp.a(int_inst.o)
 .debug_frame   0x00005130      0x1c4 ..\..\..\..\..\..\..\lib\twrk70f120m.kds\debug\psp\psp.a(cache.o)

Cross Reference Table

Symbol                                            File
Cpu_GetClockConfiguration                         ..\..\..\..\..\..\..\lib\twrk70f120m.kds\debug\bsp\bsp.a(bsp_cm.o)
Cpu_GetLLSWakeUpFlags                             ..\..\..\..\..\..\..\lib\twrk70f120m.kds\debug\bsp\bsp.a(bsp_cm.o)
Cpu_MCGAutoTrim                                   ..\..\..\..\..\..\..\lib\twrk70f120m.kds\debug\bsp\bsp.a(bsp_cm.o)
Cpu_SetClockConfiguration                         ..\..\..\..\..\..\..\lib\twrk70f120m.kds\debug\bsp\bsp.a(bsp_cm.o)
Cpu_SetOperationMode                              ..\..\..\..\..\..\..\lib\twrk70f120m.kds\debug\bsp\bsp.a(bsp_cm.o)
LDD_SetClockConfiguration                         ..\..\..\..\..\..\..\lib\twrk70f120m.kds\debug\bsp\bsp.a(bsp_cm.o)
MQX_init_struct                                   ..\..\..\..\..\..\..\lib\twrk70f120m.kds\debug\bsp\bsp.a(mqx_init.o)
                                                  ..\..\..\..\..\..\..\lib\twrk70f120m.kds\debug\bsp\bsp.a(mqx_main.o)
MQX_template_list                                 Sources\gpio.o
                                                  ..\..\..\..\..\..\..\lib\twrk70f120m.kds\debug\bsp\bsp.a(mqx_init.o)
PE_CpuClockConfigurations                         ..\..\..\..\..\..\..\lib\twrk70f120m.kds\debug\bsp\bsp.a(bsp_cm.o)
PE_low_level_init                                 ..\..\..\..\..\..\..\lib\twrk70f120m.kds\debug\bsp\bsp.a(bsp_cm.o)
SR_lock                                           ..\..\..\..\..\..\..\lib\twrk70f120m.kds\debug\bsp\bsp.a(bsp_cm.o)
SR_reg                                            ..\..\..\..\..\..\..\lib\twrk70f120m.kds\debug\bsp\bsp.a(bsp_cm.o)
_BSP_sram_pool                                    ..\..\..\..\..\..\..\lib\twrk70f120m.kds\debug\bsp\bsp.a(init_bsp.o)
_Balloc                                           ..\..\..\..\..\..\..\..\KDS_v3\toolchain\arm-none-eabi\lib\armv7e-m\fpu\libc.a(lib_a-mprec.o)
                                                  ..\..\..\..\..\..\..\..\KDS_v3\toolchain\arm-none-eabi\lib\armv7e-m\fpu\libc.a(lib_a-gdtoa-gethex.o)
                                                  ..\..\..\..\..\..\..\..\KDS_v3\toolchain\arm-none-eabi\lib\armv7e-m\fpu\libc.a(lib_a-strtod.o)
_Bfree                                            ..\..\..\..\..\..\..\..\KDS_v3\toolchain\arm-none-eabi\lib\armv7e-m\fpu\libc.a(lib_a-mprec.o)
                                                  ..\..\..\..\..\..\..\..\KDS_v3\toolchain\arm-none-eabi\lib\armv7e-m\fpu\libc.a(lib_a-gdtoa-gethex.o)
                                                  ..\..\..\..\..\..\..\..\KDS_v3\toolchain\arm-none-eabi\lib\armv7e-m\fpu\libc.a(lib_a-strtod.o)
_PathLocale                                       ..\..\..\..\..\..\..\..\KDS_v3\toolchain\arm-none-eabi\lib\armv7e-m\fpu\libc.a(lib_a-locale.o)
__BOOT_STACK_ADDRESS                              ..\..\..\..\..\..\..\lib\twrk70f120m.kds\debug\bsp\bsp.a(vectors.o)
__DEFAULT_INTERRUPT_STACK_SIZE                    ..\..\..\..\..\..\..\lib\twrk70f120m.kds\debug\bsp\bsp.a(mqx_init.o)
__DEFAULT_PROCESSOR_NUMBER                        ..\..\..\..\..\..\..\lib\twrk70f120m.kds\debug\bsp\bsp.a(mqx_init.o)
__EXTERNAL_MRAM_RAM_BASE                          ..\..\..\..\..\..\..\lib\twrk70f120m.kds\debug\bsp\bsp.a(init_hw.o)
__INTERNAL_SRAM_BASE                              ..\..\..\..\..\..\..\lib\twrk70f120m.kds\debug\bsp\bsp.a(init_bsp.o)
__INTERNAL_SRAM_SIZE                              ..\..\..\..\..\..\..\lib\twrk70f120m.kds\debug\bsp\bsp.a(init_bsp.o)
__KERNEL_DATA_END                                 ..\..\..\..\..\..\..\lib\twrk70f120m.kds\debug\bsp\bsp.a(mqx_init.o)
__KERNEL_DATA_START                               ..\..\..\..\..\..\..\lib\twrk70f120m.kds\debug\bsp\bsp.a(init_bsp.o)
                                                  ..\..\..\..\..\..\..\lib\twrk70f120m.kds\debug\bsp\bsp.a(mqx_init.o)
__UNCACHED_DATA_END                               ..\..\..\..\..\..\..\lib\twrk70f120m.kds\debug\psp\psp.a(mem.o)
__UNCACHED_DATA_START                             ..\..\..\..\..\..\..\lib\twrk70f120m.kds\debug\psp\psp.a(mem.o)
__VECTOR_TABLE_ROM_START                          ..\..\..\..\..\..\..\lib\twrk70f120m.kds\debug\bsp\bsp.a(init_bsp.o)
__adddf3                                          ..\..\..\..\..\..\..\..\KDS_v3\toolchain\lib\gcc\arm-none-eabi\4.8.4\armv7e-m\fpu\libgcc.a(_arm_addsubdf3.o)
__aeabi_cdcmpeq                                   ..\..\..\..\..\..\..\..\KDS_v3\toolchain\lib\gcc\arm-none-eabi\4.8.4\armv7e-m\fpu\libgcc.a(_arm_cmpdf2.o)
__aeabi_cdcmple                                   ..\..\..\..\..\..\..\..\KDS_v3\toolchain\lib\gcc\arm-none-eabi\4.8.4\armv7e-m\fpu\libgcc.a(_arm_cmpdf2.o)
__aeabi_cdrcmple                                  ..\..\..\..\..\..\..\..\KDS_v3\toolchain\lib\gcc\arm-none-eabi\4.8.4\armv7e-m\fpu\libgcc.a(_arm_cmpdf2.o)
__aeabi_d2f                                       ..\..\..\..\..\..\..\..\KDS_v3\toolchain\lib\gcc\arm-none-eabi\4.8.4\armv7e-m\fpu\libgcc.a(_arm_truncdfsf2.o)
                                                  ..\..\..\..\..\..\..\..\KDS_v3\toolchain\arm-none-eabi\lib\armv7e-m\fpu\libc.a(lib_a-strtod.o)
__aeabi_d2iz                                      ..\..\..\..\..\..\..\..\KDS_v3\toolchain\lib\gcc\arm-none-eabi\4.8.4\armv7e-m\fpu\libgcc.a(_arm_fixdfsi.o)
                                                  ..\..\..\..\..\..\..\..\KDS_v3\toolchain\arm-none-eabi\lib\armv7e-m\fpu\libc.a(lib_a-strtod.o)
                                                  ..\..\..\..\..\..\..\lib\twrk70f120m.kds\debug\psp\psp.a(io_fp.o)
__aeabi_d2uiz                                     ..\..\..\..\..\..\..\..\KDS_v3\toolchain\lib\gcc\arm-none-eabi\4.8.4\armv7e-m\fpu\libgcc.a(_arm_fixunsdfsi.o)
                                                  ..\..\..\..\..\..\..\..\KDS_v3\toolchain\arm-none-eabi\lib\armv7e-m\fpu\libc.a(lib_a-strtod.o)
                                                  ..\..\..\..\..\..\..\lib\twrk70f120m.kds\debug\psp\psp.a(io_fp.o)
__aeabi_dadd                                      ..\..\..\..\..\..\..\..\KDS_v3\toolchain\lib\gcc\arm-none-eabi\4.8.4\armv7e-m\fpu\libgcc.a(_arm_addsubdf3.o)
                                                  ..\..\..\..\..\..\..\..\KDS_v3\toolchain\arm-none-eabi\lib\armv7e-m\fpu\libc.a(lib_a-strtod.o)
                                                  ..\..\..\..\..\..\..\lib\twrk70f120m.kds\debug\psp\psp.a(io_fp.o)
__aeabi_dcmpeq                                    ..\..\..\..\..\..\..\..\KDS_v3\toolchain\lib\gcc\arm-none-eabi\4.8.4\armv7e-m\fpu\libgcc.a(_arm_cmpdf2.o)
                                                  ..\..\..\..\..\..\..\..\KDS_v3\toolchain\arm-none-eabi\lib\armv7e-m\fpu\libc.a(lib_a-strtod.o)
                                                  ..\..\..\..\..\..\..\lib\twrk70f120m.kds\debug\psp\psp.a(io_fp.o)
__aeabi_dcmpge                                    ..\..\..\..\..\..\..\..\KDS_v3\toolchain\lib\gcc\arm-none-eabi\4.8.4\armv7e-m\fpu\libgcc.a(_arm_cmpdf2.o)
__aeabi_dcmpgt                                    ..\..\..\..\..\..\..\..\KDS_v3\toolchain\lib\gcc\arm-none-eabi\4.8.4\armv7e-m\fpu\libgcc.a(_arm_cmpdf2.o)
                                                  ..\..\..\..\..\..\..\..\KDS_v3\toolchain\arm-none-eabi\lib\armv7e-m\fpu\libc.a(lib_a-strtod.o)
                                                  ..\..\..\..\..\..\..\lib\twrk70f120m.kds\debug\psp\psp.a(io_fp.o)
__aeabi_dcmple                                    ..\..\..\..\..\..\..\..\KDS_v3\toolchain\lib\gcc\arm-none-eabi\4.8.4\armv7e-m\fpu\libgcc.a(_arm_cmpdf2.o)
                                                  ..\..\..\..\..\..\..\..\KDS_v3\toolchain\arm-none-eabi\lib\armv7e-m\fpu\libc.a(lib_a-strtod.o)
__aeabi_dcmplt                                    ..\..\..\..\..\..\..\..\KDS_v3\toolchain\lib\gcc\arm-none-eabi\4.8.4\armv7e-m\fpu\libgcc.a(_arm_cmpdf2.o)
                                                  ..\..\..\..\..\..\..\..\KDS_v3\toolchain\arm-none-eabi\lib\armv7e-m\fpu\libc.a(lib_a-strtod.o)
                                                  ..\..\..\..\..\..\..\lib\twrk70f120m.kds\debug\psp\psp.a(io_fp.o)
__aeabi_ddiv                                      ..\..\..\..\..\..\..\..\KDS_v3\toolchain\lib\gcc\arm-none-eabi\4.8.4\armv7e-m\fpu\libgcc.a(_arm_muldivdf3.o)
                                                  ..\..\..\..\..\..\..\..\KDS_v3\toolchain\arm-none-eabi\lib\armv7e-m\fpu\libc.a(lib_a-mprec.o)
                                                  ..\..\..\..\..\..\..\..\KDS_v3\toolchain\arm-none-eabi\lib\armv7e-m\fpu\libc.a(lib_a-strtod.o)
                                                  ..\..\..\..\..\..\..\lib\twrk70f120m.kds\debug\psp\psp.a(io_fp.o)
__aeabi_dmul                                      ..\..\..\..\..\..\..\..\KDS_v3\toolchain\lib\gcc\arm-none-eabi\4.8.4\armv7e-m\fpu\libgcc.a(_arm_muldivdf3.o)
                                                  ..\..\..\..\..\..\..\..\KDS_v3\toolchain\arm-none-eabi\lib\armv7e-m\fpu\libc.a(lib_a-mprec.o)
                                                  ..\..\..\..\..\..\..\..\KDS_v3\toolchain\arm-none-eabi\lib\armv7e-m\fpu\libc.a(lib_a-strtod.o)
                                                  ..\..\..\..\..\..\..\lib\twrk70f120m.kds\debug\psp\psp.a(io_fp.o)
__aeabi_drsub                                     ..\..\..\..\..\..\..\..\KDS_v3\toolchain\lib\gcc\arm-none-eabi\4.8.4\armv7e-m\fpu\libgcc.a(_arm_addsubdf3.o)
__aeabi_dsub                                      ..\..\..\..\..\..\..\..\KDS_v3\toolchain\lib\gcc\arm-none-eabi\4.8.4\armv7e-m\fpu\libgcc.a(_arm_addsubdf3.o)
                                                  ..\..\..\..\..\..\..\..\KDS_v3\toolchain\arm-none-eabi\lib\armv7e-m\fpu\libc.a(lib_a-strtod.o)
                                                  ..\..\..\..\..\..\..\..\KDS_v3\toolchain\arm-none-eabi\lib\armv7e-m\fpu\libc.a(lib_a-s_modf.o)
__aeabi_f2d                                       ..\..\..\..\..\..\..\..\KDS_v3\toolchain\lib\gcc\arm-none-eabi\4.8.4\armv7e-m\fpu\libgcc.a(_arm_addsubdf3.o)
__aeabi_i2d                                       ..\..\..\..\..\..\..\..\KDS_v3\toolchain\lib\gcc\arm-none-eabi\4.8.4\armv7e-m\fpu\libgcc.a(_arm_addsubdf3.o)
                                                  ..\..\..\..\..\..\..\..\KDS_v3\toolchain\arm-none-eabi\lib\armv7e-m\fpu\libc.a(lib_a-strtod.o)
__aeabi_idiv0                                     ..\..\..\..\..\..\..\..\KDS_v3\toolchain\lib\gcc\arm-none-eabi\4.8.4\armv7e-m\fpu\libgcc.a(_dvmd_tls.o)
__aeabi_l2d                                       ..\..\..\..\..\..\..\..\KDS_v3\toolchain\lib\gcc\arm-none-eabi\4.8.4\armv7e-m\fpu\libgcc.a(_arm_addsubdf3.o)
__aeabi_ldiv0                                     ..\..\..\..\..\..\..\..\KDS_v3\toolchain\lib\gcc\arm-none-eabi\4.8.4\armv7e-m\fpu\libgcc.a(_dvmd_tls.o)
                                                  ..\..\..\..\..\..\..\..\KDS_v3\toolchain\lib\gcc\arm-none-eabi\4.8.4\armv7e-m\fpu\libgcc.a(_aeabi_uldivmod.o)
                                                  ..\..\..\..\..\..\..\..\KDS_v3\toolchain\lib\gcc\arm-none-eabi\4.8.4\armv7e-m\fpu\libgcc.a(_aeabi_ldivmod.o)
__aeabi_ldivmod                                   ..\..\..\..\..\..\..\..\KDS_v3\toolchain\lib\gcc\arm-none-eabi\4.8.4\armv7e-m\fpu\libgcc.a(_aeabi_ldivmod.o)
                                                  ..\..\..\..\..\..\..\lib\twrk70f120m.kds\debug\psp\psp.a(io_dopr.o)
__aeabi_ui2d                                      ..\..\..\..\..\..\..\..\KDS_v3\toolchain\lib\gcc\arm-none-eabi\4.8.4\armv7e-m\fpu\libgcc.a(_arm_addsubdf3.o)
                                                  ..\..\..\..\..\..\..\..\KDS_v3\toolchain\arm-none-eabi\lib\armv7e-m\fpu\libc.a(lib_a-strtod.o)
__aeabi_ul2d                                      ..\..\..\..\..\..\..\..\KDS_v3\toolchain\lib\gcc\arm-none-eabi\4.8.4\armv7e-m\fpu\libgcc.a(_arm_addsubdf3.o)
__aeabi_uldivmod                                  ..\..\..\..\..\..\..\..\KDS_v3\toolchain\lib\gcc\arm-none-eabi\4.8.4\armv7e-m\fpu\libgcc.a(_aeabi_uldivmod.o)
                                                  ..\..\..\..\..\..\..\lib\twrk70f120m.kds\debug\bsp\bsp.a(adt_kpdb.o)
                                                  ..\..\..\..\..\..\..\lib\twrk70f120m.kds\debug\bsp\bsp.a(hwtimer.o)
                                                  ..\..\..\..\..\..\..\lib\twrk70f120m.kds\debug\psp\psp.a(psp_mat2.o)
                                                  ..\..\..\..\..\..\..\lib\twrk70f120m.kds\debug\psp\psp.a(psp_msti.o)
                                                  ..\..\..\..\..\..\..\lib\twrk70f120m.kds\debug\psp\psp.a(psp_mstiq.o)
                                                  ..\..\..\..\..\..\..\lib\twrk70f120m.kds\debug\psp\psp.a(psp_nsti.o)
                                                  ..\..\..\..\..\..\..\lib\twrk70f120m.kds\debug\psp\psp.a(psp_psti.o)
                                                  ..\..\..\..\..\..\..\lib\twrk70f120m.kds\debug\psp\psp.a(psp_tida.o)
                                                  ..\..\..\..\..\..\..\lib\twrk70f120m.kds\debug\psp\psp.a(psp_tihr.o)
                                                  ..\..\..\..\..\..\..\lib\twrk70f120m.kds\debug\psp\psp.a(psp_timn.o)
                                                  ..\..\..\..\..\..\..\lib\twrk70f120m.kds\debug\psp\psp.a(psp_tise.o)
                                                  ..\..\..\..\..\..\..\lib\twrk70f120m.kds\debug\psp\psp.a(psp_tkti.o)
                                                  ..\..\..\..\..\..\..\lib\twrk70f120m.kds\debug\psp\psp.a(psp_usti.o)
                                                  ..\..\..\..\..\..\..\lib\twrk70f120m.kds\debug\psp\psp.a(time.o)
__any_on                                          ..\..\..\..\..\..\..\..\KDS_v3\toolchain\arm-none-eabi\lib\armv7e-m\fpu\libc.a(lib_a-mprec.o)
                                                  ..\..\..\..\..\..\..\..\KDS_v3\toolchain\arm-none-eabi\lib\armv7e-m\fpu\libc.a(lib_a-gdtoa-gethex.o)
__b2d                                             ..\..\..\..\..\..\..\..\KDS_v3\toolchain\arm-none-eabi\lib\armv7e-m\fpu\libc.a(lib_a-mprec.o)
__boot                                            ..\..\..\..\..\..\..\lib\twrk70f120m.kds\debug\psp\psp.a(boot.o)
                                                  ..\..\..\..\..\..\..\lib\twrk70f120m.kds\debug\bsp\bsp.a(vectors.o)
__call_exitprocs                                  ..\..\..\..\..\..\..\..\KDS_v3\toolchain\arm-none-eabi\lib\armv7e-m\fpu\libc.a(lib_a-__call_atexit.o)
                                                  ..\..\..\..\..\..\..\..\KDS_v3\toolchain\arm-none-eabi\lib\armv7e-m\fpu\libc.a(lib_a-exit.o)
__cmpdf2                                          ..\..\..\..\..\..\..\..\KDS_v3\toolchain\lib\gcc\arm-none-eabi\4.8.4\armv7e-m\fpu\libgcc.a(_arm_cmpdf2.o)
__copy_table_end__                                ..\..\..\..\..\..\..\lib\twrk70f120m.kds\debug\psp\psp.a(comp.o)
__copy_table_start__                              ..\..\..\..\..\..\..\lib\twrk70f120m.kds\debug\psp\psp.a(comp.o)
__copybits                                        ..\..\..\..\..\..\..\..\KDS_v3\toolchain\arm-none-eabi\lib\armv7e-m\fpu\libc.a(lib_a-mprec.o)
                                                  ..\..\..\..\..\..\..\..\KDS_v3\toolchain\arm-none-eabi\lib\armv7e-m\fpu\libc.a(lib_a-strtod.o)
__cxa_atexit                                      ..\..\..\..\..\..\..\lib\twrk70f120m.kds\debug\psp\psp.a(comp.o)
__d2b                                             ..\..\..\..\..\..\..\..\KDS_v3\toolchain\arm-none-eabi\lib\armv7e-m\fpu\libc.a(lib_a-mprec.o)
                                                  ..\..\..\..\..\..\..\..\KDS_v3\toolchain\arm-none-eabi\lib\armv7e-m\fpu\libc.a(lib_a-strtod.o)
__disable_interrupt                               ..\..\..\..\..\..\..\lib\twrk70f120m.kds\debug\psp\psp.a(dispatch.o)
                                                  ..\..\..\..\..\..\..\lib\twrk70f120m.kds\debug\psp\psp.a(int_xcpt.o)
__divdf3                                          ..\..\..\..\..\..\..\..\KDS_v3\toolchain\lib\gcc\arm-none-eabi\4.8.4\armv7e-m\fpu\libgcc.a(_arm_muldivdf3.o)
__divdi3                                          ..\..\..\..\..\..\..\..\KDS_v3\toolchain\lib\gcc\arm-none-eabi\4.8.4\armv7e-m\fpu\libgcc.a(_divdi3.o)
                                                  ..\..\..\..\..\..\..\..\KDS_v3\toolchain\lib\gcc\arm-none-eabi\4.8.4\armv7e-m\fpu\libgcc.a(bpabi.o)
__dso_handle                                      ..\..\..\..\..\..\..\lib\twrk70f120m.kds\debug\psp\psp.a(comp.o)
__enable_interrupt                                ..\..\..\..\..\..\..\lib\twrk70f120m.kds\debug\psp\psp.a(dispatch.o)
                                                  ..\..\..\..\..\..\..\lib\twrk70f120m.kds\debug\psp\psp.a(int_xcpt.o)
__eqdf2                                           ..\..\..\..\..\..\..\..\KDS_v3\toolchain\lib\gcc\arm-none-eabi\4.8.4\armv7e-m\fpu\libgcc.a(_arm_cmpdf2.o)
__extendsfdf2                                     ..\..\..\..\..\..\..\..\KDS_v3\toolchain\lib\gcc\arm-none-eabi\4.8.4\armv7e-m\fpu\libgcc.a(_arm_addsubdf3.o)
__fini_array_end                                  ..\..\..\..\..\..\..\..\KDS_v3\toolchain\arm-none-eabi\lib\armv7e-m\fpu\libc.a(lib_a-fini.o)
__fini_array_start                                ..\..\..\..\..\..\..\..\KDS_v3\toolchain\arm-none-eabi\lib\armv7e-m\fpu\libc.a(lib_a-fini.o)
__fixdfsi                                         ..\..\..\..\..\..\..\..\KDS_v3\toolchain\lib\gcc\arm-none-eabi\4.8.4\armv7e-m\fpu\libgcc.a(_arm_fixdfsi.o)
__fixunsdfsi                                      ..\..\..\..\..\..\..\..\KDS_v3\toolchain\lib\gcc\arm-none-eabi\4.8.4\armv7e-m\fpu\libgcc.a(_arm_fixunsdfsi.o)
__floatdidf                                       ..\..\..\..\..\..\..\..\KDS_v3\toolchain\lib\gcc\arm-none-eabi\4.8.4\armv7e-m\fpu\libgcc.a(_arm_addsubdf3.o)
__floatsidf                                       ..\..\..\..\..\..\..\..\KDS_v3\toolchain\lib\gcc\arm-none-eabi\4.8.4\armv7e-m\fpu\libgcc.a(_arm_addsubdf3.o)
__floatundidf                                     ..\..\..\..\..\..\..\..\KDS_v3\toolchain\lib\gcc\arm-none-eabi\4.8.4\armv7e-m\fpu\libgcc.a(_arm_addsubdf3.o)
__floatunsidf                                     ..\..\..\..\..\..\..\..\KDS_v3\toolchain\lib\gcc\arm-none-eabi\4.8.4\armv7e-m\fpu\libgcc.a(_arm_addsubdf3.o)
__fpclassifyd                                     ..\..\..\..\..\..\..\..\KDS_v3\toolchain\arm-none-eabi\lib\armv7e-m\fpu\libc.a(lib_a-s_fpclassify.o)
                                                  ..\..\..\..\..\..\..\..\KDS_v3\toolchain\arm-none-eabi\lib\armv7e-m\fpu\libc.a(lib_a-strtod.o)
__gedf2                                           ..\..\..\..\..\..\..\..\KDS_v3\toolchain\lib\gcc\arm-none-eabi\4.8.4\armv7e-m\fpu\libgcc.a(_arm_cmpdf2.o)
__get_CONTROL                                     ..\..\..\..\..\..\..\lib\twrk70f120m.kds\debug\psp\psp.a(dispatch.o)
__get_LR                                          ..\..\..\..\..\..\..\lib\twrk70f120m.kds\debug\psp\psp.a(dispatch.o)
__get_MSP                                         ..\..\..\..\..\..\..\lib\twrk70f120m.kds\debug\psp\psp.a(dispatch.o)
__get_PC                                          ..\..\..\..\..\..\..\lib\twrk70f120m.kds\debug\psp\psp.a(dispatch.o)
__get_PSP                                         ..\..\..\..\..\..\..\lib\twrk70f120m.kds\debug\psp\psp.a(dispatch.o)
                                                  ..\..\..\..\..\..\..\lib\twrk70f120m.kds\debug\psp\psp.a(task.o)
__get_PSR                                         ..\..\..\..\..\..\..\lib\twrk70f120m.kds\debug\psp\psp.a(dispatch.o)
__gethex                                          ..\..\..\..\..\..\..\..\KDS_v3\toolchain\arm-none-eabi\lib\armv7e-m\fpu\libc.a(lib_a-gdtoa-gethex.o)
                                                  ..\..\..\..\..\..\..\..\KDS_v3\toolchain\arm-none-eabi\lib\armv7e-m\fpu\libc.a(lib_a-strtod.o)
__gnu_ldivmod_helper                              ..\..\..\..\..\..\..\..\KDS_v3\toolchain\lib\gcc\arm-none-eabi\4.8.4\armv7e-m\fpu\libgcc.a(bpabi.o)
                                                  ..\..\..\..\..\..\..\..\KDS_v3\toolchain\lib\gcc\arm-none-eabi\4.8.4\armv7e-m\fpu\libgcc.a(_aeabi_ldivmod.o)
__gnu_uldivmod_helper                             ..\..\..\..\..\..\..\..\KDS_v3\toolchain\lib\gcc\arm-none-eabi\4.8.4\armv7e-m\fpu\libgcc.a(bpabi.o)
                                                  ..\..\..\..\..\..\..\..\KDS_v3\toolchain\lib\gcc\arm-none-eabi\4.8.4\armv7e-m\fpu\libgcc.a(_aeabi_uldivmod.o)
__gtdf2                                           ..\..\..\..\..\..\..\..\KDS_v3\toolchain\lib\gcc\arm-none-eabi\4.8.4\armv7e-m\fpu\libgcc.a(_arm_cmpdf2.o)
__hexdig                                          ..\..\..\..\..\..\..\..\KDS_v3\toolchain\arm-none-eabi\lib\armv7e-m\fpu\libc.a(lib_a-gdtoa-gethex.o)
                                                  ..\..\..\..\..\..\..\..\KDS_v3\toolchain\arm-none-eabi\lib\armv7e-m\fpu\libc.a(lib_a-gdtoa-hexnan.o)
__hexnan                                          ..\..\..\..\..\..\..\..\KDS_v3\toolchain\arm-none-eabi\lib\armv7e-m\fpu\libc.a(lib_a-gdtoa-hexnan.o)
                                                  ..\..\..\..\..\..\..\..\KDS_v3\toolchain\arm-none-eabi\lib\armv7e-m\fpu\libc.a(lib_a-strtod.o)
__hi0bits                                         ..\..\..\..\..\..\..\..\KDS_v3\toolchain\arm-none-eabi\lib\armv7e-m\fpu\libc.a(lib_a-mprec.o)
                                                  ..\..\..\..\..\..\..\..\KDS_v3\toolchain\arm-none-eabi\lib\armv7e-m\fpu\libc.a(lib_a-gdtoa-gethex.o)
__i2b                                             ..\..\..\..\..\..\..\..\KDS_v3\toolchain\arm-none-eabi\lib\armv7e-m\fpu\libc.a(lib_a-mprec.o)
                                                  ..\..\..\..\..\..\..\..\KDS_v3\toolchain\arm-none-eabi\lib\armv7e-m\fpu\libc.a(lib_a-strtod.o)
__init_array_end                                  ..\..\..\..\..\..\..\..\KDS_v3\toolchain\arm-none-eabi\lib\armv7e-m\fpu\libc.a(lib_a-init.o)
__init_array_start                                ..\..\..\..\..\..\..\..\KDS_v3\toolchain\arm-none-eabi\lib\armv7e-m\fpu\libc.a(lib_a-init.o)
__ledf2                                           ..\..\..\..\..\..\..\..\KDS_v3\toolchain\lib\gcc\arm-none-eabi\4.8.4\armv7e-m\fpu\libgcc.a(_arm_cmpdf2.o)
__libc_fini                                       ..\..\..\..\..\..\..\..\KDS_v3\toolchain\arm-none-eabi\lib\armv7e-m\fpu\libc.a(lib_a-__call_atexit.o)
__libc_fini_array                                 ..\..\..\..\..\..\..\..\KDS_v3\toolchain\arm-none-eabi\lib\armv7e-m\fpu\libc.a(lib_a-fini.o)
                                                  ..\..\..\..\..\..\..\..\KDS_v3\toolchain\arm-none-eabi\lib\armv7e-m\fpu\libc.a(lib_a-__call_atexit.o)
                                                  ..\..\..\..\..\..\..\lib\twrk70f120m.kds\debug\psp\psp.a(comp.o)
__libc_init_array                                 ..\..\..\..\..\..\..\..\KDS_v3\toolchain\arm-none-eabi\lib\armv7e-m\fpu\libc.a(lib_a-init.o)
                                                  ..\..\..\..\..\..\..\lib\twrk70f120m.kds\debug\psp\psp.a(comp.o)
__lo0bits                                         ..\..\..\..\..\..\..\..\KDS_v3\toolchain\arm-none-eabi\lib\armv7e-m\fpu\libc.a(lib_a-mprec.o)
__locale_charset                                  ..\..\..\..\..\..\..\..\KDS_v3\toolchain\arm-none-eabi\lib\armv7e-m\fpu\libc.a(lib_a-locale.o)
__locale_cjk_lang                                 ..\..\..\..\..\..\..\..\KDS_v3\toolchain\arm-none-eabi\lib\armv7e-m\fpu\libc.a(lib_a-locale.o)
__locale_mb_cur_max                               ..\..\..\..\..\..\..\..\KDS_v3\toolchain\arm-none-eabi\lib\armv7e-m\fpu\libc.a(lib_a-locale.o)
__locale_msgcharset                               ..\..\..\..\..\..\..\..\KDS_v3\toolchain\arm-none-eabi\lib\armv7e-m\fpu\libc.a(lib_a-locale.o)
__lshift                                          ..\..\..\..\..\..\..\..\KDS_v3\toolchain\arm-none-eabi\lib\armv7e-m\fpu\libc.a(lib_a-mprec.o)
                                                  ..\..\..\..\..\..\..\..\KDS_v3\toolchain\arm-none-eabi\lib\armv7e-m\fpu\libc.a(lib_a-gdtoa-gethex.o)
                                                  ..\..\..\..\..\..\..\..\KDS_v3\toolchain\arm-none-eabi\lib\armv7e-m\fpu\libc.a(lib_a-strtod.o)
__ltdf2                                           ..\..\..\..\..\..\..\..\KDS_v3\toolchain\lib\gcc\arm-none-eabi\4.8.4\armv7e-m\fpu\libgcc.a(_arm_cmpdf2.o)
__mb_cur_max                                      ..\..\..\..\..\..\..\..\KDS_v3\toolchain\arm-none-eabi\lib\armv7e-m\fpu\libc.a(lib_a-locale.o)
__mcmp                                            ..\..\..\..\..\..\..\..\KDS_v3\toolchain\arm-none-eabi\lib\armv7e-m\fpu\libc.a(lib_a-mprec.o)
                                                  ..\..\..\..\..\..\..\..\KDS_v3\toolchain\arm-none-eabi\lib\armv7e-m\fpu\libc.a(lib_a-strtod.o)
__mdiff                                           ..\..\..\..\..\..\..\..\KDS_v3\toolchain\arm-none-eabi\lib\armv7e-m\fpu\libc.a(lib_a-mprec.o)
                                                  ..\..\..\..\..\..\..\..\KDS_v3\toolchain\arm-none-eabi\lib\armv7e-m\fpu\libc.a(lib_a-strtod.o)
__mlocale_changed                                 ..\..\..\..\..\..\..\..\KDS_v3\toolchain\arm-none-eabi\lib\armv7e-m\fpu\libc.a(lib_a-locale.o)
__mprec_bigtens                                   ..\..\..\..\..\..\..\..\KDS_v3\toolchain\arm-none-eabi\lib\armv7e-m\fpu\libc.a(lib_a-mprec.o)
                                                  ..\..\..\..\..\..\..\..\KDS_v3\toolchain\arm-none-eabi\lib\armv7e-m\fpu\libc.a(lib_a-strtod.o)
__mprec_tens                                      ..\..\..\..\..\..\..\..\KDS_v3\toolchain\arm-none-eabi\lib\armv7e-m\fpu\libc.a(lib_a-mprec.o)
                                                  ..\..\..\..\..\..\..\..\KDS_v3\toolchain\arm-none-eabi\lib\armv7e-m\fpu\libc.a(lib_a-strtod.o)
__mprec_tinytens                                  ..\..\..\..\..\..\..\..\KDS_v3\toolchain\arm-none-eabi\lib\armv7e-m\fpu\libc.a(lib_a-mprec.o)
__muldf3                                          ..\..\..\..\..\..\..\..\KDS_v3\toolchain\lib\gcc\arm-none-eabi\4.8.4\armv7e-m\fpu\libgcc.a(_arm_muldivdf3.o)
__multadd                                         ..\..\..\..\..\..\..\..\KDS_v3\toolchain\arm-none-eabi\lib\armv7e-m\fpu\libc.a(lib_a-mprec.o)
__multiply                                        ..\..\..\..\..\..\..\..\KDS_v3\toolchain\arm-none-eabi\lib\armv7e-m\fpu\libc.a(lib_a-mprec.o)
                                                  ..\..\..\..\..\..\..\..\KDS_v3\toolchain\arm-none-eabi\lib\armv7e-m\fpu\libc.a(lib_a-strtod.o)
__nedf2                                           ..\..\..\..\..\..\..\..\KDS_v3\toolchain\lib\gcc\arm-none-eabi\4.8.4\armv7e-m\fpu\libgcc.a(_arm_cmpdf2.o)
__nlocale_changed                                 ..\..\..\..\..\..\..\..\KDS_v3\toolchain\arm-none-eabi\lib\armv7e-m\fpu\libc.a(lib_a-locale.o)
__pe_initialize_hardware                          ..\..\..\..\..\..\..\lib\twrk70f120m.kds\debug\bsp\bsp.a(bsp_cm.o)
__pow5mult                                        ..\..\..\..\..\..\..\..\KDS_v3\toolchain\arm-none-eabi\lib\armv7e-m\fpu\libc.a(lib_a-mprec.o)
                                                  ..\..\..\..\..\..\..\..\KDS_v3\toolchain\arm-none-eabi\lib\armv7e-m\fpu\libc.a(lib_a-strtod.o)
__preinit_array_end                               ..\..\..\..\..\..\..\..\KDS_v3\toolchain\arm-none-eabi\lib\armv7e-m\fpu\libc.a(lib_a-init.o)
__preinit_array_start                             ..\..\..\..\..\..\..\..\KDS_v3\toolchain\arm-none-eabi\lib\armv7e-m\fpu\libc.a(lib_a-init.o)
__ratio                                           ..\..\..\..\..\..\..\..\KDS_v3\toolchain\arm-none-eabi\lib\armv7e-m\fpu\libc.a(lib_a-mprec.o)
                                                  ..\..\..\..\..\..\..\..\KDS_v3\toolchain\arm-none-eabi\lib\armv7e-m\fpu\libc.a(lib_a-strtod.o)
__register_exitproc                               ..\..\..\..\..\..\..\..\KDS_v3\toolchain\arm-none-eabi\lib\armv7e-m\fpu\libc.a(lib_a-__atexit.o)
                                                  ..\..\..\..\..\..\..\..\KDS_v3\toolchain\arm-none-eabi\lib\armv7e-m\fpu\libc.a(lib_a-atexit.o)
__s2b                                             ..\..\..\..\..\..\..\..\KDS_v3\toolchain\arm-none-eabi\lib\armv7e-m\fpu\libc.a(lib_a-mprec.o)
                                                  ..\..\..\..\..\..\..\..\KDS_v3\toolchain\arm-none-eabi\lib\armv7e-m\fpu\libc.a(lib_a-strtod.o)
__set_MSP                                         ..\..\..\..\..\..\..\lib\twrk70f120m.kds\debug\psp\psp.a(dispatch.o)
                                                  ..\..\..\..\..\..\..\lib\twrk70f120m.kds\debug\psp\psp.a(int_inst.o)
__subdf3                                          ..\..\..\..\..\..\..\..\KDS_v3\toolchain\lib\gcc\arm-none-eabi\4.8.4\armv7e-m\fpu\libgcc.a(_arm_addsubdf3.o)
__truncdfsf2                                      ..\..\..\..\..\..\..\..\KDS_v3\toolchain\lib\gcc\arm-none-eabi\4.8.4\armv7e-m\fpu\libgcc.a(_arm_truncdfsf2.o)
__udivdi3                                         ..\..\..\..\..\..\..\..\KDS_v3\toolchain\lib\gcc\arm-none-eabi\4.8.4\armv7e-m\fpu\libgcc.a(_udivdi3.o)
                                                  ..\..\..\..\..\..\..\..\KDS_v3\toolchain\lib\gcc\arm-none-eabi\4.8.4\armv7e-m\fpu\libgcc.a(bpabi.o)
__ulp                                             ..\..\..\..\..\..\..\..\KDS_v3\toolchain\arm-none-eabi\lib\armv7e-m\fpu\libc.a(lib_a-mprec.o)
                                                  ..\..\..\..\..\..\..\..\KDS_v3\toolchain\arm-none-eabi\lib\armv7e-m\fpu\libc.a(lib_a-strtod.o)
__vector_table                                    ..\..\..\..\..\..\..\lib\twrk70f120m.kds\debug\bsp\bsp.a(vectors.o)
__zero_table_end__                                ..\..\..\..\..\..\..\lib\twrk70f120m.kds\debug\psp\psp.a(comp.o)
__zero_table_start__                              ..\..\..\..\..\..\..\lib\twrk70f120m.kds\debug\psp\psp.a(comp.o)
_adc_close                                        ..\..\..\..\..\..\..\lib\twrk70f120m.kds\debug\bsp\bsp.a(adc.o)
_adc_hw_channel_deinit                            ..\..\..\..\..\..\..\lib\twrk70f120m.kds\debug\bsp\bsp.a(adc_kadc.o)
                                                  ..\..\..\..\..\..\..\lib\twrk70f120m.kds\debug\bsp\bsp.a(adc.o)
_adc_hw_channel_init                              ..\..\..\..\..\..\..\lib\twrk70f120m.kds\debug\bsp\bsp.a(adc_kadc.o)
                                                  ..\..\..\..\..\..\..\lib\twrk70f120m.kds\debug\bsp\bsp.a(adc.o)
_adc_hw_deinit                                    ..\..\..\..\..\..\..\lib\twrk70f120m.kds\debug\bsp\bsp.a(adc_kadc.o)
                                                  ..\..\..\..\..\..\..\lib\twrk70f120m.kds\debug\bsp\bsp.a(adc.o)
_adc_hw_init                                      ..\..\..\..\..\..\..\lib\twrk70f120m.kds\debug\bsp\bsp.a(adc_kadc.o)
                                                  ..\..\..\..\..\..\..\lib\twrk70f120m.kds\debug\bsp\bsp.a(adc.o)
_adc_hw_install                                   ..\..\..\..\..\..\..\lib\twrk70f120m.kds\debug\bsp\bsp.a(adc_kadc.o)
                                                  ..\..\..\..\..\..\..\lib\twrk70f120m.kds\debug\bsp\bsp.a(adc.o)
_adc_hw_ioctl                                     ..\..\..\..\..\..\..\lib\twrk70f120m.kds\debug\bsp\bsp.a(adc_kadc.o)
                                                  ..\..\..\..\..\..\..\lib\twrk70f120m.kds\debug\bsp\bsp.a(adc.o)
_adc_ioctl                                        ..\..\..\..\..\..\..\lib\twrk70f120m.kds\debug\bsp\bsp.a(adc.o)
_adc_open                                         ..\..\..\..\..\..\..\lib\twrk70f120m.kds\debug\bsp\bsp.a(adc.o)
_adc_read                                         ..\..\..\..\..\..\..\lib\twrk70f120m.kds\debug\bsp\bsp.a(adc.o)
_adc_write                                        ..\..\..\..\..\..\..\lib\twrk70f120m.kds\debug\bsp\bsp.a(adc.o)
_adt_hw_channel_deinit                            ..\..\..\..\..\..\..\lib\twrk70f120m.kds\debug\bsp\bsp.a(adt_kpdb.o)
                                                  ..\..\..\..\..\..\..\lib\twrk70f120m.kds\debug\bsp\bsp.a(adc.o)
_adt_hw_channel_init                              ..\..\..\..\..\..\..\lib\twrk70f120m.kds\debug\bsp\bsp.a(adt_kpdb.o)
                                                  ..\..\..\..\..\..\..\lib\twrk70f120m.kds\debug\bsp\bsp.a(adc.o)
_adt_hw_deinit                                    ..\..\..\..\..\..\..\lib\twrk70f120m.kds\debug\bsp\bsp.a(adt_kpdb.o)
                                                  ..\..\..\..\..\..\..\lib\twrk70f120m.kds\debug\bsp\bsp.a(adc.o)
_adt_hw_init                                      ..\..\..\..\..\..\..\lib\twrk70f120m.kds\debug\bsp\bsp.a(adt_kpdb.o)
                                                  ..\..\..\..\..\..\..\lib\twrk70f120m.kds\debug\bsp\bsp.a(adc.o)
_adt_hw_install                                   ..\..\..\..\..\..\..\lib\twrk70f120m.kds\debug\bsp\bsp.a(adt_kpdb.o)
                                                  ..\..\..\..\..\..\..\lib\twrk70f120m.kds\debug\bsp\bsp.a(adc.o)
_adt_hw_ioctl                                     ..\..\..\..\..\..\..\lib\twrk70f120m.kds\debug\bsp\bsp.a(adt_kpdb.o)
                                                  ..\..\..\..\..\..\..\lib\twrk70f120m.kds\debug\bsp\bsp.a(adc.o)
_adt_pause                                        ..\..\..\..\..\..\..\lib\twrk70f120m.kds\debug\bsp\bsp.a(adt_kpdb.o)
                                                  ..\..\..\..\..\..\..\lib\twrk70f120m.kds\debug\bsp\bsp.a(adc.o)
_adt_process_data                                 ..\..\..\..\..\..\..\lib\twrk70f120m.kds\debug\bsp\bsp.a(adt_kpdb.o)
                                                  ..\..\..\..\..\..\..\lib\twrk70f120m.kds\debug\bsp\bsp.a(adc_kadc.o)
_adt_resume                                       ..\..\..\..\..\..\..\lib\twrk70f120m.kds\debug\bsp\bsp.a(adt_kpdb.o)
                                                  ..\..\..\..\..\..\..\lib\twrk70f120m.kds\debug\bsp\bsp.a(adc.o)
_adt_stop                                         ..\..\..\..\..\..\..\lib\twrk70f120m.kds\debug\bsp\bsp.a(adt_kpdb.o)
                                                  ..\..\..\..\..\..\..\lib\twrk70f120m.kds\debug\bsp\bsp.a(adc.o)
_adt_trigger                                      ..\..\..\..\..\..\..\lib\twrk70f120m.kds\debug\bsp\bsp.a(adt_kpdb.o)
                                                  ..\..\..\..\..\..\..\lib\twrk70f120m.kds\debug\bsp\bsp.a(adc.o)
_bsp_adc0_init                                    ..\..\..\..\..\..\..\lib\twrk70f120m.kds\debug\bsp\bsp.a(init_adc.o)
_bsp_adc1_init                                    ..\..\..\..\..\..\..\lib\twrk70f120m.kds\debug\bsp\bsp.a(init_adc.o)
                                                  ..\..\..\..\..\..\..\lib\twrk70f120m.kds\debug\bsp\bsp.a(init_bsp.o)
_bsp_adc2_init                                    ..\..\..\..\..\..\..\lib\twrk70f120m.kds\debug\bsp\bsp.a(init_adc.o)
_bsp_adc3_init                                    ..\..\..\..\..\..\..\lib\twrk70f120m.kds\debug\bsp\bsp.a(init_adc.o)
_bsp_adc_channel_io_init                          ..\..\..\..\..\..\..\lib\twrk70f120m.kds\debug\bsp\bsp.a(init_gpio.o)
                                                  ..\..\..\..\..\..\..\lib\twrk70f120m.kds\debug\bsp\bsp.a(adc_kadc.o)
_bsp_adc_io_init                                  ..\..\..\..\..\..\..\lib\twrk70f120m.kds\debug\bsp\bsp.a(init_gpio.o)
                                                  ..\..\..\..\..\..\..\lib\twrk70f120m.kds\debug\bsp\bsp.a(adc_kadc.o)
_bsp_audio_data_init                              ..\..\..\..\..\..\..\lib\twrk70f120m.kds\debug\bsp\bsp.a(init_sai.o)
_bsp_ddr2_setup                                   ..\..\..\..\..\..\..\lib\twrk70f120m.kds\debug\bsp\bsp.a(init_hw.o)
_bsp_dma_devif_list                               ..\..\..\..\..\..\..\lib\twrk70f120m.kds\debug\bsp\bsp.a(init_dma.o)
                                                  ..\..\..\..\..\..\..\lib\twrk70f120m.kds\debug\bsp\bsp.a(init_bsp.o)
_bsp_dspi_io_init                                 ..\..\..\..\..\..\..\lib\twrk70f120m.kds\debug\bsp\bsp.a(init_gpio.o)
_bsp_edma_enable                                  ..\..\..\..\..\..\..\lib\twrk70f120m.kds\debug\bsp\bsp.a(edma_kinetisf.o)
                                                  ..\..\..\..\..\..\..\lib\twrk70f120m.kds\debug\bsp\bsp.a(edma.o)
_bsp_enet_io_init                                 ..\..\..\..\..\..\..\lib\twrk70f120m.kds\debug\bsp\bsp.a(init_gpio.o)
_bsp_esdhc0_init                                  ..\..\..\..\..\..\..\lib\twrk70f120m.kds\debug\bsp\bsp.a(init_esdhc.o)
                                                  ..\..\..\..\..\..\..\lib\twrk70f120m.kds\debug\bsp\bsp.a(init_bsp.o)
_bsp_esdhc_io_init                                ..\..\..\..\..\..\..\lib\twrk70f120m.kds\debug\bsp\bsp.a(init_gpio.o)
                                                  ..\..\..\..\..\..\..\lib\twrk70f120m.kds\debug\bsp\bsp.a(esdhc.o)
_bsp_exit_handler                                 ..\..\..\..\..\..\..\lib\twrk70f120m.kds\debug\bsp\bsp.a(init_bsp.o)
_bsp_flexbus_lcd_setup                            ..\..\..\..\..\..\..\lib\twrk70f120m.kds\debug\bsp\bsp.a(init_hw.o)
_bsp_flexbus_pccard_setup                         ..\..\..\..\..\..\..\lib\twrk70f120m.kds\debug\bsp\bsp.a(init_hw.o)
_bsp_flexcan_io_init                              ..\..\..\..\..\..\..\lib\twrk70f120m.kds\debug\bsp\bsp.a(init_gpio.o)
_bsp_ftfx_io_init                                 ..\..\..\..\..\..\..\lib\twrk70f120m.kds\debug\bsp\bsp.a(init_gpio.o)
_bsp_get_adc_base_address                         ..\..\..\..\..\..\..\lib\twrk70f120m.kds\debug\bsp\bsp.a(adc_mk70.o)
                                                  ..\..\..\..\..\..\..\lib\twrk70f120m.kds\debug\bsp\bsp.a(adc_kadc.o)
_bsp_get_clock                                    ..\..\..\..\..\..\..\lib\twrk70f120m.kds\debug\bsp\bsp.a(bsp_cm.o)
                                                  ..\..\..\..\..\..\..\lib\twrk70f120m.kds\debug\bsp\bsp.a(sai_dma_ksai.o)
                                                  ..\..\..\..\..\..\..\lib\twrk70f120m.kds\debug\bsp\bsp.a(hwtimer.o)
_bsp_get_clock_configuration                      ..\..\..\..\..\..\..\lib\twrk70f120m.kds\debug\bsp\bsp.a(bsp_cm.o)
                                                  ..\..\..\..\..\..\..\lib\twrk70f120m.kds\debug\bsp\bsp.a(sai_dma_ksai.o)
                                                  ..\..\..\..\..\..\..\lib\twrk70f120m.kds\debug\bsp\bsp.a(hwtimer.o)
_bsp_get_edma_done_vectors                        ..\..\..\..\..\..\..\lib\twrk70f120m.kds\debug\bsp\bsp.a(edma_kinetisf.o)
                                                  ..\..\..\..\..\..\..\lib\twrk70f120m.kds\debug\bsp\bsp.a(edma.o)
_bsp_get_edma_error_vectors                       ..\..\..\..\..\..\..\lib\twrk70f120m.kds\debug\bsp\bsp.a(edma_kinetisf.o)
                                                  ..\..\..\..\..\..\..\lib\twrk70f120m.kds\debug\bsp\bsp.a(edma.o)
_bsp_get_esdhc_base_address                       ..\..\..\..\..\..\..\lib\twrk70f120m.kds\debug\bsp\bsp.a(esdhc_mk70.o)
                                                  ..\..\..\..\..\..\..\lib\twrk70f120m.kds\debug\bsp\bsp.a(esdhc.o)
_bsp_get_esdhc_vector                             ..\..\..\..\..\..\..\lib\twrk70f120m.kds\debug\bsp\bsp.a(esdhc_mk70.o)
                                                  ..\..\..\..\..\..\..\lib\twrk70f120m.kds\debug\bsp\bsp.a(esdhc.o)
_bsp_get_hwticks                                  ..\..\..\..\..\..\..\lib\twrk70f120m.kds\debug\bsp\bsp.a(init_bsp.o)
_bsp_get_i2c_base_address                         ..\..\..\..\..\..\..\lib\twrk70f120m.kds\debug\bsp\bsp.a(i2c_mk70.o)
                                                  ..\..\..\..\..\..\..\lib\twrk70f120m.kds\debug\bsp\bsp.a(i2c_pol_ki2c.o)
_bsp_get_i2c_vector                               ..\..\..\..\..\..\..\lib\twrk70f120m.kds\debug\bsp\bsp.a(i2c_mk70.o)
                                                  ..\..\..\..\..\..\..\lib\twrk70f120m.kds\debug\bsp\bsp.a(i2c_int_ki2c_legacy.o)
_bsp_get_pdb_base_address                         ..\..\..\..\..\..\..\lib\twrk70f120m.kds\debug\bsp\bsp.a(adt_kpdb.o)
_bsp_get_sai_base_address                         ..\..\..\..\..\..\..\lib\twrk70f120m.kds\debug\bsp\bsp.a(sai_mk70.o)
                                                  ..\..\..\..\..\..\..\lib\twrk70f120m.kds\debug\bsp\bsp.a(sai_dma_ksai.o)
_bsp_get_sai_dma_channel_mask                     ..\..\..\..\..\..\..\lib\twrk70f120m.kds\debug\bsp\bsp.a(sai_mk70.o)
                                                  ..\..\..\..\..\..\..\lib\twrk70f120m.kds\debug\bsp\bsp.a(sai_dma_ksai.o)
_bsp_get_sai_rx_dma_source                        ..\..\..\..\..\..\..\lib\twrk70f120m.kds\debug\bsp\bsp.a(sai_mk70.o)
                                                  ..\..\..\..\..\..\..\lib\twrk70f120m.kds\debug\bsp\bsp.a(sai_dma_ksai.o)
_bsp_get_sai_rx_vector                            ..\..\..\..\..\..\..\lib\twrk70f120m.kds\debug\bsp\bsp.a(sai_mk70.o)
                                                  ..\..\..\..\..\..\..\lib\twrk70f120m.kds\debug\bsp\bsp.a(sai_dma_ksai.o)
_bsp_get_sai_tx_dma_source                        ..\..\..\..\..\..\..\lib\twrk70f120m.kds\debug\bsp\bsp.a(sai_mk70.o)
                                                  ..\..\..\..\..\..\..\lib\twrk70f120m.kds\debug\bsp\bsp.a(sai_dma_ksai.o)
_bsp_get_sai_tx_vector                            ..\..\..\..\..\..\..\lib\twrk70f120m.kds\debug\bsp\bsp.a(sai_mk70.o)
                                                  ..\..\..\..\..\..\..\lib\twrk70f120m.kds\debug\bsp\bsp.a(sai_dma_ksai.o)
_bsp_get_serial_base_address                      ..\..\..\..\..\..\..\lib\twrk70f120m.kds\debug\bsp\bsp.a(serl_mk70.o)
                                                  ..\..\..\..\..\..\..\lib\twrk70f120m.kds\debug\bsp\bsp.a(serl_pol_kuart.o)
_bsp_get_serial_error_int_num                     ..\..\..\..\..\..\..\lib\twrk70f120m.kds\debug\bsp\bsp.a(serl_mk70.o)
_bsp_get_serial_rx_dma_request                    ..\..\..\..\..\..\..\lib\twrk70f120m.kds\debug\bsp\bsp.a(serl_mk70.o)
_bsp_get_serial_tx_dma_request                    ..\..\..\..\..\..\..\lib\twrk70f120m.kds\debug\bsp\bsp.a(serl_mk70.o)
_bsp_gpio_io_init                                 ..\..\..\..\..\..\..\lib\twrk70f120m.kds\debug\bsp\bsp.a(init_gpio.o)
                                                  ..\..\..\..\..\..\..\lib\twrk70f120m.kds\debug\bsp\bsp.a(init_hw.o)
_bsp_i2c0_init                                    ..\..\..\..\..\..\..\lib\twrk70f120m.kds\debug\bsp\bsp.a(init_i2c.o)
                                                  ..\..\..\..\..\..\..\lib\twrk70f120m.kds\debug\bsp\bsp.a(init_bsp.o)
_bsp_i2c1_init                                    ..\..\..\..\..\..\..\lib\twrk70f120m.kds\debug\bsp\bsp.a(init_i2c.o)
_bsp_i2c_io_init                                  ..\..\..\..\..\..\..\lib\twrk70f120m.kds\debug\bsp\bsp.a(init_gpio.o)
                                                  ..\..\..\..\..\..\..\lib\twrk70f120m.kds\debug\bsp\bsp.a(i2c_pol_ki2c.o)
_bsp_init                                         ..\..\..\..\..\..\..\lib\twrk70f120m.kds\debug\bsp\bsp.a(init_bsp.o)
                                                  ..\..\..\..\..\..\..\lib\twrk70f120m.kds\debug\psp\psp.a(inittask.o)
_bsp_initialize_hardware                          ..\..\..\..\..\..\..\lib\twrk70f120m.kds\debug\bsp\bsp.a(bsp_cm.o)
                                                  ..\..\..\..\..\..\..\lib\twrk70f120m.kds\debug\bsp\bsp.a(init_hw.o)
_bsp_ksai_init                                    ..\..\..\..\..\..\..\lib\twrk70f120m.kds\debug\bsp\bsp.a(init_sai.o)
_bsp_low_level_init                               ..\..\..\..\..\..\..\lib\twrk70f120m.kds\debug\bsp\bsp.a(bsp_cm.o)
                                                  ..\..\..\..\..\..\..\lib\twrk70f120m.kds\debug\bsp\bsp.a(init_bsp.o)
_bsp_nandflash_io_init                            ..\..\..\..\..\..\..\lib\twrk70f120m.kds\debug\bsp\bsp.a(init_gpio.o)
_bsp_osc_autotrim                                 ..\..\..\..\..\..\..\lib\twrk70f120m.kds\debug\bsp\bsp.a(bsp_cm.o)
                                                  ..\..\..\..\..\..\..\lib\twrk70f120m.kds\debug\bsp\bsp.a(init_bsp.o)
_bsp_pdb_init                                     ..\..\..\..\..\..\..\lib\twrk70f120m.kds\debug\bsp\bsp.a(init_adc.o)
_bsp_post_init                                    ..\..\..\..\..\..\..\lib\twrk70f120m.kds\debug\psp\psp.a(inittask.o)
_bsp_pre_init                                     ..\..\..\..\..\..\..\lib\twrk70f120m.kds\debug\bsp\bsp.a(init_bsp.o)
                                                  ..\..\..\..\..\..\..\lib\twrk70f120m.kds\debug\psp\psp.a(mqx.o)
_bsp_rtc_io_init                                  ..\..\..\..\..\..\..\lib\twrk70f120m.kds\debug\bsp\bsp.a(init_gpio.o)
                                                  ..\..\..\..\..\..\..\lib\twrk70f120m.kds\debug\bsp\bsp.a(init_bsp.o)
_bsp_sai_init                                     ..\..\..\..\..\..\..\lib\twrk70f120m.kds\debug\bsp\bsp.a(init_sai.o)
                                                  ..\..\..\..\..\..\..\lib\twrk70f120m.kds\debug\bsp\bsp.a(init_bsp.o)
_bsp_sai_io_init                                  ..\..\..\..\..\..\..\lib\twrk70f120m.kds\debug\bsp\bsp.a(init_gpio.o)
                                                  ..\..\..\..\..\..\..\lib\twrk70f120m.kds\debug\bsp\bsp.a(sai_dma_ksai.o)
_bsp_sci0_init                                    ..\..\..\..\..\..\..\lib\twrk70f120m.kds\debug\bsp\bsp.a(init_sci.o)
_bsp_sci1_init                                    ..\..\..\..\..\..\..\lib\twrk70f120m.kds\debug\bsp\bsp.a(init_sci.o)
_bsp_sci2_init                                    ..\..\..\..\..\..\..\lib\twrk70f120m.kds\debug\bsp\bsp.a(init_sci.o)
                                                  ..\..\..\..\..\..\..\lib\twrk70f120m.kds\debug\bsp\bsp.a(init_bsp.o)
_bsp_sci3_init                                    ..\..\..\..\..\..\..\lib\twrk70f120m.kds\debug\bsp\bsp.a(init_sci.o)
_bsp_sci4_init                                    ..\..\..\..\..\..\..\lib\twrk70f120m.kds\debug\bsp\bsp.a(init_sci.o)
_bsp_sci5_init                                    ..\..\..\..\..\..\..\lib\twrk70f120m.kds\debug\bsp\bsp.a(init_sci.o)
_bsp_serial_io_init                               ..\..\..\..\..\..\..\lib\twrk70f120m.kds\debug\bsp\bsp.a(init_gpio.o)
                                                  ..\..\..\..\..\..\..\lib\twrk70f120m.kds\debug\bsp\bsp.a(serl_pol_kuart.o)
_bsp_serial_irda_rx_init                          ..\..\..\..\..\..\..\lib\twrk70f120m.kds\debug\bsp\bsp.a(init_gpio.o)
                                                  ..\..\..\..\..\..\..\lib\twrk70f120m.kds\debug\bsp\bsp.a(serl_pol_kuart.o)
_bsp_serial_irda_tx_init                          ..\..\..\..\..\..\..\lib\twrk70f120m.kds\debug\bsp\bsp.a(init_gpio.o)
                                                  ..\..\..\..\..\..\..\lib\twrk70f120m.kds\debug\bsp\bsp.a(serl_pol_kuart.o)
_bsp_serial_rts_init                              ..\..\..\..\..\..\..\lib\twrk70f120m.kds\debug\bsp\bsp.a(init_gpio.o)
                                                  ..\..\..\..\..\..\..\lib\twrk70f120m.kds\debug\bsp\bsp.a(serl_pol_kuart.o)
_bsp_set_clock_configuration                      ..\..\..\..\..\..\..\lib\twrk70f120m.kds\debug\bsp\bsp.a(bsp_cm.o)
                                                  ..\..\..\..\..\..\..\lib\twrk70f120m.kds\debug\bsp\bsp.a(init_bsp.o)
_bsp_systimer_callback                            ..\..\..\..\..\..\..\lib\twrk70f120m.kds\debug\bsp\bsp.a(init_bsp.o)
_bsp_tss_io_init                                  ..\..\..\..\..\..\..\lib\twrk70f120m.kds\debug\bsp\bsp.a(init_gpio.o)
_bsp_usb_dev_io_init                              ..\..\..\..\..\..\..\lib\twrk70f120m.kds\debug\bsp\bsp.a(init_gpio.o)
_bsp_usb_host_io_init                             ..\..\..\..\..\..\..\lib\twrk70f120m.kds\debug\bsp\bsp.a(init_gpio.o)
_bsp_usb_table                                    ..\..\..\..\..\..\..\lib\twrk70f120m.kds\debug\bsp\bsp.a(init_usb.o)
_bsp_watchdog_disable                             ..\..\..\..\..\..\..\lib\twrk70f120m.kds\debug\bsp\bsp.a(init_hw.o)
                                                  ..\..\..\..\..\..\..\lib\twrk70f120m.kds\debug\bsp\bsp.a(bsp_cm.o)
_calloc_r                                         ..\..\..\..\..\..\..\..\KDS_v3\toolchain\arm-none-eabi\lib\armv7e-m\fpu\libc.a(lib_a-callocr.o)
                                                  ..\..\..\..\..\..\..\..\KDS_v3\toolchain\arm-none-eabi\lib\armv7e-m\fpu\libc.a(lib_a-mprec.o)
_cfm                                              ..\..\..\..\..\..\..\lib\twrk70f120m.kds\debug\bsp\bsp.a(vectors.o)
_crt_tls_reference                                ..\..\..\..\..\..\..\lib\twrk70f120m.kds\debug\psp\psp.a(mqx.o)
_dcache_disable                                   ..\..\..\..\..\..\..\lib\twrk70f120m.kds\debug\psp\psp.a(cache.o)
                                                  ..\..\..\..\..\..\..\lib\twrk70f120m.kds\debug\bsp\bsp.a(init_bsp.o)
_dcache_enable                                    ..\..\..\..\..\..\..\lib\twrk70f120m.kds\debug\psp\psp.a(cache.o)
                                                  ..\..\..\..\..\..\..\lib\twrk70f120m.kds\debug\bsp\bsp.a(init_bsp.o)
_dcache_flush                                     ..\..\..\..\..\..\..\lib\twrk70f120m.kds\debug\psp\psp.a(cache.o)
_dcache_flush_line                                ..\..\..\..\..\..\..\lib\twrk70f120m.kds\debug\psp\psp.a(cache.o)
                                                  ..\..\..\..\..\..\..\lib\twrk70f120m.kds\debug\bsp\bsp.a(esdhc.o)
_dcache_flush_mlines                              ..\..\..\..\..\..\..\lib\twrk70f120m.kds\debug\psp\psp.a(cache.o)
                                                  ..\..\..\..\..\..\..\lib\twrk70f120m.kds\debug\bsp\bsp.a(edma.o)
                                                  ..\..\..\..\..\..\..\lib\twrk70f120m.kds\debug\bsp\bsp.a(esdhc.o)
_dcache_invalidate                                ..\..\..\..\..\..\..\lib\twrk70f120m.kds\debug\psp\psp.a(cache.o)
_dcache_invalidate_line                           ..\..\..\..\..\..\..\lib\twrk70f120m.kds\debug\psp\psp.a(cache.o)
                                                  ..\..\..\..\..\..\..\lib\twrk70f120m.kds\debug\bsp\bsp.a(esdhc.o)
_dcache_invalidate_mlines                         ..\..\..\..\..\..\..\lib\twrk70f120m.kds\debug\psp\psp.a(cache.o)
                                                  ..\..\..\..\..\..\..\lib\twrk70f120m.kds\debug\bsp\bsp.a(esdhc.o)
_ehci0_dev_init_param                             ..\..\..\..\..\..\..\lib\twrk70f120m.kds\debug\bsp\bsp.a(init_usb.o)
                                                  ..\..\..\..\..\..\..\lib\twrk70f120m.kds\debug\bsp\bsp.a(init_gpio.o)
_ehci0_host_init_param                            ..\..\..\..\..\..\..\lib\twrk70f120m.kds\debug\bsp\bsp.a(init_usb.o)
                                                  ..\..\..\..\..\..\..\lib\twrk70f120m.kds\debug\bsp\bsp.a(init_gpio.o)
_esdhc_close                                      ..\..\..\..\..\..\..\lib\twrk70f120m.kds\debug\bsp\bsp.a(esdhc.o)
_esdhc_install                                    ..\..\..\..\..\..\..\lib\twrk70f120m.kds\debug\bsp\bsp.a(esdhc.o)
                                                  ..\..\..\..\..\..\..\lib\twrk70f120m.kds\debug\bsp\bsp.a(init_bsp.o)
_esdhc_ioctl                                      ..\..\..\..\..\..\..\lib\twrk70f120m.kds\debug\bsp\bsp.a(esdhc.o)
_esdhc_open                                       ..\..\..\..\..\..\..\lib\twrk70f120m.kds\debug\bsp\bsp.a(esdhc.o)
_esdhc_read                                       ..\..\..\..\..\..\..\lib\twrk70f120m.kds\debug\bsp\bsp.a(esdhc.o)
_esdhc_uninstall                                  ..\..\..\..\..\..\..\lib\twrk70f120m.kds\debug\bsp\bsp.a(esdhc.o)
_esdhc_write                                      ..\..\..\..\..\..\..\lib\twrk70f120m.kds\debug\bsp\bsp.a(esdhc.o)
_exit                                             ..\..\..\..\..\..\..\lib\twrk70f120m.kds\debug\psp\psp.a(comp.o)
                                                  ..\..\..\..\..\..\..\..\KDS_v3\toolchain\arm-none-eabi\lib\armv7e-m\fpu\libc.a(lib_a-exit.o)
_fini                                             ..\..\..\..\..\..\..\lib\twrk70f120m.kds\debug\psp\psp.a(comp.o)
                                                  ..\..\..\..\..\..\..\..\KDS_v3\toolchain\arm-none-eabi\lib\armv7e-m\fpu\libc.a(lib_a-fini.o)
_global_impure_ptr                                ..\..\..\..\..\..\..\..\KDS_v3\toolchain\arm-none-eabi\lib\armv7e-m\fpu\libc.a(lib_a-impure.o)
                                                  ..\..\..\..\..\..\..\..\KDS_v3\toolchain\arm-none-eabi\lib\armv7e-m\fpu\libc.a(lib_a-__call_atexit.o)
                                                  ..\..\..\..\..\..\..\..\KDS_v3\toolchain\arm-none-eabi\lib\armv7e-m\fpu\libc.a(lib_a-__atexit.o)
                                                  ..\..\..\..\..\..\..\..\KDS_v3\toolchain\arm-none-eabi\lib\armv7e-m\fpu\libc.a(lib_a-exit.o)
_icache_disable                                   ..\..\..\..\..\..\..\lib\twrk70f120m.kds\debug\psp\psp.a(cache.o)
                                                  ..\..\..\..\..\..\..\lib\twrk70f120m.kds\debug\bsp\bsp.a(init_bsp.o)
_icache_enable                                    ..\..\..\..\..\..\..\lib\twrk70f120m.kds\debug\psp\psp.a(cache.o)
                                                  ..\..\..\..\..\..\..\lib\twrk70f120m.kds\debug\bsp\bsp.a(init_bsp.o)
_icache_flush                                     ..\..\..\..\..\..\..\lib\twrk70f120m.kds\debug\psp\psp.a(cache.o)
_icache_flush_line                                ..\..\..\..\..\..\..\lib\twrk70f120m.kds\debug\psp\psp.a(cache.o)
_icache_flush_mlines                              ..\..\..\..\..\..\..\lib\twrk70f120m.kds\debug\psp\psp.a(cache.o)
_icache_invalidate                                ..\..\..\..\..\..\..\lib\twrk70f120m.kds\debug\psp\psp.a(cache.o)
_icache_invalidate_line                           ..\..\..\..\..\..\..\lib\twrk70f120m.kds\debug\psp\psp.a(cache.o)
_icache_invalidate_mlines                         ..\..\..\..\..\..\..\lib\twrk70f120m.kds\debug\psp\psp.a(cache.o)
_impure_ptr                                       ..\..\..\..\..\..\..\..\KDS_v3\toolchain\arm-none-eabi\lib\armv7e-m\fpu\libc.a(lib_a-impure.o)
                                                  ..\..\..\..\..\..\..\..\KDS_v3\toolchain\arm-none-eabi\lib\armv7e-m\fpu\libc.a(lib_a-locale.o)
                                                  ..\..\..\..\..\..\..\..\KDS_v3\toolchain\arm-none-eabi\lib\armv7e-m\fpu\libc.a(lib_a-strtod.o)
_init                                             ..\..\..\..\..\..\..\lib\twrk70f120m.kds\debug\psp\psp.a(comp.o)
                                                  ..\..\..\..\..\..\..\..\KDS_v3\toolchain\arm-none-eabi\lib\armv7e-m\fpu\libc.a(lib_a-init.o)
_int_default_isr                                  ..\..\..\..\..\..\..\lib\twrk70f120m.kds\debug\psp\psp.a(int.o)
_int_disable                                      ..\..\..\..\..\..\..\lib\twrk70f120m.kds\debug\psp\psp.a(int.o)
                                                  ..\..\..\..\..\..\..\lib\twrk70f120m.kds\debug\psp\psp.a(lwevent.o)
                                                  ..\..\..\..\..\..\..\lib\twrk70f120m.kds\debug\bsp\bsp.a(adc_kadc.o)
                                                  ..\..\..\..\..\..\..\lib\twrk70f120m.kds\debug\bsp\bsp.a(edma.o)
                                                  ..\..\..\..\..\..\..\lib\twrk70f120m.kds\debug\bsp\bsp.a(i2c_int.o)
                                                  ..\..\..\..\..\..\..\lib\twrk70f120m.kds\debug\bsp\bsp.a(i2c_pol.o)
                                                  ..\..\..\..\..\..\..\lib\twrk70f120m.kds\debug\bsp\bsp.a(esdhc.o)
                                                  ..\..\..\..\..\..\..\lib\twrk70f120m.kds\debug\bsp\bsp.a(hwtimer_systick.o)
                                                  ..\..\..\..\..\..\..\lib\twrk70f120m.kds\debug\bsp\bsp.a(i2c_int_ki2c_legacy.o)
                                                  ..\..\..\..\..\..\..\lib\twrk70f120m.kds\debug\bsp\bsp.a(krtc.o)
                                                  ..\..\..\..\..\..\..\lib\twrk70f120m.kds\debug\bsp\bsp.a(sai_dma.o)
                                                  ..\..\..\..\..\..\..\lib\twrk70f120m.kds\debug\psp\psp.a(lwlog.o)
                                                  ..\..\..\..\..\..\..\lib\twrk70f120m.kds\debug\psp\psp.a(int_unx.o)
                                                  ..\..\..\..\..\..\..\lib\twrk70f120m.kds\debug\psp\psp.a(klog.o)
                                                  ..\..\..\..\..\..\..\lib\twrk70f120m.kds\debug\psp\psp.a(lwsem.o)
                                                  ..\..\..\..\..\..\..\lib\twrk70f120m.kds\debug\psp\psp.a(mem.o)
                                                  ..\..\..\..\..\..\..\lib\twrk70f120m.kds\debug\psp\psp.a(mqx.o)
                                                  ..\..\..\..\..\..\..\lib\twrk70f120m.kds\debug\psp\psp.a(queue.o)
                                                  ..\..\..\..\..\..\..\lib\twrk70f120m.kds\debug\psp\psp.a(sched.o)
                                                  ..\..\..\..\..\..\..\lib\twrk70f120m.kds\debug\psp\psp.a(task.o)
                                                  ..\..\..\..\..\..\..\lib\twrk70f120m.kds\debug\psp\psp.a(time.o)
_int_enable                                       ..\..\..\..\..\..\..\lib\twrk70f120m.kds\debug\psp\psp.a(int.o)
                                                  ..\..\..\..\..\..\..\lib\twrk70f120m.kds\debug\psp\psp.a(lwevent.o)
                                                  ..\..\..\..\..\..\..\lib\twrk70f120m.kds\debug\bsp\bsp.a(adc_kadc.o)
                                                  ..\..\..\..\..\..\..\lib\twrk70f120m.kds\debug\bsp\bsp.a(edma.o)
                                                  ..\..\..\..\..\..\..\lib\twrk70f120m.kds\debug\bsp\bsp.a(i2c_int.o)
                                                  ..\..\..\..\..\..\..\lib\twrk70f120m.kds\debug\bsp\bsp.a(i2c_pol.o)
                                                  ..\..\..\..\..\..\..\lib\twrk70f120m.kds\debug\bsp\bsp.a(esdhc.o)
                                                  ..\..\..\..\..\..\..\lib\twrk70f120m.kds\debug\bsp\bsp.a(hwtimer_systick.o)
                                                  ..\..\..\..\..\..\..\lib\twrk70f120m.kds\debug\bsp\bsp.a(i2c_int_ki2c_legacy.o)
                                                  ..\..\..\..\..\..\..\lib\twrk70f120m.kds\debug\bsp\bsp.a(krtc.o)
                                                  ..\..\..\..\..\..\..\lib\twrk70f120m.kds\debug\bsp\bsp.a(sai_dma.o)
                                                  ..\..\..\..\..\..\..\lib\twrk70f120m.kds\debug\psp\psp.a(lwlog.o)
                                                  ..\..\..\..\..\..\..\lib\twrk70f120m.kds\debug\psp\psp.a(int_unx.o)
                                                  ..\..\..\..\..\..\..\lib\twrk70f120m.kds\debug\psp\psp.a(klog.o)
                                                  ..\..\..\..\..\..\..\lib\twrk70f120m.kds\debug\psp\psp.a(lwsem.o)
                                                  ..\..\..\..\..\..\..\lib\twrk70f120m.kds\debug\psp\psp.a(mem.o)
                                                  ..\..\..\..\..\..\..\lib\twrk70f120m.kds\debug\psp\psp.a(mqx.o)
                                                  ..\..\..\..\..\..\..\lib\twrk70f120m.kds\debug\psp\psp.a(queue.o)
                                                  ..\..\..\..\..\..\..\lib\twrk70f120m.kds\debug\psp\psp.a(sched.o)
                                                  ..\..\..\..\..\..\..\lib\twrk70f120m.kds\debug\psp\psp.a(task.o)
                                                  ..\..\..\..\..\..\..\lib\twrk70f120m.kds\debug\psp\psp.a(time.o)
_int_exception_isr                                ..\..\..\..\..\..\..\lib\twrk70f120m.kds\debug\psp\psp.a(int_xcpt.o)
                                                  ..\..\..\..\..\..\..\lib\twrk70f120m.kds\debug\psp\psp.a(int.o)
_int_get_default_isr                              ..\..\..\..\..\..\..\lib\twrk70f120m.kds\debug\psp\psp.a(int.o)
                                                  ..\..\..\..\..\..\..\lib\twrk70f120m.kds\debug\bsp\bsp.a(edma.o)
                                                  ..\..\..\..\..\..\..\lib\twrk70f120m.kds\debug\bsp\bsp.a(esdhc.o)
                                                  ..\..\..\..\..\..\..\lib\twrk70f120m.kds\debug\bsp\bsp.a(hwtimer_systick.o)
                                                  ..\..\..\..\..\..\..\lib\twrk70f120m.kds\debug\bsp\bsp.a(krtc.o)
_int_get_exception_handler                        ..\..\..\..\..\..\..\lib\twrk70f120m.kds\debug\psp\psp.a(int.o)
                                                  ..\..\..\..\..\..\..\lib\twrk70f120m.kds\debug\psp\psp.a(int_xcpt.o)
_int_get_isr                                      ..\..\..\..\..\..\..\lib\twrk70f120m.kds\debug\psp\psp.a(int.o)
                                                  ..\..\..\..\..\..\..\lib\twrk70f120m.kds\debug\psp\psp.a(klog.o)
_int_get_isr_data                                 ..\..\..\..\..\..\..\lib\twrk70f120m.kds\debug\psp\psp.a(int.o)
                                                  ..\..\..\..\..\..\..\lib\twrk70f120m.kds\debug\bsp\bsp.a(adc_kadc.o)
                                                  ..\..\..\..\..\..\..\lib\twrk70f120m.kds\debug\bsp\bsp.a(adt_kpdb.o)
                                                  ..\..\..\..\..\..\..\lib\twrk70f120m.kds\debug\bsp\bsp.a(i2c_int_ki2c_legacy.o)
                                                  ..\..\..\..\..\..\..\lib\twrk70f120m.kds\debug\psp\psp.a(int_xcpt.o)
                                                  ..\..\..\..\..\..\..\lib\twrk70f120m.kds\debug\psp\psp.a(klog.o)
_int_get_isr_depth                                ..\..\..\..\..\..\..\lib\twrk70f120m.kds\debug\psp\psp.a(int.o)
_int_get_vector_table                             ..\..\..\..\..\..\..\lib\twrk70f120m.kds\debug\psp\psp.a(int_vtab.o)
_int_init                                         ..\..\..\..\..\..\..\lib\twrk70f120m.kds\debug\psp\psp.a(int.o)
                                                  ..\..\..\..\..\..\..\lib\twrk70f120m.kds\debug\psp\psp.a(psp_iinit.o)
_int_install_default_isr                          ..\..\..\..\..\..\..\lib\twrk70f120m.kds\debug\psp\psp.a(int.o)
_int_install_exception_isr                        ..\..\..\..\..\..\..\lib\twrk70f120m.kds\debug\psp\psp.a(int.o)
_int_install_isr                                  ..\..\..\..\..\..\..\lib\twrk70f120m.kds\debug\psp\psp.a(int.o)
                                                  ..\..\..\..\..\..\..\lib\twrk70f120m.kds\debug\bsp\bsp.a(adc_kadc.o)
                                                  ..\..\..\..\..\..\..\lib\twrk70f120m.kds\debug\bsp\bsp.a(adt_kpdb.o)
                                                  ..\..\..\..\..\..\..\lib\twrk70f120m.kds\debug\bsp\bsp.a(edma.o)
                                                  ..\..\..\..\..\..\..\lib\twrk70f120m.kds\debug\bsp\bsp.a(sai_dma_ksai.o)
                                                  ..\..\..\..\..\..\..\lib\twrk70f120m.kds\debug\bsp\bsp.a(esdhc.o)
                                                  ..\..\..\..\..\..\..\lib\twrk70f120m.kds\debug\bsp\bsp.a(hwtimer_systick.o)
                                                  ..\..\..\..\..\..\..\lib\twrk70f120m.kds\debug\bsp\bsp.a(i2c_int_ki2c_legacy.o)
                                                  ..\..\..\..\..\..\..\lib\twrk70f120m.kds\debug\bsp\bsp.a(krtc.o)
                                                  Sources\gpio.o
_int_install_unexpected_isr                       ..\..\..\..\..\..\..\lib\twrk70f120m.kds\debug\psp\psp.a(int.o)
_int_kernel_isr                                   ..\..\..\..\..\..\..\lib\twrk70f120m.kds\debug\psp\psp.a(dispatch.o)
                                                  ..\..\..\..\..\..\..\lib\twrk70f120m.kds\debug\psp\psp.a(int.o)
                                                  ..\..\..\..\..\..\..\lib\twrk70f120m.kds\debug\bsp\bsp.a(vectors.o)
_int_set_exception_handler                        ..\..\..\..\..\..\..\lib\twrk70f120m.kds\debug\psp\psp.a(int.o)
_int_set_isr_data                                 ..\..\..\..\..\..\..\lib\twrk70f120m.kds\debug\psp\psp.a(int.o)
_int_set_vector_table                             ..\..\..\..\..\..\..\lib\twrk70f120m.kds\debug\psp\psp.a(int_vtab.o)
                                                  ..\..\..\..\..\..\..\lib\twrk70f120m.kds\debug\bsp\bsp.a(init_bsp.o)
_int_unexpected_isr                               ..\..\..\..\..\..\..\lib\twrk70f120m.kds\debug\psp\psp.a(int_unx.o)
                                                  ..\..\..\..\..\..\..\lib\twrk70f120m.kds\debug\psp\psp.a(int.o)
_io_adc_install                                   ..\..\..\..\..\..\..\lib\twrk70f120m.kds\debug\bsp\bsp.a(adc.o)
                                                  ..\..\..\..\..\..\..\lib\twrk70f120m.kds\debug\bsp\bsp.a(init_bsp.o)
_io_cvt                                           ..\..\..\..\..\..\..\lib\twrk70f120m.kds\debug\psp\psp.a(io_fp.o)
_io_dev_install                                   ..\..\..\..\..\..\..\lib\twrk70f120m.kds\debug\psp\psp.a(io_inst.o)
                                                  ..\..\..\..\..\..\..\lib\twrk70f120m.kds\debug\bsp\bsp.a(adc.o)
                                                  ..\..\..\..\..\..\..\lib\twrk70f120m.kds\debug\bsp\bsp.a(serl_pol.o)
_io_dev_install_drvif                             ..\..\..\..\..\..\..\lib\twrk70f120m.kds\debug\psp\psp.a(io_instx.o)
                                                  ..\..\..\..\..\..\..\lib\twrk70f120m.kds\debug\psp\psp.a(io_inst.o)
_io_dev_install_ext                               ..\..\..\..\..\..\..\lib\twrk70f120m.kds\debug\psp\psp.a(io_instx.o)
                                                  ..\..\..\..\..\..\..\lib\twrk70f120m.kds\debug\bsp\bsp.a(i2c_int.o)
                                                  ..\..\..\..\..\..\..\lib\twrk70f120m.kds\debug\bsp\bsp.a(i2c_pol.o)
                                                  ..\..\..\..\..\..\..\lib\twrk70f120m.kds\debug\bsp\bsp.a(esdhc.o)
                                                  ..\..\..\..\..\..\..\lib\twrk70f120m.kds\debug\bsp\bsp.a(sai_dma.o)
_io_doprint                                       ..\..\..\..\..\..\..\lib\twrk70f120m.kds\debug\psp\psp.a(io_dopr.o)
                                                  ..\..\..\..\..\..\..\lib\twrk70f120m.kds\debug\psp\psp.a(io_pntf.o)
_io_doprint_prt                                   ..\..\..\..\..\..\..\lib\twrk70f120m.kds\debug\psp\psp.a(io_dopr.o)
_io_doprint_prt64                                 ..\..\..\..\..\..\..\lib\twrk70f120m.kds\debug\psp\psp.a(io_dopr.o)
_io_dtoa                                          ..\..\..\..\..\..\..\lib\twrk70f120m.kds\debug\psp\psp.a(io_fp.o)
_io_dtoe                                          ..\..\..\..\..\..\..\lib\twrk70f120m.kds\debug\psp\psp.a(io_fp.o)
                                                  ..\..\..\..\..\..\..\lib\twrk70f120m.kds\debug\psp\psp.a(io_dopr.o)
_io_dtof                                          ..\..\..\..\..\..\..\lib\twrk70f120m.kds\debug\psp\psp.a(io_fp.o)
                                                  ..\..\..\..\..\..\..\lib\twrk70f120m.kds\debug\psp\psp.a(io_dopr.o)
_io_dtog                                          ..\..\..\..\..\..\..\lib\twrk70f120m.kds\debug\psp\psp.a(io_fp.o)
                                                  ..\..\..\..\..\..\..\lib\twrk70f120m.kds\debug\psp\psp.a(io_dopr.o)
_io_fopen                                         ..\..\..\..\..\..\..\lib\twrk70f120m.kds\debug\psp\psp.a(io_fopen.o)
                                                  ..\..\..\..\..\..\..\lib\twrk70f120m.kds\debug\bsp\bsp.a(io_sinit.o)
_io_fputc                                         ..\..\..\..\..\..\..\lib\twrk70f120m.kds\debug\psp\psp.a(io_fputc.o)
                                                  ..\..\..\..\..\..\..\lib\twrk70f120m.kds\debug\psp\psp.a(io_pntf.o)
_io_get_handle                                    ..\..\..\..\..\..\..\lib\twrk70f120m.kds\debug\psp\psp.a(io_ghand.o)
                                                  ..\..\..\..\..\..\..\lib\twrk70f120m.kds\debug\psp\psp.a(io_pntf.o)
_io_i2c_int_close                                 ..\..\..\..\..\..\..\lib\twrk70f120m.kds\debug\bsp\bsp.a(i2c_int.o)
_io_i2c_int_install                               ..\..\..\..\..\..\..\lib\twrk70f120m.kds\debug\bsp\bsp.a(i2c_int.o)
                                                  ..\..\..\..\..\..\..\lib\twrk70f120m.kds\debug\bsp\bsp.a(i2c_int_ki2c_legacy.o)
_io_i2c_int_ioctl                                 ..\..\..\..\..\..\..\lib\twrk70f120m.kds\debug\bsp\bsp.a(i2c_int.o)
_io_i2c_int_open                                  ..\..\..\..\..\..\..\lib\twrk70f120m.kds\debug\bsp\bsp.a(i2c_int.o)
_io_i2c_int_read                                  ..\..\..\..\..\..\..\lib\twrk70f120m.kds\debug\bsp\bsp.a(i2c_int.o)
_io_i2c_int_uninstall                             ..\..\..\..\..\..\..\lib\twrk70f120m.kds\debug\bsp\bsp.a(i2c_int.o)
_io_i2c_int_write                                 ..\..\..\..\..\..\..\lib\twrk70f120m.kds\debug\bsp\bsp.a(i2c_int.o)
_io_i2c_polled_close                              ..\..\..\..\..\..\..\lib\twrk70f120m.kds\debug\bsp\bsp.a(i2c_pol.o)
_io_i2c_polled_install                            ..\..\..\..\..\..\..\lib\twrk70f120m.kds\debug\bsp\bsp.a(i2c_pol.o)
                                                  ..\..\..\..\..\..\..\lib\twrk70f120m.kds\debug\bsp\bsp.a(i2c_pol_ki2c.o)
_io_i2c_polled_ioctl                              ..\..\..\..\..\..\..\lib\twrk70f120m.kds\debug\bsp\bsp.a(i2c_pol.o)
_io_i2c_polled_open                               ..\..\..\..\..\..\..\lib\twrk70f120m.kds\debug\bsp\bsp.a(i2c_pol.o)
_io_i2c_polled_read                               ..\..\..\..\..\..\..\lib\twrk70f120m.kds\debug\bsp\bsp.a(i2c_pol.o)
_io_i2c_polled_uninstall                          ..\..\..\..\..\..\..\lib\twrk70f120m.kds\debug\bsp\bsp.a(i2c_pol.o)
_io_i2c_polled_write                              ..\..\..\..\..\..\..\lib\twrk70f120m.kds\debug\bsp\bsp.a(i2c_pol.o)
_io_init                                          ..\..\..\..\..\..\..\lib\twrk70f120m.kds\debug\psp\psp.a(io_init.o)
                                                  ..\..\..\..\..\..\..\lib\twrk70f120m.kds\debug\bsp\bsp.a(init_bsp.o)
_io_modf                                          ..\..\..\..\..\..\..\lib\twrk70f120m.kds\debug\psp\psp.a(io_fp.o)
_io_printf                                        ..\..\..\..\..\..\..\lib\twrk70f120m.kds\debug\psp\psp.a(io_pntf.o)
                                                  ..\..\..\..\..\..\..\lib\twrk70f120m.kds\debug\psp\psp.a(psp_tipr.o)
                                                  ..\..\..\..\..\..\..\lib\twrk70f120m.kds\debug\psp\psp.a(klog.o)
                                                  Sources\gpio.o
_io_sai_dma_close                                 ..\..\..\..\..\..\..\lib\twrk70f120m.kds\debug\bsp\bsp.a(sai_dma.o)
_io_sai_dma_install                               ..\..\..\..\..\..\..\lib\twrk70f120m.kds\debug\bsp\bsp.a(sai_dma.o)
                                                  ..\..\..\..\..\..\..\lib\twrk70f120m.kds\debug\bsp\bsp.a(init_bsp.o)
_io_sai_dma_ioctl                                 ..\..\..\..\..\..\..\lib\twrk70f120m.kds\debug\bsp\bsp.a(sai_dma.o)
_io_sai_dma_open                                  ..\..\..\..\..\..\..\lib\twrk70f120m.kds\debug\bsp\bsp.a(sai_dma.o)
_io_sai_dma_uninstall                             ..\..\..\..\..\..\..\lib\twrk70f120m.kds\debug\bsp\bsp.a(sai_dma.o)
_io_serial_default_init                           ..\..\..\..\..\..\..\lib\twrk70f120m.kds\debug\bsp\bsp.a(io_sinit.o)
                                                  ..\..\..\..\..\..\..\lib\twrk70f120m.kds\debug\bsp\bsp.a(init_bsp.o)
_io_serial_polled_close                           ..\..\..\..\..\..\..\lib\twrk70f120m.kds\debug\bsp\bsp.a(serl_pol.o)
_io_serial_polled_install                         ..\..\..\..\..\..\..\lib\twrk70f120m.kds\debug\bsp\bsp.a(serl_pol.o)
                                                  ..\..\..\..\..\..\..\lib\twrk70f120m.kds\debug\bsp\bsp.a(serl_pol_kuart.o)
_io_serial_polled_ioctl                           ..\..\..\..\..\..\..\lib\twrk70f120m.kds\debug\bsp\bsp.a(serl_pol.o)
_io_serial_polled_open                            ..\..\..\..\..\..\..\lib\twrk70f120m.kds\debug\bsp\bsp.a(serl_pol.o)
_io_serial_polled_read                            ..\..\..\..\..\..\..\lib\twrk70f120m.kds\debug\bsp\bsp.a(serl_pol.o)
_io_serial_polled_uninstall                       ..\..\..\..\..\..\..\lib\twrk70f120m.kds\debug\bsp\bsp.a(serl_pol.o)
_io_serial_polled_write                           ..\..\..\..\..\..\..\lib\twrk70f120m.kds\debug\bsp\bsp.a(serl_pol.o)
_io_strtod                                        ..\..\..\..\..\..\..\lib\twrk70f120m.kds\debug\psp\psp.a(io_fp.o)
_khci0_dev_init_param                             ..\..\..\..\..\..\..\lib\twrk70f120m.kds\debug\bsp\bsp.a(init_usb.o)
                                                  ..\..\..\..\..\..\..\lib\twrk70f120m.kds\debug\bsp\bsp.a(init_gpio.o)
_khci0_host_init_param                            ..\..\..\..\..\..\..\lib\twrk70f120m.kds\debug\bsp\bsp.a(init_usb.o)
                                                  ..\..\..\..\..\..\..\lib\twrk70f120m.kds\debug\bsp\bsp.a(init_gpio.o)
_ki2c_int_deinit                                  ..\..\..\..\..\..\..\lib\twrk70f120m.kds\debug\bsp\bsp.a(i2c_int_ki2c_legacy.o)
_ki2c_int_init                                    ..\..\..\..\..\..\..\lib\twrk70f120m.kds\debug\bsp\bsp.a(i2c_int_ki2c_legacy.o)
_ki2c_int_install                                 ..\..\..\..\..\..\..\lib\twrk70f120m.kds\debug\bsp\bsp.a(i2c_int_ki2c_legacy.o)
                                                  ..\..\..\..\..\..\..\lib\twrk70f120m.kds\debug\bsp\bsp.a(init_bsp.o)
_ki2c_int_rx                                      ..\..\..\..\..\..\..\lib\twrk70f120m.kds\debug\bsp\bsp.a(i2c_int_ki2c_legacy.o)
_ki2c_int_tx                                      ..\..\..\..\..\..\..\lib\twrk70f120m.kds\debug\bsp\bsp.a(i2c_int_ki2c_legacy.o)
_ki2c_polled_deinit                               ..\..\..\..\..\..\..\lib\twrk70f120m.kds\debug\bsp\bsp.a(i2c_pol_ki2c.o)
_ki2c_polled_init                                 ..\..\..\..\..\..\..\lib\twrk70f120m.kds\debug\bsp\bsp.a(i2c_pol_ki2c.o)
                                                  ..\..\..\..\..\..\..\lib\twrk70f120m.kds\debug\bsp\bsp.a(i2c_int_ki2c_legacy.o)
_ki2c_polled_install                              ..\..\..\..\..\..\..\lib\twrk70f120m.kds\debug\bsp\bsp.a(i2c_pol_ki2c.o)
                                                  ..\..\..\..\..\..\..\lib\twrk70f120m.kds\debug\bsp\bsp.a(init_bsp.o)
_ki2c_polled_ioctl                                ..\..\..\..\..\..\..\lib\twrk70f120m.kds\debug\bsp\bsp.a(i2c_pol_ki2c.o)
                                                  ..\..\..\..\..\..\..\lib\twrk70f120m.kds\debug\bsp\bsp.a(i2c_int_ki2c_legacy.o)
_ki2c_polled_rx                                   ..\..\..\..\..\..\..\lib\twrk70f120m.kds\debug\bsp\bsp.a(i2c_pol_ki2c.o)
_ki2c_polled_tx                                   ..\..\..\..\..\..\..\lib\twrk70f120m.kds\debug\bsp\bsp.a(i2c_pol_ki2c.o)
_ki2s_find_mclk_freq_div                          ..\..\..\..\..\..\..\lib\twrk70f120m.kds\debug\bsp\bsp.a(sai_dma_ksai.o)
_ki2s_set_bclk_mode                               ..\..\..\..\..\..\..\lib\twrk70f120m.kds\debug\bsp\bsp.a(sai_dma_ksai.o)
_ki2s_set_master_mode                             ..\..\..\..\..\..\..\lib\twrk70f120m.kds\debug\bsp\bsp.a(sai_dma_ksai.o)
_ki2s_set_slave_mode                              ..\..\..\..\..\..\..\lib\twrk70f120m.kds\debug\bsp\bsp.a(sai_dma_ksai.o)
_kinetis_mpu_add_region                           ..\..\..\..\..\..\..\lib\twrk70f120m.kds\debug\psp\psp.a(kinetis_mpu.o)
_kinetis_mpu_disable                              ..\..\..\..\..\..\..\lib\twrk70f120m.kds\debug\psp\psp.a(kinetis_mpu.o)
                                                  ..\..\..\..\..\..\..\lib\twrk70f120m.kds\debug\bsp\bsp.a(init_bsp.o)
_kinetis_mpu_enable                               ..\..\..\..\..\..\..\lib\twrk70f120m.kds\debug\psp\psp.a(kinetis_mpu.o)
_kinetis_mpu_init                                 ..\..\..\..\..\..\..\lib\twrk70f120m.kds\debug\psp\psp.a(kinetis_mpu.o)
_kinetis_mpu_sw_check                             ..\..\..\..\..\..\..\lib\twrk70f120m.kds\debug\psp\psp.a(kinetis_mpu.o)
_kinetis_mpu_sw_check_mask                        ..\..\..\..\..\..\..\lib\twrk70f120m.kds\debug\psp\psp.a(kinetis_mpu.o)
_klog_block_internal                              ..\..\..\..\..\..\..\lib\twrk70f120m.kds\debug\psp\psp.a(klog.o)
                                                  ..\..\..\..\..\..\..\lib\twrk70f120m.kds\debug\psp\psp.a(dispatch.o)
_klog_context_switch_internal                     ..\..\..\..\..\..\..\lib\twrk70f120m.kds\debug\psp\psp.a(klog.o)
                                                  ..\..\..\..\..\..\..\lib\twrk70f120m.kds\debug\psp\psp.a(dispatch.o)
_klog_control                                     ..\..\..\..\..\..\..\lib\twrk70f120m.kds\debug\psp\psp.a(klog.o)
_klog_create                                      ..\..\..\..\..\..\..\lib\twrk70f120m.kds\debug\psp\psp.a(klog.o)
_klog_create_at                                   ..\..\..\..\..\..\..\lib\twrk70f120m.kds\debug\psp\psp.a(klog.o)
_klog_disable_logging_task                        ..\..\..\..\..\..\..\lib\twrk70f120m.kds\debug\psp\psp.a(klog.o)
_klog_display                                     ..\..\..\..\..\..\..\lib\twrk70f120m.kds\debug\psp\psp.a(klog.o)
_klog_enable_logging_task                         ..\..\..\..\..\..\..\lib\twrk70f120m.kds\debug\psp\psp.a(klog.o)
_klog_execute_scheduler_internal                  ..\..\..\..\..\..\..\lib\twrk70f120m.kds\debug\psp\psp.a(klog.o)
_klog_get_function_name2_internal                 ..\..\..\..\..\..\..\lib\twrk70f120m.kds\debug\psp\psp.a(klog.o)
_klog_get_function_name_internal                  ..\..\..\..\..\..\..\lib\twrk70f120m.kds\debug\psp\psp.a(klog.o)
_klog_get_interrupt_stack_usage                   ..\..\..\..\..\..\..\lib\twrk70f120m.kds\debug\psp\psp.a(klog.o)
_klog_get_task_stack_usage                        ..\..\..\..\..\..\..\lib\twrk70f120m.kds\debug\psp\psp.a(klog.o)
_klog_get_task_stack_usage_internal               ..\..\..\..\..\..\..\lib\twrk70f120m.kds\debug\psp\psp.a(klog.o)
_klog_isr_end_internal                            ..\..\..\..\..\..\..\lib\twrk70f120m.kds\debug\psp\psp.a(klog.o)
                                                  ..\..\..\..\..\..\..\lib\twrk70f120m.kds\debug\psp\psp.a(dispatch.o)
_klog_isr_start_internal                          ..\..\..\..\..\..\..\lib\twrk70f120m.kds\debug\psp\psp.a(klog.o)
                                                  ..\..\..\..\..\..\..\lib\twrk70f120m.kds\debug\psp\psp.a(dispatch.o)
_klog_log                                         ..\..\..\..\..\..\..\lib\twrk70f120m.kds\debug\psp\psp.a(klog.o)
                                                  ..\..\..\..\..\..\..\lib\twrk70f120m.kds\debug\psp\psp.a(lwevent.o)
                                                  ..\..\..\..\..\..\..\lib\twrk70f120m.kds\debug\psp\psp.a(int.o)
                                                  ..\..\..\..\..\..\..\lib\twrk70f120m.kds\debug\psp\psp.a(lwsem.o)
                                                  ..\..\..\..\..\..\..\lib\twrk70f120m.kds\debug\psp\psp.a(mem.o)
                                                  ..\..\..\..\..\..\..\lib\twrk70f120m.kds\debug\psp\psp.a(mqx.o)
                                                  ..\..\..\..\..\..\..\lib\twrk70f120m.kds\debug\psp\psp.a(sched.o)
                                                  ..\..\..\..\..\..\..\lib\twrk70f120m.kds\debug\psp\psp.a(task.o)
                                                  ..\..\..\..\..\..\..\lib\twrk70f120m.kds\debug\psp\psp.a(time.o)
_klog_log_function                                ..\..\..\..\..\..\..\lib\twrk70f120m.kds\debug\psp\psp.a(klog.o)
_klog_show_stack_usage                            ..\..\..\..\..\..\..\lib\twrk70f120m.kds\debug\psp\psp.a(klog.o)
_klog_yield_internal                              ..\..\..\..\..\..\..\lib\twrk70f120m.kds\debug\psp\psp.a(klog.o)
                                                  ..\..\..\..\..\..\..\lib\twrk70f120m.kds\debug\psp\psp.a(sched.o)
_ksai_dma_deinit                                  ..\..\..\..\..\..\..\lib\twrk70f120m.kds\debug\bsp\bsp.a(sai_dma_ksai.o)
                                                  ..\..\..\..\..\..\..\lib\twrk70f120m.kds\debug\bsp\bsp.a(init_sai.o)
_ksai_dma_init                                    ..\..\..\..\..\..\..\lib\twrk70f120m.kds\debug\bsp\bsp.a(sai_dma_ksai.o)
                                                  ..\..\..\..\..\..\..\lib\twrk70f120m.kds\debug\bsp\bsp.a(init_sai.o)
_ksai_dma_ioctl                                   ..\..\..\..\..\..\..\lib\twrk70f120m.kds\debug\bsp\bsp.a(sai_dma_ksai.o)
                                                  ..\..\..\..\..\..\..\lib\twrk70f120m.kds\debug\bsp\bsp.a(init_sai.o)
_ksai_hw_init                                     ..\..\..\..\..\..\..\lib\twrk70f120m.kds\debug\bsp\bsp.a(sai_dma_ksai.o)
_ksai_rx_dma_irq_handler                          ..\..\..\..\..\..\..\lib\twrk70f120m.kds\debug\bsp\bsp.a(sai_dma_ksai.o)
_ksai_rx_fifoerr_irq_handler                      ..\..\..\..\..\..\..\lib\twrk70f120m.kds\debug\bsp\bsp.a(sai_dma_ksai.o)
_ksai_tx_dma_irq_handler                          ..\..\..\..\..\..\..\lib\twrk70f120m.kds\debug\bsp\bsp.a(sai_dma_ksai.o)
_ksai_tx_fifoerr_irq_handler                      ..\..\..\..\..\..\..\lib\twrk70f120m.kds\debug\bsp\bsp.a(sai_dma_ksai.o)
_kuart_change_baudrate                            ..\..\..\..\..\..\..\lib\twrk70f120m.kds\debug\bsp\bsp.a(serl_pol_kuart.o)
_kuart_polled_deinit                              ..\..\..\..\..\..\..\lib\twrk70f120m.kds\debug\bsp\bsp.a(serl_pol_kuart.o)
_kuart_polled_getc                                ..\..\..\..\..\..\..\lib\twrk70f120m.kds\debug\bsp\bsp.a(serl_pol_kuart.o)
_kuart_polled_init                                ..\..\..\..\..\..\..\lib\twrk70f120m.kds\debug\bsp\bsp.a(serl_pol_kuart.o)
_kuart_polled_install                             ..\..\..\..\..\..\..\lib\twrk70f120m.kds\debug\bsp\bsp.a(serl_pol_kuart.o)
                                                  ..\..\..\..\..\..\..\lib\twrk70f120m.kds\debug\bsp\bsp.a(init_bsp.o)
_kuart_polled_ioctl                               ..\..\..\..\..\..\..\lib\twrk70f120m.kds\debug\bsp\bsp.a(serl_pol_kuart.o)
_kuart_polled_putc                                ..\..\..\..\..\..\..\lib\twrk70f120m.kds\debug\bsp\bsp.a(serl_pol_kuart.o)
_kuart_polled_status                              ..\..\..\..\..\..\..\lib\twrk70f120m.kds\debug\bsp\bsp.a(serl_pol_kuart.o)
_localeconv_r                                     ..\..\..\..\..\..\..\..\KDS_v3\toolchain\arm-none-eabi\lib\armv7e-m\fpu\libc.a(lib_a-locale.o)
                                                  ..\..\..\..\..\..\..\..\KDS_v3\toolchain\arm-none-eabi\lib\armv7e-m\fpu\libc.a(lib_a-gdtoa-gethex.o)
                                                  ..\..\..\..\..\..\..\..\KDS_v3\toolchain\arm-none-eabi\lib\armv7e-m\fpu\libc.a(lib_a-strtod.o)
_lwevent_clear                                    ..\..\..\..\..\..\..\lib\twrk70f120m.kds\debug\psp\psp.a(lwevent.o)
                                                  ..\..\..\..\..\..\..\lib\twrk70f120m.kds\debug\bsp\bsp.a(esdhc.o)
_lwevent_create                                   ..\..\..\..\..\..\..\lib\twrk70f120m.kds\debug\psp\psp.a(lwevent.o)
                                                  ..\..\..\..\..\..\..\lib\twrk70f120m.kds\debug\bsp\bsp.a(esdhc.o)
_lwevent_create_internal                          ..\..\..\..\..\..\..\lib\twrk70f120m.kds\debug\psp\psp.a(lwevent.o)
_lwevent_destroy                                  ..\..\..\..\..\..\..\lib\twrk70f120m.kds\debug\psp\psp.a(lwevent.o)
                                                  ..\..\..\..\..\..\..\lib\twrk70f120m.kds\debug\bsp\bsp.a(esdhc.o)
_lwevent_destroy_internal                         ..\..\..\..\..\..\..\lib\twrk70f120m.kds\debug\psp\psp.a(lwevent.o)
_lwevent_get_signalled                            ..\..\..\..\..\..\..\lib\twrk70f120m.kds\debug\psp\psp.a(lwevent.o)
                                                  ..\..\..\..\..\..\..\lib\twrk70f120m.kds\debug\bsp\bsp.a(esdhc.o)
_lwevent_set                                      ..\..\..\..\..\..\..\lib\twrk70f120m.kds\debug\psp\psp.a(lwevent.o)
                                                  ..\..\..\..\..\..\..\lib\twrk70f120m.kds\debug\bsp\bsp.a(adt_kpdb.o)
                                                  ..\..\..\..\..\..\..\lib\twrk70f120m.kds\debug\bsp\bsp.a(esdhc.o)
_lwevent_set_auto_clear                           ..\..\..\..\..\..\..\lib\twrk70f120m.kds\debug\psp\psp.a(lwevent.o)
_lwevent_test                                     ..\..\..\..\..\..\..\lib\twrk70f120m.kds\debug\psp\psp.a(lwevent.o)
_lwevent_wait_for                                 ..\..\..\..\..\..\..\lib\twrk70f120m.kds\debug\psp\psp.a(lwevent.o)
_lwevent_wait_internal                            ..\..\..\..\..\..\..\lib\twrk70f120m.kds\debug\psp\psp.a(lwevent.o)
_lwevent_wait_ticks                               ..\..\..\..\..\..\..\lib\twrk70f120m.kds\debug\psp\psp.a(lwevent.o)
                                                  ..\..\..\..\..\..\..\lib\twrk70f120m.kds\debug\bsp\bsp.a(esdhc.o)
_lwevent_wait_until                               ..\..\..\..\..\..\..\lib\twrk70f120m.kds\debug\psp\psp.a(lwevent.o)
_lwlog_calculate_size                             ..\..\..\..\..\..\..\lib\twrk70f120m.kds\debug\psp\psp.a(lwlog.o)
_lwlog_create                                     ..\..\..\..\..\..\..\lib\twrk70f120m.kds\debug\psp\psp.a(lwlog.o)
                                                  ..\..\..\..\..\..\..\lib\twrk70f120m.kds\debug\psp\psp.a(klog.o)
_lwlog_create_at                                  ..\..\..\..\..\..\..\lib\twrk70f120m.kds\debug\psp\psp.a(lwlog.o)
                                                  ..\..\..\..\..\..\..\lib\twrk70f120m.kds\debug\psp\psp.a(klog.o)
_lwlog_create_component                           ..\..\..\..\..\..\..\lib\twrk70f120m.kds\debug\psp\psp.a(lwlog.o)
_lwlog_create_internal                            ..\..\..\..\..\..\..\lib\twrk70f120m.kds\debug\psp\psp.a(lwlog.o)
_lwlog_destroy                                    ..\..\..\..\..\..\..\lib\twrk70f120m.kds\debug\psp\psp.a(lwlog.o)
_lwlog_disable                                    ..\..\..\..\..\..\..\lib\twrk70f120m.kds\debug\psp\psp.a(lwlog.o)
_lwlog_enable                                     ..\..\..\..\..\..\..\lib\twrk70f120m.kds\debug\psp\psp.a(lwlog.o)
_lwlog_read                                       ..\..\..\..\..\..\..\lib\twrk70f120m.kds\debug\psp\psp.a(lwlog.o)
                                                  ..\..\..\..\..\..\..\lib\twrk70f120m.kds\debug\psp\psp.a(klog.o)
_lwlog_reset                                      ..\..\..\..\..\..\..\lib\twrk70f120m.kds\debug\psp\psp.a(lwlog.o)
_lwlog_test                                       ..\..\..\..\..\..\..\lib\twrk70f120m.kds\debug\psp\psp.a(lwlog.o)
_lwlog_write                                      ..\..\..\..\..\..\..\lib\twrk70f120m.kds\debug\psp\psp.a(lwlog.o)
                                                  ..\..\..\..\..\..\..\lib\twrk70f120m.kds\debug\psp\psp.a(klog.o)
_lwlog_write_internal                             ..\..\..\..\..\..\..\lib\twrk70f120m.kds\debug\psp\psp.a(lwlog.o)
                                                  ..\..\..\..\..\..\..\lib\twrk70f120m.kds\debug\psp\psp.a(klog.o)
_lwsem_create                                     ..\..\..\..\..\..\..\lib\twrk70f120m.kds\debug\psp\psp.a(lwsem.o)
                                                  ..\..\..\..\..\..\..\lib\twrk70f120m.kds\debug\psp\psp.a(io_init.o)
                                                  ..\..\..\..\..\..\..\lib\twrk70f120m.kds\debug\bsp\bsp.a(sai_dma_ksai.o)
                                                  ..\..\..\..\..\..\..\lib\twrk70f120m.kds\debug\bsp\bsp.a(i2c_int_ki2c_legacy.o)
                                                  ..\..\..\..\..\..\..\lib\twrk70f120m.kds\debug\bsp\bsp.a(sai_dma.o)
                                                  ..\..\..\..\..\..\..\lib\twrk70f120m.kds\debug\psp\psp.a(mem.o)
                                                  ..\..\..\..\..\..\..\lib\twrk70f120m.kds\debug\psp\psp.a(mqx.o)
                                                  Sources\gpio.o
_lwsem_create_hidden                              ..\..\..\..\..\..\..\lib\twrk70f120m.kds\debug\psp\psp.a(lwsem.o)
_lwsem_create_internal                            ..\..\..\..\..\..\..\lib\twrk70f120m.kds\debug\psp\psp.a(lwsem.o)
_lwsem_destroy                                    ..\..\..\..\..\..\..\lib\twrk70f120m.kds\debug\psp\psp.a(lwsem.o)
                                                  ..\..\..\..\..\..\..\lib\twrk70f120m.kds\debug\bsp\bsp.a(sai_dma_ksai.o)
                                                  ..\..\..\..\..\..\..\lib\twrk70f120m.kds\debug\bsp\bsp.a(i2c_int_ki2c_legacy.o)
                                                  ..\..\..\..\..\..\..\lib\twrk70f120m.kds\debug\bsp\bsp.a(sai_dma.o)
_lwsem_destroy_internal                           ..\..\..\..\..\..\..\lib\twrk70f120m.kds\debug\psp\psp.a(lwsem.o)
_lwsem_is_valid                                   ..\..\..\..\..\..\..\lib\twrk70f120m.kds\debug\psp\psp.a(lwsem.o)
_lwsem_poll                                       ..\..\..\..\..\..\..\lib\twrk70f120m.kds\debug\psp\psp.a(lwsem.o)
_lwsem_post                                       ..\..\..\..\..\..\..\lib\twrk70f120m.kds\debug\psp\psp.a(lwsem.o)
                                                  ..\..\..\..\..\..\..\lib\twrk70f120m.kds\debug\psp\psp.a(io_fopen.o)
                                                  ..\..\..\..\..\..\..\lib\twrk70f120m.kds\debug\psp\psp.a(io_instx.o)
                                                  ..\..\..\..\..\..\..\lib\twrk70f120m.kds\debug\bsp\bsp.a(sai_dma_ksai.o)
                                                  ..\..\..\..\..\..\..\lib\twrk70f120m.kds\debug\bsp\bsp.a(i2c_int_ki2c_legacy.o)
                                                  ..\..\..\..\..\..\..\lib\twrk70f120m.kds\debug\psp\psp.a(lwlog.o)
                                                  ..\..\..\..\..\..\..\lib\twrk70f120m.kds\debug\psp\psp.a(inittask.o)
                                                  ..\..\..\..\..\..\..\lib\twrk70f120m.kds\debug\psp\psp.a(klog.o)
                                                  ..\..\..\..\..\..\..\lib\twrk70f120m.kds\debug\psp\psp.a(mem.o)
                                                  ..\..\..\..\..\..\..\lib\twrk70f120m.kds\debug\psp\psp.a(task.o)
                                                  Sources\gpio.o
_lwsem_test                                       ..\..\..\..\..\..\..\lib\twrk70f120m.kds\debug\psp\psp.a(lwsem.o)
_lwsem_wait                                       ..\..\..\..\..\..\..\lib\twrk70f120m.kds\debug\psp\psp.a(lwsem.o)
                                                  ..\..\..\..\..\..\..\lib\twrk70f120m.kds\debug\psp\psp.a(io_fopen.o)
                                                  ..\..\..\..\..\..\..\lib\twrk70f120m.kds\debug\psp\psp.a(io_instx.o)
                                                  ..\..\..\..\..\..\..\lib\twrk70f120m.kds\debug\bsp\bsp.a(sai_dma_ksai.o)
                                                  ..\..\..\..\..\..\..\lib\twrk70f120m.kds\debug\bsp\bsp.a(i2c_int_ki2c_legacy.o)
                                                  ..\..\..\..\..\..\..\lib\twrk70f120m.kds\debug\psp\psp.a(lwlog.o)
                                                  ..\..\..\..\..\..\..\lib\twrk70f120m.kds\debug\psp\psp.a(inittask.o)
                                                  ..\..\..\..\..\..\..\lib\twrk70f120m.kds\debug\psp\psp.a(klog.o)
                                                  ..\..\..\..\..\..\..\lib\twrk70f120m.kds\debug\psp\psp.a(mem.o)
                                                  ..\..\..\..\..\..\..\lib\twrk70f120m.kds\debug\psp\psp.a(task.o)
                                                  Sources\gpio.o
_lwsem_wait_for                                   ..\..\..\..\..\..\..\lib\twrk70f120m.kds\debug\psp\psp.a(lwsem.o)
_lwsem_wait_ticks                                 ..\..\..\..\..\..\..\lib\twrk70f120m.kds\debug\psp\psp.a(lwsem.o)
_lwsem_wait_timed_internal                        ..\..\..\..\..\..\..\lib\twrk70f120m.kds\debug\psp\psp.a(lwsem.o)
_lwsem_wait_until                                 ..\..\..\..\..\..\..\lib\twrk70f120m.kds\debug\psp\psp.a(lwsem.o)
_malloc_r                                         ..\..\..\..\..\..\..\lib\twrk70f120m.kds\debug\psp\psp.a(comp.o)
                                                  ..\..\..\..\..\..\..\..\KDS_v3\toolchain\arm-none-eabi\lib\armv7e-m\fpu\libc.a(lib_a-callocr.o)
_mem_alloc                                        ..\..\..\..\..\..\..\lib\twrk70f120m.kds\debug\psp\psp.a(mem.o)
                                                  ..\..\..\..\..\..\..\lib\twrk70f120m.kds\debug\psp\psp.a(task.o)
_mem_alloc_align                                  ..\..\..\..\..\..\..\lib\twrk70f120m.kds\debug\psp\psp.a(mem.o)
_mem_alloc_align_from                             ..\..\..\..\..\..\..\lib\twrk70f120m.kds\debug\psp\psp.a(mem.o)
_mem_alloc_align_uncached                         ..\..\..\..\..\..\..\lib\twrk70f120m.kds\debug\psp\psp.a(mem.o)
_mem_alloc_at                                     ..\..\..\..\..\..\..\lib\twrk70f120m.kds\debug\psp\psp.a(mem.o)
                                                  ..\..\..\..\..\..\..\lib\twrk70f120m.kds\debug\bsp\bsp.a(init_bsp.o)
_mem_alloc_at_internal                            ..\..\..\..\..\..\..\lib\twrk70f120m.kds\debug\psp\psp.a(mem.o)
_mem_alloc_extend_internal                        ..\..\..\..\..\..\..\lib\twrk70f120m.kds\debug\psp\psp.a(mem.o)
_mem_alloc_from                                   ..\..\..\..\..\..\..\lib\twrk70f120m.kds\debug\psp\psp.a(mem.o)
_mem_alloc_internal                               ..\..\..\..\..\..\..\lib\twrk70f120m.kds\debug\psp\psp.a(mem.o)
_mem_alloc_internal_align                         ..\..\..\..\..\..\..\lib\twrk70f120m.kds\debug\psp\psp.a(mem.o)
_mem_alloc_system                                 ..\..\..\..\..\..\..\lib\twrk70f120m.kds\debug\psp\psp.a(mem.o)
                                                  ..\..\..\..\..\..\..\lib\twrk70f120m.kds\debug\bsp\bsp.a(adc.o)
                                                  ..\..\..\..\..\..\..\lib\twrk70f120m.kds\debug\bsp\bsp.a(esdhc.o)
                                                  ..\..\..\..\..\..\..\lib\twrk70f120m.kds\debug\bsp\bsp.a(serl_pol.o)
                                                  ..\..\..\..\..\..\..\lib\twrk70f120m.kds\debug\psp\psp.a(comp.o)
                                                  ..\..\..\..\..\..\..\lib\twrk70f120m.kds\debug\psp\psp.a(int.o)
                                                  ..\..\..\..\..\..\..\lib\twrk70f120m.kds\debug\psp\psp.a(mqx.o)
_mem_alloc_system_align                           ..\..\..\..\..\..\..\lib\twrk70f120m.kds\debug\psp\psp.a(mem.o)
                                                  ..\..\..\..\..\..\..\lib\twrk70f120m.kds\debug\bsp\bsp.a(edma.o)
_mem_alloc_system_align_from                      ..\..\..\..\..\..\..\lib\twrk70f120m.kds\debug\psp\psp.a(mem.o)
_mem_alloc_system_from                            ..\..\..\..\..\..\..\lib\twrk70f120m.kds\debug\psp\psp.a(mem.o)
_mem_alloc_system_uncached                        ..\..\..\..\..\..\..\lib\twrk70f120m.kds\debug\psp\psp.a(mem.o)
_mem_alloc_system_zero                            ..\..\..\..\..\..\..\lib\twrk70f120m.kds\debug\psp\psp.a(mem.o)
                                                  ..\..\..\..\..\..\..\lib\twrk70f120m.kds\debug\psp\psp.a(io_fopen.o)
                                                  ..\..\..\..\..\..\..\lib\twrk70f120m.kds\debug\psp\psp.a(io_instx.o)
                                                  ..\..\..\..\..\..\..\lib\twrk70f120m.kds\debug\bsp\bsp.a(edma.o)
                                                  ..\..\..\..\..\..\..\lib\twrk70f120m.kds\debug\bsp\bsp.a(i2c_int.o)
                                                  ..\..\..\..\..\..\..\lib\twrk70f120m.kds\debug\bsp\bsp.a(i2c_pol.o)
                                                  ..\..\..\..\..\..\..\lib\twrk70f120m.kds\debug\bsp\bsp.a(esdhc.o)
                                                  ..\..\..\..\..\..\..\lib\twrk70f120m.kds\debug\bsp\bsp.a(i2c_pol_ki2c.o)
                                                  ..\..\..\..\..\..\..\lib\twrk70f120m.kds\debug\bsp\bsp.a(sai_dma.o)
                                                  ..\..\..\..\..\..\..\lib\twrk70f120m.kds\debug\bsp\bsp.a(serl_pol.o)
                                                  ..\..\..\..\..\..\..\lib\twrk70f120m.kds\debug\bsp\bsp.a(serl_pol_kuart.o)
                                                  ..\..\..\..\..\..\..\lib\twrk70f120m.kds\debug\psp\psp.a(comp.o)
                                                  ..\..\..\..\..\..\..\lib\twrk70f120m.kds\debug\psp\psp.a(lwlog.o)
                                                  ..\..\..\..\..\..\..\lib\twrk70f120m.kds\debug\psp\psp.a(int.o)
_mem_alloc_system_zero_from                       ..\..\..\..\..\..\..\lib\twrk70f120m.kds\debug\psp\psp.a(mem.o)
_mem_alloc_system_zero_uncached                   ..\..\..\..\..\..\..\lib\twrk70f120m.kds\debug\psp\psp.a(mem.o)
                                                  ..\..\..\..\..\..\..\lib\twrk70f120m.kds\debug\bsp\bsp.a(sai_dma_ksai.o)
_mem_alloc_uncached                               ..\..\..\..\..\..\..\lib\twrk70f120m.kds\debug\psp\psp.a(mem.o)
                                                  ..\..\..\..\..\..\..\lib\twrk70f120m.kds\debug\psp\psp.a(mqx.o)
_mem_alloc_zero                                   ..\..\..\..\..\..\..\lib\twrk70f120m.kds\debug\psp\psp.a(mem.o)
                                                  ..\..\..\..\..\..\..\lib\twrk70f120m.kds\debug\bsp\bsp.a(adc.o)
                                                  ..\..\..\..\..\..\..\lib\twrk70f120m.kds\debug\psp\psp.a(sc_irdyq.o)
                                                  ..\..\..\..\..\..\..\lib\twrk70f120m.kds\debug\psp\psp.a(stack_bu.o)
                                                  ..\..\..\..\..\..\..\lib\twrk70f120m.kds\debug\psp\psp.a(task.o)
_mem_alloc_zero_from                              ..\..\..\..\..\..\..\lib\twrk70f120m.kds\debug\psp\psp.a(mem.o)
_mem_check_coalesce_internal                      ..\..\..\..\..\..\..\lib\twrk70f120m.kds\debug\psp\psp.a(mem.o)
_mem_create_pool                                  ..\..\..\..\..\..\..\lib\twrk70f120m.kds\debug\psp\psp.a(mem.o)
_mem_create_pool_internal                         ..\..\..\..\..\..\..\lib\twrk70f120m.kds\debug\psp\psp.a(mem.o)
_mem_extend                                       ..\..\..\..\..\..\..\lib\twrk70f120m.kds\debug\psp\psp.a(mem.o)
_mem_extend_pool                                  ..\..\..\..\..\..\..\lib\twrk70f120m.kds\debug\psp\psp.a(mem.o)
_mem_extend_pool_internal                         ..\..\..\..\..\..\..\lib\twrk70f120m.kds\debug\psp\psp.a(mem.o)
_mem_free                                         ..\..\..\..\..\..\..\lib\twrk70f120m.kds\debug\psp\psp.a(mem.o)
                                                  ..\..\..\..\..\..\..\lib\twrk70f120m.kds\debug\psp\psp.a(io_fopen.o)
                                                  ..\..\..\..\..\..\..\lib\twrk70f120m.kds\debug\bsp\bsp.a(edma.o)
                                                  ..\..\..\..\..\..\..\lib\twrk70f120m.kds\debug\bsp\bsp.a(i2c_int.o)
                                                  ..\..\..\..\..\..\..\lib\twrk70f120m.kds\debug\bsp\bsp.a(i2c_pol.o)
                                                  ..\..\..\..\..\..\..\lib\twrk70f120m.kds\debug\bsp\bsp.a(sai_dma_ksai.o)
                                                  ..\..\..\..\..\..\..\lib\twrk70f120m.kds\debug\bsp\bsp.a(adc.o)
                                                  ..\..\..\..\..\..\..\lib\twrk70f120m.kds\debug\bsp\bsp.a(esdhc.o)
                                                  ..\..\..\..\..\..\..\lib\twrk70f120m.kds\debug\bsp\bsp.a(i2c_int_ki2c_legacy.o)
                                                  ..\..\..\..\..\..\..\lib\twrk70f120m.kds\debug\bsp\bsp.a(i2c_pol_ki2c.o)
                                                  ..\..\..\..\..\..\..\lib\twrk70f120m.kds\debug\bsp\bsp.a(sai_dma.o)
                                                  ..\..\..\..\..\..\..\lib\twrk70f120m.kds\debug\bsp\bsp.a(serl_pol.o)
                                                  ..\..\..\..\..\..\..\lib\twrk70f120m.kds\debug\bsp\bsp.a(serl_pol_kuart.o)
                                                  ..\..\..\..\..\..\..\lib\twrk70f120m.kds\debug\psp\psp.a(comp.o)
                                                  ..\..\..\..\..\..\..\lib\twrk70f120m.kds\debug\psp\psp.a(lwlog.o)
                                                  ..\..\..\..\..\..\..\lib\twrk70f120m.kds\debug\psp\psp.a(task.o)
_mem_free_part                                    ..\..\..\..\..\..\..\lib\twrk70f120m.kds\debug\psp\psp.a(mem.o)
_mem_free_part_internal                           ..\..\..\..\..\..\..\lib\twrk70f120m.kds\debug\psp\psp.a(mem.o)
_mem_get_error                                    ..\..\..\..\..\..\..\lib\twrk70f120m.kds\debug\psp\psp.a(mem.o)
_mem_get_error_pool                               ..\..\..\..\..\..\..\lib\twrk70f120m.kds\debug\psp\psp.a(mem.o)
_mem_get_highwater                                ..\..\..\..\..\..\..\lib\twrk70f120m.kds\debug\psp\psp.a(mem.o)
_mem_get_highwater_pool                           ..\..\..\..\..\..\..\lib\twrk70f120m.kds\debug\psp\psp.a(mem.o)
_mem_get_next_block_internal                      ..\..\..\..\..\..\..\lib\twrk70f120m.kds\debug\psp\psp.a(mem.o)
                                                  ..\..\..\..\..\..\..\lib\twrk70f120m.kds\debug\psp\psp.a(task.o)
_mem_get_size                                     ..\..\..\..\..\..\..\lib\twrk70f120m.kds\debug\psp\psp.a(mem.o)
_mem_get_system_pool_id                           ..\..\..\..\..\..\..\lib\twrk70f120m.kds\debug\psp\psp.a(mem.o)
                                                  ..\..\..\..\..\..\..\lib\twrk70f120m.kds\debug\bsp\bsp.a(init_bsp.o)
_mem_get_type                                     ..\..\..\..\..\..\..\lib\twrk70f120m.kds\debug\psp\psp.a(mem.o)
_mem_init_internal                                ..\..\..\..\..\..\..\lib\twrk70f120m.kds\debug\psp\psp.a(mem.o)
                                                  ..\..\..\..\..\..\..\lib\twrk70f120m.kds\debug\psp\psp.a(mqx.o)
_mem_realloc                                      ..\..\..\..\..\..\..\lib\twrk70f120m.kds\debug\psp\psp.a(mem.o)
                                                  ..\..\..\..\..\..\..\lib\twrk70f120m.kds\debug\psp\psp.a(comp.o)
_mem_set_default_pool                             ..\..\..\..\..\..\..\lib\twrk70f120m.kds\debug\psp\psp.a(mem.o)
_mem_set_type                                     ..\..\..\..\..\..\..\lib\twrk70f120m.kds\debug\psp\psp.a(mem.o)
                                                  ..\..\..\..\..\..\..\lib\twrk70f120m.kds\debug\psp\psp.a(io_fopen.o)
                                                  ..\..\..\..\..\..\..\lib\twrk70f120m.kds\debug\psp\psp.a(io_instx.o)
                                                  ..\..\..\..\..\..\..\lib\twrk70f120m.kds\debug\bsp\bsp.a(i2c_int.o)
                                                  ..\..\..\..\..\..\..\lib\twrk70f120m.kds\debug\bsp\bsp.a(i2c_pol.o)
                                                  ..\..\..\..\..\..\..\lib\twrk70f120m.kds\debug\bsp\bsp.a(sai_dma_ksai.o)
                                                  ..\..\..\..\..\..\..\lib\twrk70f120m.kds\debug\bsp\bsp.a(esdhc.o)
                                                  ..\..\..\..\..\..\..\lib\twrk70f120m.kds\debug\bsp\bsp.a(i2c_pol_ki2c.o)
                                                  ..\..\..\..\..\..\..\lib\twrk70f120m.kds\debug\bsp\bsp.a(serl_pol.o)
                                                  ..\..\..\..\..\..\..\lib\twrk70f120m.kds\debug\psp\psp.a(lwlog.o)
                                                  ..\..\..\..\..\..\..\lib\twrk70f120m.kds\debug\psp\psp.a(sc_irdyq.o)
                                                  ..\..\..\..\..\..\..\lib\twrk70f120m.kds\debug\psp\psp.a(stack_bu.o)
                                                  ..\..\..\..\..\..\..\lib\twrk70f120m.kds\debug\psp\psp.a(int.o)
                                                  ..\..\..\..\..\..\..\lib\twrk70f120m.kds\debug\psp\psp.a(mqx.o)
                                                  ..\..\..\..\..\..\..\lib\twrk70f120m.kds\debug\psp\psp.a(task.o)
_mem_swap_endian                                  ..\..\..\..\..\..\..\lib\twrk70f120m.kds\debug\psp\psp.a(mem.o)
_mem_swap_endian_len                              ..\..\..\..\..\..\..\lib\twrk70f120m.kds\debug\psp\psp.a(mem.o)
_mem_test                                         ..\..\..\..\..\..\..\lib\twrk70f120m.kds\debug\psp\psp.a(mem.o)
_mem_test_all                                     ..\..\..\..\..\..\..\lib\twrk70f120m.kds\debug\psp\psp.a(mem.o)
_mem_test_and_set                                 ..\..\..\..\..\..\..\lib\twrk70f120m.kds\debug\psp\psp.a(dispatch.o)
_mem_test_pool                                    ..\..\..\..\..\..\..\lib\twrk70f120m.kds\debug\psp\psp.a(mem.o)
_mem_transfer                                     ..\..\..\..\..\..\..\lib\twrk70f120m.kds\debug\psp\psp.a(mem.o)
_mem_transfer_internal                            ..\..\..\..\..\..\..\lib\twrk70f120m.kds\debug\psp\psp.a(mem.o)
                                                  ..\..\..\..\..\..\..\lib\twrk70f120m.kds\debug\psp\psp.a(task.o)
_mem_transfer_td_internal                         ..\..\..\..\..\..\..\lib\twrk70f120m.kds\debug\psp\psp.a(mem.o)
                                                  ..\..\..\..\..\..\..\lib\twrk70f120m.kds\debug\psp\psp.a(stack_bu.o)
                                                  ..\..\..\..\..\..\..\lib\twrk70f120m.kds\debug\psp\psp.a(task.o)
_mem_verify                                       ..\..\..\..\..\..\..\lib\twrk70f120m.kds\debug\psp\psp.a(mem.o)
_mprec_log10                                      ..\..\..\..\..\..\..\..\KDS_v3\toolchain\arm-none-eabi\lib\armv7e-m\fpu\libc.a(lib_a-mprec.o)
_mqx                                              ..\..\..\..\..\..\..\lib\twrk70f120m.kds\debug\psp\psp.a(mqx.o)
                                                  ..\..\..\..\..\..\..\lib\twrk70f120m.kds\debug\bsp\bsp.a(mqx_main.o)
_mqx_api_call                                     ..\..\..\..\..\..\..\lib\twrk70f120m.kds\debug\psp\psp.a(dispatch.o)
_mqx_assert                                       ..\..\..\..\..\..\..\lib\twrk70f120m.kds\debug\psp\psp.a(k_assert.o)
                                                  ..\..\..\..\..\..\..\lib\twrk70f120m.kds\debug\psp\psp.a(mem.o)
                                                  ..\..\..\..\..\..\..\lib\twrk70f120m.kds\debug\psp\psp.a(task.o)
_mqx_bsp_revision                                 ..\..\..\..\..\..\..\lib\twrk70f120m.kds\debug\bsp\bsp.a(init_bsp.o)
_mqx_context_switch_internal                      ..\..\..\..\..\..\..\lib\twrk70f120m.kds\debug\psp\psp.a(mqx.o)
                                                  ..\..\..\..\..\..\..\lib\twrk70f120m.kds\debug\psp\psp.a(dispatch.o)
_mqx_copyright                                    ..\..\..\..\..\..\..\lib\twrk70f120m.kds\debug\psp\psp.a(mqx.o)
_mqx_date                                         ..\..\..\..\..\..\..\lib\twrk70f120m.kds\debug\psp\psp.a(mqx.o)
_mqx_exit                                         ..\..\..\..\..\..\..\lib\twrk70f120m.kds\debug\psp\psp.a(mqx.o)
                                                  ..\..\..\..\..\..\..\lib\twrk70f120m.kds\debug\psp\psp.a(inittask.o)
_mqx_fatal_error                                  ..\..\..\..\..\..\..\lib\twrk70f120m.kds\debug\psp\psp.a(mqx.o)
                                                  ..\..\..\..\..\..\..\lib\twrk70f120m.kds\debug\psp\psp.a(int_xcpt.o)
_mqx_generic_revision                             ..\..\..\..\..\..\..\lib\twrk70f120m.kds\debug\psp\psp.a(mqx.o)
_mqx_get_counter                                  ..\..\..\..\..\..\..\lib\twrk70f120m.kds\debug\psp\psp.a(mqx.o)
_mqx_get_cpu_type                                 ..\..\..\..\..\..\..\lib\twrk70f120m.kds\debug\psp\psp.a(mqx.o)
_mqx_get_exit_handler                             ..\..\..\..\..\..\..\lib\twrk70f120m.kds\debug\psp\psp.a(mqx.o)
_mqx_get_idle_loop_count                          ..\..\..\..\..\..\..\lib\twrk70f120m.kds\debug\psp\psp.a(mqx.o)
_mqx_get_initialization                           ..\..\..\..\..\..\..\lib\twrk70f120m.kds\debug\psp\psp.a(mqx.o)
_mqx_get_io_component_handle                      ..\..\..\..\..\..\..\lib\twrk70f120m.kds\debug\psp\psp.a(mqx.o)
_mqx_get_kernel_data                              ..\..\..\..\..\..\..\lib\twrk70f120m.kds\debug\psp\psp.a(mqx.o)
_mqx_get_system_task_id                           ..\..\..\..\..\..\..\lib\twrk70f120m.kds\debug\psp\psp.a(mqx.o)
_mqx_idle_task                                    ..\..\..\..\..\..\..\lib\twrk70f120m.kds\debug\psp\psp.a(idletask.o)
                                                  ..\..\..\..\..\..\..\lib\twrk70f120m.kds\debug\psp\psp.a(mqx.o)
_mqx_init_kernel_data_internal                    ..\..\..\..\..\..\..\lib\twrk70f120m.kds\debug\psp\psp.a(mqx.o)
_mqx_init_task                                    ..\..\..\..\..\..\..\lib\twrk70f120m.kds\debug\psp\psp.a(inittask.o)
                                                  ..\..\..\..\..\..\..\lib\twrk70f120m.kds\debug\psp\psp.a(mqx.o)
_mqx_io_revision                                  ..\..\..\..\..\..\..\lib\twrk70f120m.kds\debug\bsp\bsp.a(init_bsp.o)
_mqx_kernel_data                                  ..\..\..\..\..\..\..\lib\twrk70f120m.kds\debug\psp\psp.a(mqx.o)
                                                  ..\..\..\..\..\..\..\lib\twrk70f120m.kds\debug\psp\psp.a(int_inst.o)
                                                  ..\..\..\..\..\..\..\lib\twrk70f120m.kds\debug\psp\psp.a(io_fopen.o)
                                                  ..\..\..\..\..\..\..\lib\twrk70f120m.kds\debug\psp\psp.a(io_init.o)
                                                  ..\..\..\..\..\..\..\lib\twrk70f120m.kds\debug\psp\psp.a(io_instx.o)
                                                  ..\..\..\..\..\..\..\lib\twrk70f120m.kds\debug\psp\psp.a(lwevent.o)
                                                  ..\..\..\..\..\..\..\lib\twrk70f120m.kds\debug\bsp\bsp.a(io_sinit.o)
                                                  ..\..\..\..\..\..\..\lib\twrk70f120m.kds\debug\bsp\bsp.a(init_bsp.o)
                                                  ..\..\..\..\..\..\..\lib\twrk70f120m.kds\debug\psp\psp.a(io_ghand.o)
                                                  ..\..\..\..\..\..\..\lib\twrk70f120m.kds\debug\psp\psp.a(lwlog.o)
                                                  ..\..\..\..\..\..\..\lib\twrk70f120m.kds\debug\psp\psp.a(dispatch.o)
                                                  ..\..\..\..\..\..\..\lib\twrk70f120m.kds\debug\psp\psp.a(int_unx.o)
                                                  ..\..\..\..\..\..\..\lib\twrk70f120m.kds\debug\psp\psp.a(int_xcpt.o)
                                                  ..\..\..\..\..\..\..\lib\twrk70f120m.kds\debug\psp\psp.a(psp_dati.o)
                                                  ..\..\..\..\..\..\..\lib\twrk70f120m.kds\debug\psp\psp.a(psp_hoti.o)
                                                  ..\..\..\..\..\..\..\lib\twrk70f120m.kds\debug\psp\psp.a(psp_miti.o)
                                                  ..\..\..\..\..\..\..\lib\twrk70f120m.kds\debug\psp\psp.a(psp_msti.o)
                                                  ..\..\..\..\..\..\..\lib\twrk70f120m.kds\debug\psp\psp.a(psp_mstiq.o)
                                                  ..\..\..\..\..\..\..\lib\twrk70f120m.kds\debug\psp\psp.a(psp_nsti.o)
                                                  ..\..\..\..\..\..\..\lib\twrk70f120m.kds\debug\psp\psp.a(psp_psti.o)
                                                  ..\..\..\..\..\..\..\lib\twrk70f120m.kds\debug\psp\psp.a(psp_seti.o)
                                                  ..\..\..\..\..\..\..\lib\twrk70f120m.kds\debug\psp\psp.a(psp_tiad.o)
                                                  ..\..\..\..\..\..\..\lib\twrk70f120m.kds\debug\psp\psp.a(psp_tida.o)
                                                  ..\..\..\..\..\..\..\lib\twrk70f120m.kds\debug\psp\psp.a(psp_tihr.o)
                                                  ..\..\..\..\..\..\..\lib\twrk70f120m.kds\debug\psp\psp.a(psp_timn.o)
                                                  ..\..\..\..\..\..\..\lib\twrk70f120m.kds\debug\psp\psp.a(psp_tims.o)
                                                  ..\..\..\..\..\..\..\lib\twrk70f120m.kds\debug\psp\psp.a(psp_tinm.o)
                                                  ..\..\..\..\..\..\..\lib\twrk70f120m.kds\debug\psp\psp.a(psp_tins.o)
                                                  ..\..\..\..\..\..\..\lib\twrk70f120m.kds\debug\psp\psp.a(psp_tips.o)
                                                  ..\..\..\..\..\..\..\lib\twrk70f120m.kds\debug\psp\psp.a(psp_tise.o)
                                                  ..\..\..\..\..\..\..\lib\twrk70f120m.kds\debug\psp\psp.a(psp_tisu.o)
                                                  ..\..\..\..\..\..\..\lib\twrk70f120m.kds\debug\psp\psp.a(psp_tius.o)
                                                  ..\..\..\..\..\..\..\lib\twrk70f120m.kds\debug\psp\psp.a(psp_tkti.o)
                                                  ..\..\..\..\..\..\..\lib\twrk70f120m.kds\debug\psp\psp.a(psp_usti.o)
                                                  ..\..\..\..\..\..\..\lib\twrk70f120m.kds\debug\psp\psp.a(sc_irdyq.o)
                                                  ..\..\..\..\..\..\..\lib\twrk70f120m.kds\debug\psp\psp.a(stack_bu.o)
                                                  ..\..\..\..\..\..\..\lib\twrk70f120m.kds\debug\psp\psp.a(idletask.o)
                                                  ..\..\..\..\..\..\..\lib\twrk70f120m.kds\debug\psp\psp.a(inittask.o)
                                                  ..\..\..\..\..\..\..\lib\twrk70f120m.kds\debug\psp\psp.a(int.o)
                                                  ..\..\..\..\..\..\..\lib\twrk70f120m.kds\debug\psp\psp.a(klog.o)
                                                  ..\..\..\..\..\..\..\lib\twrk70f120m.kds\debug\psp\psp.a(lwsem.o)
                                                  ..\..\..\..\..\..\..\lib\twrk70f120m.kds\debug\psp\psp.a(mem.o)
                                                  ..\..\..\..\..\..\..\lib\twrk70f120m.kds\debug\psp\psp.a(sched.o)
                                                  ..\..\..\..\..\..\..\lib\twrk70f120m.kds\debug\psp\psp.a(task.o)
                                                  ..\..\..\..\..\..\..\lib\twrk70f120m.kds\debug\psp\psp.a(time.o)
_mqx_link_io_component_handle                     ..\..\..\..\..\..\..\lib\twrk70f120m.kds\debug\psp\psp.a(mqx.o)
_mqx_monitor_type                                 ..\..\..\..\..\..\..\lib\twrk70f120m.kds\debug\psp\psp.a(mqx.o)
_mqx_psp_revision                                 ..\..\..\..\..\..\..\lib\twrk70f120m.kds\debug\psp\psp.a(mqx.o)
_mqx_set_context_switch_handler                   ..\..\..\..\..\..\..\lib\twrk70f120m.kds\debug\psp\psp.a(mqx.o)
_mqx_set_cpu_type                                 ..\..\..\..\..\..\..\lib\twrk70f120m.kds\debug\psp\psp.a(mqx.o)
                                                  ..\..\..\..\..\..\..\lib\twrk70f120m.kds\debug\bsp\bsp.a(init_bsp.o)
_mqx_set_exit_handler                             ..\..\..\..\..\..\..\lib\twrk70f120m.kds\debug\psp\psp.a(mqx.o)
_mqx_set_io_component_handle                      ..\..\..\..\..\..\..\lib\twrk70f120m.kds\debug\psp\psp.a(mqx.o)
_mqx_system_stack                                 ..\..\..\..\..\..\..\lib\twrk70f120m.kds\debug\psp\psp.a(mqx.o)
_mqx_unlink_io_component_handle                   ..\..\..\..\..\..\..\lib\twrk70f120m.kds\debug\psp\psp.a(mqx.o)
_mqx_vendor                                       ..\..\..\..\..\..\..\lib\twrk70f120m.kds\debug\psp\psp.a(mqx.o)
_mqx_version                                      ..\..\..\..\..\..\..\lib\twrk70f120m.kds\debug\psp\psp.a(mqx.o)
_mqx_version_number                               ..\..\..\..\..\..\..\lib\twrk70f120m.kds\debug\psp\psp.a(mqx.o)
_mqx_zero_tick_struct                             ..\..\..\..\..\..\..\lib\twrk70f120m.kds\debug\psp\psp.a(mqx.o)
                                                  ..\..\..\..\..\..\..\lib\twrk70f120m.kds\debug\psp\psp.a(lwevent.o)
                                                  ..\..\..\..\..\..\..\lib\twrk70f120m.kds\debug\psp\psp.a(time.o)
_nvic_int_disable                                 ..\..\..\..\..\..\..\lib\twrk70f120m.kds\debug\psp\psp.a(nvic.o)
                                                  ..\..\..\..\..\..\..\lib\twrk70f120m.kds\debug\bsp\bsp.a(edma.o)
                                                  ..\..\..\..\..\..\..\lib\twrk70f120m.kds\debug\bsp\bsp.a(esdhc.o)
                                                  ..\..\..\..\..\..\..\lib\twrk70f120m.kds\debug\bsp\bsp.a(hwtimer_systick.o)
                                                  ..\..\..\..\..\..\..\lib\twrk70f120m.kds\debug\bsp\bsp.a(i2c_int_ki2c_legacy.o)
_nvic_int_enable                                  ..\..\..\..\..\..\..\lib\twrk70f120m.kds\debug\psp\psp.a(nvic.o)
                                                  ..\..\..\..\..\..\..\lib\twrk70f120m.kds\debug\bsp\bsp.a(esdhc.o)
                                                  ..\..\..\..\..\..\..\lib\twrk70f120m.kds\debug\bsp\bsp.a(i2c_int_ki2c_legacy.o)
_nvic_int_init                                    ..\..\..\..\..\..\..\lib\twrk70f120m.kds\debug\psp\psp.a(nvic.o)
                                                  ..\..\..\..\..\..\..\lib\twrk70f120m.kds\debug\bsp\bsp.a(adc_kadc.o)
                                                  ..\..\..\..\..\..\..\lib\twrk70f120m.kds\debug\bsp\bsp.a(adt_kpdb.o)
                                                  ..\..\..\..\..\..\..\lib\twrk70f120m.kds\debug\bsp\bsp.a(edma.o)
                                                  ..\..\..\..\..\..\..\lib\twrk70f120m.kds\debug\bsp\bsp.a(sai_dma_ksai.o)
                                                  ..\..\..\..\..\..\..\lib\twrk70f120m.kds\debug\bsp\bsp.a(esdhc.o)
                                                  ..\..\..\..\..\..\..\lib\twrk70f120m.kds\debug\bsp\bsp.a(i2c_int_ki2c_legacy.o)
                                                  ..\..\..\..\..\..\..\lib\twrk70f120m.kds\debug\bsp\bsp.a(krtc.o)
                                                  Sources\gpio.o
_nvic_int_invoke                                  ..\..\..\..\..\..\..\lib\twrk70f120m.kds\debug\psp\psp.a(nvic.o)
_pdb_get_prescaler                                ..\..\..\..\..\..\..\lib\twrk70f120m.kds\debug\bsp\bsp.a(adt_kpdb.o)
_pdb_set_prescaler                                ..\..\..\..\..\..\..\lib\twrk70f120m.kds\debug\bsp\bsp.a(adt_kpdb.o)
_pend_svc                                         ..\..\..\..\..\..\..\lib\twrk70f120m.kds\debug\psp\psp.a(dispatch.o)
                                                  ..\..\..\..\..\..\..\lib\twrk70f120m.kds\debug\bsp\bsp.a(vectors.o)
_psp_add_element_to_array                         ..\..\..\..\..\..\..\lib\twrk70f120m.kds\debug\psp\psp.a(psp_mat3.o)
                                                  ..\..\..\..\..\..\..\lib\twrk70f120m.kds\debug\psp\psp.a(psp_tims.o)
                                                  ..\..\..\..\..\..\..\lib\twrk70f120m.kds\debug\psp\psp.a(psp_tins.o)
                                                  ..\..\..\..\..\..\..\lib\twrk70f120m.kds\debug\psp\psp.a(psp_tips.o)
                                                  ..\..\..\..\..\..\..\lib\twrk70f120m.kds\debug\psp\psp.a(psp_tius.o)
_psp_add_ticks                                    ..\..\..\..\..\..\..\lib\twrk70f120m.kds\debug\psp\psp.a(psp_tiad.o)
                                                  ..\..\..\..\..\..\..\lib\twrk70f120m.kds\debug\psp\psp.a(lwlog.o)
                                                  ..\..\..\..\..\..\..\lib\twrk70f120m.kds\debug\psp\psp.a(psp_tiol.o)
                                                  ..\..\..\..\..\..\..\lib\twrk70f120m.kds\debug\psp\psp.a(lwsem.o)
                                                  ..\..\..\..\..\..\..\lib\twrk70f120m.kds\debug\psp\psp.a(time.o)
_psp_build_float_context                          ..\..\..\..\..\..\..\lib\twrk70f120m.kds\debug\psp\psp.a(stack_bu.o)
                                                  ..\..\..\..\..\..\..\lib\twrk70f120m.kds\debug\psp\psp.a(task.o)
_psp_build_stack_frame                            ..\..\..\..\..\..\..\lib\twrk70f120m.kds\debug\psp\psp.a(stack_bu.o)
                                                  ..\..\..\..\..\..\..\lib\twrk70f120m.kds\debug\psp\psp.a(task.o)
_psp_days_to_ticks                                ..\..\..\..\..\..\..\lib\twrk70f120m.kds\debug\psp\psp.a(psp_dati.o)
                                                  ..\..\..\..\..\..\..\lib\twrk70f120m.kds\debug\psp\psp.a(time.o)
_psp_destroy_stack_frame                          ..\..\..\..\..\..\..\lib\twrk70f120m.kds\debug\psp\psp.a(stack_de.o)
                                                  ..\..\..\..\..\..\..\lib\twrk70f120m.kds\debug\psp\psp.a(task.o)
_psp_div_128_by_32                                ..\..\..\..\..\..\..\lib\twrk70f120m.kds\debug\psp\psp.a(psp_mat2.o)
                                                  ..\..\..\..\..\..\..\lib\twrk70f120m.kds\debug\psp\psp.a(psp_psti.o)
                                                  ..\..\..\..\..\..\..\lib\twrk70f120m.kds\debug\psp\psp.a(psp_tims.o)
                                                  ..\..\..\..\..\..\..\lib\twrk70f120m.kds\debug\psp\psp.a(psp_tins.o)
                                                  ..\..\..\..\..\..\..\lib\twrk70f120m.kds\debug\psp\psp.a(psp_tips.o)
                                                  ..\..\..\..\..\..\..\lib\twrk70f120m.kds\debug\psp\psp.a(psp_tius.o)
_psp_exception_return                             ..\..\..\..\..\..\..\lib\twrk70f120m.kds\debug\psp\psp.a(dispatch.o)
                                                  ..\..\..\..\..\..\..\lib\twrk70f120m.kds\debug\psp\psp.a(int_xcpt.o)
_psp_get_stack_start                              ..\..\..\..\..\..\..\lib\twrk70f120m.kds\debug\psp\psp.a(stack_st.o)
                                                  ..\..\..\..\..\..\..\lib\twrk70f120m.kds\debug\psp\psp.a(task.o)
_psp_hours_to_ticks                               ..\..\..\..\..\..\..\lib\twrk70f120m.kds\debug\psp\psp.a(psp_hoti.o)
                                                  ..\..\..\..\..\..\..\lib\twrk70f120m.kds\debug\psp\psp.a(time.o)
_psp_init_readyqs                                 ..\..\..\..\..\..\..\lib\twrk70f120m.kds\debug\psp\psp.a(sc_irdyq.o)
                                                  ..\..\..\..\..\..\..\lib\twrk70f120m.kds\debug\psp\psp.a(mqx.o)
_psp_int_init                                     ..\..\..\..\..\..\..\lib\twrk70f120m.kds\debug\psp\psp.a(psp_iinit.o)
                                                  ..\..\..\..\..\..\..\lib\twrk70f120m.kds\debug\bsp\bsp.a(init_bsp.o)
_psp_int_install                                  ..\..\..\..\..\..\..\lib\twrk70f120m.kds\debug\psp\psp.a(int_inst.o)
                                                  ..\..\..\..\..\..\..\lib\twrk70f120m.kds\debug\psp\psp.a(psp_iinit.o)
_psp_minutes_to_ticks                             ..\..\..\..\..\..\..\lib\twrk70f120m.kds\debug\psp\psp.a(psp_miti.o)
                                                  ..\..\..\..\..\..\..\lib\twrk70f120m.kds\debug\psp\psp.a(time.o)
_psp_msecs_to_ticks                               ..\..\..\..\..\..\..\lib\twrk70f120m.kds\debug\psp\psp.a(psp_msti.o)
                                                  ..\..\..\..\..\..\..\lib\twrk70f120m.kds\debug\psp\psp.a(psp_tiol.o)
                                                  ..\..\..\..\..\..\..\lib\twrk70f120m.kds\debug\psp\psp.a(time.o)
_psp_msecs_to_ticks_quick                         ..\..\..\..\..\..\..\lib\twrk70f120m.kds\debug\psp\psp.a(psp_mstiq.o)
                                                  ..\..\..\..\..\..\..\lib\twrk70f120m.kds\debug\psp\psp.a(time.o)
_psp_mul_128_by_32                                ..\..\..\..\..\..\..\lib\twrk70f120m.kds\debug\psp\psp.a(psp_mat1.o)
                                                  ..\..\..\..\..\..\..\lib\twrk70f120m.kds\debug\psp\psp.a(psp_psti.o)
                                                  ..\..\..\..\..\..\..\lib\twrk70f120m.kds\debug\psp\psp.a(psp_tims.o)
                                                  ..\..\..\..\..\..\..\lib\twrk70f120m.kds\debug\psp\psp.a(psp_tins.o)
                                                  ..\..\..\..\..\..\..\lib\twrk70f120m.kds\debug\psp\psp.a(psp_tips.o)
                                                  ..\..\..\..\..\..\..\lib\twrk70f120m.kds\debug\psp\psp.a(psp_tius.o)
_psp_normalize_ticks                              ..\..\..\..\..\..\..\lib\twrk70f120m.kds\debug\psp\psp.a(psp_tinm.o)
                                                  ..\..\..\..\..\..\..\lib\twrk70f120m.kds\debug\psp\psp.a(time.o)
_psp_nsecs_to_ticks                               ..\..\..\..\..\..\..\lib\twrk70f120m.kds\debug\psp\psp.a(psp_nsti.o)
                                                  ..\..\..\..\..\..\..\lib\twrk70f120m.kds\debug\psp\psp.a(time.o)
_psp_print_ticks                                  ..\..\..\..\..\..\..\lib\twrk70f120m.kds\debug\psp\psp.a(psp_tipr.o)
                                                  ..\..\..\..\..\..\..\lib\twrk70f120m.kds\debug\psp\psp.a(klog.o)
_psp_psecs_to_ticks                               ..\..\..\..\..\..\..\lib\twrk70f120m.kds\debug\psp\psp.a(psp_psti.o)
                                                  ..\..\..\..\..\..\..\lib\twrk70f120m.kds\debug\psp\psp.a(time.o)
_psp_save_fp_context_internal                     ..\..\..\..\..\..\..\lib\twrk70f120m.kds\debug\psp\psp.a(dispatch.o)
                                                  ..\..\..\..\..\..\..\lib\twrk70f120m.kds\debug\psp\psp.a(task.o)
_psp_seconds_to_ticks                             ..\..\..\..\..\..\..\lib\twrk70f120m.kds\debug\psp\psp.a(psp_seti.o)
                                                  ..\..\..\..\..\..\..\lib\twrk70f120m.kds\debug\psp\psp.a(psp_tiol.o)
                                                  ..\..\..\..\..\..\..\lib\twrk70f120m.kds\debug\psp\psp.a(time.o)
_psp_set_kernel_disable_level                     ..\..\..\..\..\..\..\lib\twrk70f120m.kds\debug\psp\psp.a(sc_irdyq.o)
                                                  ..\..\..\..\..\..\..\lib\twrk70f120m.kds\debug\psp\psp.a(mqx.o)
_psp_subtract_ticks                               ..\..\..\..\..\..\..\lib\twrk70f120m.kds\debug\psp\psp.a(psp_tisu.o)
                                                  ..\..\..\..\..\..\..\lib\twrk70f120m.kds\debug\psp\psp.a(time.o)
_psp_subtract_ticks_int32                         ..\..\..\..\..\..\..\lib\twrk70f120m.kds\debug\psp\psp.a(psp_tisu.o)
                                                  ..\..\..\..\..\..\..\lib\twrk70f120m.kds\debug\psp\psp.a(time.o)
_psp_ticks_to_days                                ..\..\..\..\..\..\..\lib\twrk70f120m.kds\debug\psp\psp.a(psp_tida.o)
                                                  ..\..\..\..\..\..\..\lib\twrk70f120m.kds\debug\psp\psp.a(time.o)
_psp_ticks_to_hours                               ..\..\..\..\..\..\..\lib\twrk70f120m.kds\debug\psp\psp.a(psp_tihr.o)
                                                  ..\..\..\..\..\..\..\lib\twrk70f120m.kds\debug\psp\psp.a(time.o)
_psp_ticks_to_microseconds                        ..\..\..\..\..\..\..\lib\twrk70f120m.kds\debug\psp\psp.a(psp_tius.o)
                                                  ..\..\..\..\..\..\..\lib\twrk70f120m.kds\debug\psp\psp.a(time.o)
_psp_ticks_to_microseconds_truncate               ..\..\..\..\..\..\..\lib\twrk70f120m.kds\debug\psp\psp.a(psp_tius.o)
_psp_ticks_to_milliseconds                        ..\..\..\..\..\..\..\lib\twrk70f120m.kds\debug\psp\psp.a(psp_tims.o)
                                                  ..\..\..\..\..\..\..\lib\twrk70f120m.kds\debug\psp\psp.a(time.o)
_psp_ticks_to_milliseconds_truncate               ..\..\..\..\..\..\..\lib\twrk70f120m.kds\debug\psp\psp.a(psp_tims.o)
_psp_ticks_to_minutes                             ..\..\..\..\..\..\..\lib\twrk70f120m.kds\debug\psp\psp.a(psp_timn.o)
                                                  ..\..\..\..\..\..\..\lib\twrk70f120m.kds\debug\psp\psp.a(time.o)
_psp_ticks_to_nanoseconds                         ..\..\..\..\..\..\..\lib\twrk70f120m.kds\debug\psp\psp.a(psp_tins.o)
                                                  ..\..\..\..\..\..\..\lib\twrk70f120m.kds\debug\psp\psp.a(time.o)
_psp_ticks_to_nanoseconds_truncate                ..\..\..\..\..\..\..\lib\twrk70f120m.kds\debug\psp\psp.a(psp_tins.o)
_psp_ticks_to_picoseconds                         ..\..\..\..\..\..\..\lib\twrk70f120m.kds\debug\psp\psp.a(psp_tips.o)
                                                  ..\..\..\..\..\..\..\lib\twrk70f120m.kds\debug\psp\psp.a(time.o)
_psp_ticks_to_picoseconds_truncate                ..\..\..\..\..\..\..\lib\twrk70f120m.kds\debug\psp\psp.a(psp_tips.o)
_psp_ticks_to_seconds                             ..\..\..\..\..\..\..\lib\twrk70f120m.kds\debug\psp\psp.a(psp_tise.o)
                                                  ..\..\..\..\..\..\..\lib\twrk70f120m.kds\debug\psp\psp.a(time.o)
_psp_ticks_to_time                                ..\..\..\..\..\..\..\lib\twrk70f120m.kds\debug\psp\psp.a(psp_tkti.o)
                                                  ..\..\..\..\..\..\..\lib\twrk70f120m.kds\debug\psp\psp.a(time.o)
_psp_time_to_ticks                                ..\..\..\..\..\..\..\lib\twrk70f120m.kds\debug\psp\psp.a(psp_tiol.o)
                                                  ..\..\..\..\..\..\..\lib\twrk70f120m.kds\debug\psp\psp.a(time.o)
_psp_usecs_to_ticks                               ..\..\..\..\..\..\..\lib\twrk70f120m.kds\debug\psp\psp.a(psp_usti.o)
                                                  ..\..\..\..\..\..\..\lib\twrk70f120m.kds\debug\psp\psp.a(time.o)
_queue_dequeue                                    ..\..\..\..\..\..\..\lib\twrk70f120m.kds\debug\psp\psp.a(queue.o)
                                                  ..\..\..\..\..\..\..\lib\twrk70f120m.kds\debug\psp\psp.a(lwevent.o)
                                                  ..\..\..\..\..\..\..\lib\twrk70f120m.kds\debug\psp\psp.a(lwsem.o)
_queue_enqueue                                    ..\..\..\..\..\..\..\lib\twrk70f120m.kds\debug\psp\psp.a(queue.o)
                                                  ..\..\..\..\..\..\..\lib\twrk70f120m.kds\debug\psp\psp.a(io_instx.o)
                                                  ..\..\..\..\..\..\..\lib\twrk70f120m.kds\debug\psp\psp.a(lwevent.o)
                                                  ..\..\..\..\..\..\..\lib\twrk70f120m.kds\debug\psp\psp.a(lwsem.o)
                                                  ..\..\..\..\..\..\..\lib\twrk70f120m.kds\debug\psp\psp.a(mem.o)
_queue_get_size                                   ..\..\..\..\..\..\..\lib\twrk70f120m.kds\debug\psp\psp.a(queue.o)
_queue_head                                       ..\..\..\..\..\..\..\lib\twrk70f120m.kds\debug\psp\psp.a(queue.o)
_queue_init                                       ..\..\..\..\..\..\..\lib\twrk70f120m.kds\debug\psp\psp.a(queue.o)
                                                  ..\..\..\..\..\..\..\lib\twrk70f120m.kds\debug\psp\psp.a(io_init.o)
                                                  ..\..\..\..\..\..\..\lib\twrk70f120m.kds\debug\psp\psp.a(lwevent.o)
                                                  ..\..\..\..\..\..\..\lib\twrk70f120m.kds\debug\psp\psp.a(lwsem.o)
                                                  ..\..\..\..\..\..\..\lib\twrk70f120m.kds\debug\psp\psp.a(mem.o)
                                                  ..\..\..\..\..\..\..\lib\twrk70f120m.kds\debug\psp\psp.a(mqx.o)
_queue_insert                                     ..\..\..\..\..\..\..\lib\twrk70f120m.kds\debug\psp\psp.a(queue.o)
                                                  ..\..\..\..\..\..\..\lib\twrk70f120m.kds\debug\psp\psp.a(sched.o)
                                                  ..\..\..\..\..\..\..\lib\twrk70f120m.kds\debug\psp\psp.a(task.o)
                                                  ..\..\..\..\..\..\..\lib\twrk70f120m.kds\debug\psp\psp.a(time.o)
_queue_is_empty                                   ..\..\..\..\..\..\..\lib\twrk70f120m.kds\debug\psp\psp.a(queue.o)
_queue_next                                       ..\..\..\..\..\..\..\lib\twrk70f120m.kds\debug\psp\psp.a(queue.o)
_queue_test                                       ..\..\..\..\..\..\..\lib\twrk70f120m.kds\debug\psp\psp.a(queue.o)
                                                  ..\..\..\..\..\..\..\lib\twrk70f120m.kds\debug\psp\psp.a(lwevent.o)
                                                  ..\..\..\..\..\..\..\lib\twrk70f120m.kds\debug\psp\psp.a(lwsem.o)
                                                  ..\..\..\..\..\..\..\lib\twrk70f120m.kds\debug\psp\psp.a(mem.o)
_queue_unlink                                     ..\..\..\..\..\..\..\lib\twrk70f120m.kds\debug\psp\psp.a(queue.o)
_rtc_callback_reg                                 ..\..\..\..\..\..\..\lib\twrk70f120m.kds\debug\bsp\bsp.a(krtc.o)
_rtc_get_alarm                                    ..\..\..\..\..\..\..\lib\twrk70f120m.kds\debug\bsp\bsp.a(krtc.o)
_rtc_get_time                                     ..\..\..\..\..\..\..\lib\twrk70f120m.kds\debug\bsp\bsp.a(krtc.o)
_rtc_init                                         ..\..\..\..\..\..\..\lib\twrk70f120m.kds\debug\bsp\bsp.a(krtc.o)
                                                  ..\..\..\..\..\..\..\lib\twrk70f120m.kds\debug\bsp\bsp.a(init_bsp.o)
_rtc_isr                                          ..\..\..\..\..\..\..\lib\twrk70f120m.kds\debug\bsp\bsp.a(krtc.o)
_rtc_set_alarm                                    ..\..\..\..\..\..\..\lib\twrk70f120m.kds\debug\bsp\bsp.a(krtc.o)
_rtc_set_time                                     ..\..\..\..\..\..\..\lib\twrk70f120m.kds\debug\bsp\bsp.a(krtc.o)
_sbrk                                             ..\..\..\..\..\..\..\lib\twrk70f120m.kds\debug\psp\psp.a(comp.o)
_sched_boost_priority_internal                    ..\..\..\..\..\..\..\lib\twrk70f120m.kds\debug\psp\psp.a(sched.o)
_sched_check_scheduler_internal                   ..\..\..\..\..\..\..\lib\twrk70f120m.kds\debug\psp\psp.a(dispatch.o)
                                                  ..\..\..\..\..\..\..\lib\twrk70f120m.kds\debug\psp\psp.a(lwevent.o)
                                                  ..\..\..\..\..\..\..\lib\twrk70f120m.kds\debug\psp\psp.a(lwsem.o)
                                                  ..\..\..\..\..\..\..\lib\twrk70f120m.kds\debug\psp\psp.a(sched.o)
                                                  ..\..\..\..\..\..\..\lib\twrk70f120m.kds\debug\psp\psp.a(task.o)
_sched_execute_scheduler_internal                 ..\..\..\..\..\..\..\lib\twrk70f120m.kds\debug\psp\psp.a(dispatch.o)
                                                  ..\..\..\..\..\..\..\lib\twrk70f120m.kds\debug\psp\psp.a(lwsem.o)
                                                  ..\..\..\..\..\..\..\lib\twrk70f120m.kds\debug\psp\psp.a(sched.o)
                                                  ..\..\..\..\..\..\..\lib\twrk70f120m.kds\debug\psp\psp.a(task.o)
                                                  ..\..\..\..\..\..\..\lib\twrk70f120m.kds\debug\psp\psp.a(time.o)
_sched_get_max_priority                           ..\..\..\..\..\..\..\lib\twrk70f120m.kds\debug\psp\psp.a(sched.o)
_sched_get_max_priority_on_q_internal             ..\..\..\..\..\..\..\lib\twrk70f120m.kds\debug\psp\psp.a(sched.o)
_sched_get_min_priority                           ..\..\..\..\..\..\..\lib\twrk70f120m.kds\debug\psp\psp.a(sched.o)
_sched_get_policy                                 ..\..\..\..\..\..\..\lib\twrk70f120m.kds\debug\psp\psp.a(sched.o)
_sched_insert_priorityq_internal                  ..\..\..\..\..\..\..\lib\twrk70f120m.kds\debug\psp\psp.a(sched.o)
                                                  ..\..\..\..\..\..\..\lib\twrk70f120m.kds\debug\psp\psp.a(task.o)
_sched_run_internal                               ..\..\..\..\..\..\..\lib\twrk70f120m.kds\debug\psp\psp.a(dispatch.o)
                                                  ..\..\..\..\..\..\..\lib\twrk70f120m.kds\debug\psp\psp.a(task.o)
_sched_set_policy                                 ..\..\..\..\..\..\..\lib\twrk70f120m.kds\debug\psp\psp.a(sched.o)
_sched_set_priority_internal                      ..\..\..\..\..\..\..\lib\twrk70f120m.kds\debug\psp\psp.a(sched.o)
                                                  ..\..\..\..\..\..\..\lib\twrk70f120m.kds\debug\psp\psp.a(task.o)
_sched_start_internal                             ..\..\..\..\..\..\..\lib\twrk70f120m.kds\debug\psp\psp.a(dispatch.o)
                                                  ..\..\..\..\..\..\..\lib\twrk70f120m.kds\debug\psp\psp.a(mqx.o)
_sched_unboost_priority_internal                  ..\..\..\..\..\..\..\lib\twrk70f120m.kds\debug\psp\psp.a(sched.o)
_sched_yield                                      ..\..\..\..\..\..\..\lib\twrk70f120m.kds\debug\psp\psp.a(sched.o)
                                                  ..\..\..\..\..\..\..\lib\twrk70f120m.kds\debug\bsp\bsp.a(esdhc.o)
                                                  ..\..\..\..\..\..\..\lib\twrk70f120m.kds\debug\psp\psp.a(time.o)
_setlocale_r                                      ..\..\..\..\..\..\..\..\KDS_v3\toolchain\arm-none-eabi\lib\armv7e-m\fpu\libc.a(lib_a-locale.o)
_sleep_p3                                         ..\..\..\..\..\..\..\lib\twrk70f120m.kds\debug\psp\psp.a(dispatch.o)
                                                  ..\..\..\..\..\..\..\lib\twrk70f120m.kds\debug\psp\psp.a(mqx.o)
_sleep_p3_end                                     ..\..\..\..\..\..\..\lib\twrk70f120m.kds\debug\psp\psp.a(dispatch.o)
                                                  ..\..\..\..\..\..\..\lib\twrk70f120m.kds\debug\psp\psp.a(mqx.o)
_sleep_p3_loop                                    ..\..\..\..\..\..\..\lib\twrk70f120m.kds\debug\psp\psp.a(dispatch.o)
                                                  ..\..\..\..\..\..\..\lib\twrk70f120m.kds\debug\psp\psp.a(mqx.o)
_sleep_p3_loop_ram                                ..\..\..\..\..\..\..\lib\twrk70f120m.kds\debug\psp\psp.a(dispatch.o)
                                                  ..\..\..\..\..\..\..\lib\twrk70f120m.kds\debug\psp\psp.a(mqx.o)
_sleep_p3_ram                                     ..\..\..\..\..\..\..\lib\twrk70f120m.kds\debug\psp\psp.a(mqx.o)
_sleep_p3_start                                   ..\..\..\..\..\..\..\lib\twrk70f120m.kds\debug\psp\psp.a(dispatch.o)
                                                  ..\..\..\..\..\..\..\lib\twrk70f120m.kds\debug\psp\psp.a(mqx.o)
_sleep_p3_wfi                                     ..\..\..\..\..\..\..\lib\twrk70f120m.kds\debug\psp\psp.a(dispatch.o)
                                                  ..\..\..\..\..\..\..\lib\twrk70f120m.kds\debug\psp\psp.a(mqx.o)
_sleep_p3_wfi_ram                                 ..\..\..\..\..\..\..\lib\twrk70f120m.kds\debug\psp\psp.a(dispatch.o)
                                                  ..\..\..\..\..\..\..\lib\twrk70f120m.kds\debug\psp\psp.a(mqx.o)
_strtod_r                                         ..\..\..\..\..\..\..\..\KDS_v3\toolchain\arm-none-eabi\lib\armv7e-m\fpu\libc.a(lib_a-strtod.o)
_svc_handler                                      ..\..\..\..\..\..\..\lib\twrk70f120m.kds\debug\psp\psp.a(dispatch.o)
                                                  ..\..\..\..\..\..\..\lib\twrk70f120m.kds\debug\bsp\bsp.a(vectors.o)
_tad_task_at_flag                                 ..\..\..\..\..\..\..\lib\twrk70f120m.kds\debug\psp\psp.a(task.o)
_task_abort                                       ..\..\..\..\..\..\..\lib\twrk70f120m.kds\debug\psp\psp.a(task.o)
                                                  ..\..\..\..\..\..\..\lib\twrk70f120m.kds\debug\psp\psp.a(int_xcpt.o)
_task_abort_internal                              ..\..\..\..\..\..\..\lib\twrk70f120m.kds\debug\psp\psp.a(task.o)
_task_alloc_td_internal                           ..\..\..\..\..\..\..\lib\twrk70f120m.kds\debug\psp\psp.a(task.o)
_task_allow_preemption                            ..\..\..\..\..\..\..\lib\twrk70f120m.kds\debug\psp\psp.a(task.o)
_task_block                                       ..\..\..\..\..\..\..\lib\twrk70f120m.kds\debug\psp\psp.a(dispatch.o)
                                                  ..\..\..\..\..\..\..\lib\twrk70f120m.kds\debug\psp\psp.a(lwevent.o)
                                                  Sources\gpio.o
_task_build_internal                              ..\..\..\..\..\..\..\lib\twrk70f120m.kds\debug\psp\psp.a(task.o)
_task_check_stack                                 ..\..\..\..\..\..\..\lib\twrk70f120m.kds\debug\psp\psp.a(task.o)
_task_create                                      ..\..\..\..\..\..\..\lib\twrk70f120m.kds\debug\psp\psp.a(task.o)
_task_create_at                                   ..\..\..\..\..\..\..\lib\twrk70f120m.kds\debug\psp\psp.a(task.o)
_task_create_blocked                              ..\..\..\..\..\..\..\lib\twrk70f120m.kds\debug\psp\psp.a(task.o)
_task_create_internal                             ..\..\..\..\..\..\..\lib\twrk70f120m.kds\debug\psp\psp.a(task.o)
_task_destroy                                     ..\..\..\..\..\..\..\lib\twrk70f120m.kds\debug\psp\psp.a(task.o)
_task_destroy_internal                            ..\..\..\..\..\..\..\lib\twrk70f120m.kds\debug\psp\psp.a(task.o)
_task_disable_fp                                  ..\..\..\..\..\..\..\lib\twrk70f120m.kds\debug\psp\psp.a(task.o)
_task_enable_fp                                   ..\..\..\..\..\..\..\lib\twrk70f120m.kds\debug\psp\psp.a(task.o)
_task_exit_function_internal                      ..\..\..\..\..\..\..\lib\twrk70f120m.kds\debug\psp\psp.a(task.o)
                                                  ..\..\..\..\..\..\..\lib\twrk70f120m.kds\debug\psp\psp.a(stack_bu.o)
_task_exiting_function_internal                   ..\..\..\..\..\..\..\lib\twrk70f120m.kds\debug\psp\psp.a(task.o)
_task_fill_stack_internal                         ..\..\..\..\..\..\..\lib\twrk70f120m.kds\debug\psp\psp.a(task.o)
                                                  ..\..\..\..\..\..\..\lib\twrk70f120m.kds\debug\psp\psp.a(mqx.o)
_task_get_creator                                 ..\..\..\..\..\..\..\lib\twrk70f120m.kds\debug\psp\psp.a(task.o)
_task_get_environment                             ..\..\..\..\..\..\..\lib\twrk70f120m.kds\debug\psp\psp.a(task.o)
_task_get_error                                   ..\..\..\..\..\..\..\lib\twrk70f120m.kds\debug\psp\psp.a(task.o)
                                                  ..\..\..\..\..\..\..\lib\twrk70f120m.kds\debug\bsp\bsp.a(krtc.o)
_task_get_error_ptr                               ..\..\..\..\..\..\..\lib\twrk70f120m.kds\debug\psp\psp.a(task.o)
_task_get_exception_handler                       ..\..\..\..\..\..\..\lib\twrk70f120m.kds\debug\psp\psp.a(task.o)
_task_get_exit_handler                            ..\..\..\..\..\..\..\lib\twrk70f120m.kds\debug\psp\psp.a(task.o)
_task_get_id                                      ..\..\..\..\..\..\..\lib\twrk70f120m.kds\debug\psp\psp.a(task.o)
                                                  ..\..\..\..\..\..\..\lib\twrk70f120m.kds\debug\psp\psp.a(mem.o)
_task_get_id_from_name                            ..\..\..\..\..\..\..\lib\twrk70f120m.kds\debug\psp\psp.a(task.o)
                                                  ..\..\..\..\..\..\..\lib\twrk70f120m.kds\debug\bsp\bsp.a(io_sinit.o)
_task_get_id_from_td                              ..\..\..\..\..\..\..\lib\twrk70f120m.kds\debug\psp\psp.a(task.o)
_task_get_index_from_id                           ..\..\..\..\..\..\..\lib\twrk70f120m.kds\debug\psp\psp.a(task.o)
_task_get_parameter                               ..\..\..\..\..\..\..\lib\twrk70f120m.kds\debug\psp\psp.a(task.o)
_task_get_parameter_for                           ..\..\..\..\..\..\..\lib\twrk70f120m.kds\debug\psp\psp.a(task.o)
_task_get_parameter_internal                      ..\..\..\..\..\..\..\lib\twrk70f120m.kds\debug\psp\psp.a(task.o)
_task_get_priority                                ..\..\..\..\..\..\..\lib\twrk70f120m.kds\debug\psp\psp.a(task.o)
_task_get_processor                               ..\..\..\..\..\..\..\lib\twrk70f120m.kds\debug\psp\psp.a(task.o)
_task_get_td                                      ..\..\..\..\..\..\..\lib\twrk70f120m.kds\debug\psp\psp.a(task.o)
                                                  ..\..\..\..\..\..\..\lib\twrk70f120m.kds\debug\bsp\bsp.a(io_sinit.o)
                                                  ..\..\..\..\..\..\..\lib\twrk70f120m.kds\debug\psp\psp.a(klog.o)
                                                  ..\..\..\..\..\..\..\lib\twrk70f120m.kds\debug\psp\psp.a(mem.o)
                                                  ..\..\..\..\..\..\..\lib\twrk70f120m.kds\debug\psp\psp.a(time.o)
_task_get_template_index                          ..\..\..\..\..\..\..\lib\twrk70f120m.kds\debug\psp\psp.a(task.o)
_task_get_template_ptr                            ..\..\..\..\..\..\..\lib\twrk70f120m.kds\debug\psp\psp.a(task.o)
_task_init_internal                               ..\..\..\..\..\..\..\lib\twrk70f120m.kds\debug\psp\psp.a(task.o)
                                                  ..\..\..\..\..\..\..\lib\twrk70f120m.kds\debug\psp\psp.a(inittask.o)
                                                  ..\..\..\..\..\..\..\lib\twrk70f120m.kds\debug\psp\psp.a(mqx.o)
_task_ready                                       ..\..\..\..\..\..\..\lib\twrk70f120m.kds\debug\psp\psp.a(task.o)
_task_ready_internal                              ..\..\..\..\..\..\..\lib\twrk70f120m.kds\debug\psp\psp.a(task.o)
                                                  ..\..\..\..\..\..\..\lib\twrk70f120m.kds\debug\psp\psp.a(lwevent.o)
                                                  ..\..\..\..\..\..\..\lib\twrk70f120m.kds\debug\psp\psp.a(inittask.o)
                                                  ..\..\..\..\..\..\..\lib\twrk70f120m.kds\debug\psp\psp.a(lwsem.o)
                                                  ..\..\..\..\..\..\..\lib\twrk70f120m.kds\debug\psp\psp.a(mqx.o)
                                                  ..\..\..\..\..\..\..\lib\twrk70f120m.kds\debug\psp\psp.a(sched.o)
                                                  ..\..\..\..\..\..\..\lib\twrk70f120m.kds\debug\psp\psp.a(time.o)
_task_restart                                     ..\..\..\..\..\..\..\lib\twrk70f120m.kds\debug\psp\psp.a(task.o)
_task_set_environment                             ..\..\..\..\..\..\..\lib\twrk70f120m.kds\debug\psp\psp.a(task.o)
_task_set_error                                   ..\..\..\..\..\..\..\lib\twrk70f120m.kds\debug\psp\psp.a(task.o)
                                                  ..\..\..\..\..\..\..\lib\twrk70f120m.kds\debug\psp\psp.a(io_fopen.o)
                                                  ..\..\..\..\..\..\..\lib\twrk70f120m.kds\debug\bsp\bsp.a(sai_dma_ksai.o)
                                                  ..\..\..\..\..\..\..\lib\twrk70f120m.kds\debug\psp\psp.a(lwlog.o)
                                                  ..\..\..\..\..\..\..\lib\twrk70f120m.kds\debug\psp\psp.a(int.o)
                                                  ..\..\..\..\..\..\..\lib\twrk70f120m.kds\debug\psp\psp.a(mem.o)
                                                  ..\..\..\..\..\..\..\lib\twrk70f120m.kds\debug\psp\psp.a(mqx.o)
                                                  ..\..\..\..\..\..\..\lib\twrk70f120m.kds\debug\psp\psp.a(sched.o)
                                                  ..\..\..\..\..\..\..\lib\twrk70f120m.kds\debug\psp\psp.a(time.o)
_task_set_error_td_internal                       ..\..\..\..\..\..\..\lib\twrk70f120m.kds\debug\psp\psp.a(task.o)
                                                  ..\..\..\..\..\..\..\lib\twrk70f120m.kds\debug\psp\psp.a(stack_bu.o)
                                                  ..\..\..\..\..\..\..\lib\twrk70f120m.kds\debug\psp\psp.a(int.o)
_task_set_exception_handler                       ..\..\..\..\..\..\..\lib\twrk70f120m.kds\debug\psp\psp.a(task.o)
_task_set_exit_handler                            ..\..\..\..\..\..\..\lib\twrk70f120m.kds\debug\psp\psp.a(task.o)
_task_set_parameter                               ..\..\..\..\..\..\..\lib\twrk70f120m.kds\debug\psp\psp.a(task.o)
_task_set_parameter_for                           ..\..\..\..\..\..\..\lib\twrk70f120m.kds\debug\psp\psp.a(task.o)
_task_set_parameter_internal                      ..\..\..\..\..\..\..\lib\twrk70f120m.kds\debug\psp\psp.a(task.o)
_task_set_priority                                ..\..\..\..\..\..\..\lib\twrk70f120m.kds\debug\psp\psp.a(task.o)
_task_start_preemption                            ..\..\..\..\..\..\..\lib\twrk70f120m.kds\debug\psp\psp.a(task.o)
_task_stop_preemption                             ..\..\..\..\..\..\..\lib\twrk70f120m.kds\debug\psp\psp.a(task.o)
                                                  ..\..\..\..\..\..\..\lib\twrk70f120m.kds\debug\psp\psp.a(inittask.o)
_task_sync_priority_internal                      ..\..\..\..\..\..\..\lib\twrk70f120m.kds\debug\psp\psp.a(task.o)
                                                  ..\..\..\..\..\..\..\lib\twrk70f120m.kds\debug\psp\psp.a(sched.o)
_ticks_to_time                                    ..\..\..\..\..\..\..\lib\twrk70f120m.kds\debug\psp\psp.a(time.o)
_time_add_day_to_ticks                            ..\..\..\..\..\..\..\lib\twrk70f120m.kds\debug\psp\psp.a(time.o)
_time_add_hour_to_ticks                           ..\..\..\..\..\..\..\lib\twrk70f120m.kds\debug\psp\psp.a(time.o)
_time_add_min_to_ticks                            ..\..\..\..\..\..\..\lib\twrk70f120m.kds\debug\psp\psp.a(time.o)
_time_add_msec_to_ticks                           ..\..\..\..\..\..\..\lib\twrk70f120m.kds\debug\psp\psp.a(time.o)
_time_add_nsec_to_ticks                           ..\..\..\..\..\..\..\lib\twrk70f120m.kds\debug\psp\psp.a(time.o)
_time_add_psec_to_ticks                           ..\..\..\..\..\..\..\lib\twrk70f120m.kds\debug\psp\psp.a(time.o)
_time_add_sec_to_ticks                            ..\..\..\..\..\..\..\lib\twrk70f120m.kds\debug\psp\psp.a(time.o)
_time_add_usec_to_ticks                           ..\..\..\..\..\..\..\lib\twrk70f120m.kds\debug\psp\psp.a(time.o)
_time_check_if_leap                               ..\..\..\..\..\..\..\lib\twrk70f120m.kds\debug\psp\psp.a(time.o)
_time_days_in_month_internal                      ..\..\..\..\..\..\..\lib\twrk70f120m.kds\debug\psp\psp.a(time.o)
_time_delay                                       ..\..\..\..\..\..\..\lib\twrk70f120m.kds\debug\psp\psp.a(time.o)
                                                  ..\..\..\..\..\..\..\lib\twrk70f120m.kds\debug\bsp\bsp.a(esdhc.o)
                                                  ..\..\..\..\..\..\..\lib\twrk70f120m.kds\debug\bsp\bsp.a(krtc.o)
                                                  ..\..\..\..\..\..\..\lib\twrk70f120m.kds\debug\bsp\bsp.a(init_gpio.o)
                                                  Sources\gpio.o
_time_delay_for                                   ..\..\..\..\..\..\..\lib\twrk70f120m.kds\debug\psp\psp.a(time.o)
                                                  ..\..\..\..\..\..\..\lib\twrk70f120m.kds\debug\psp\psp.a(lwevent.o)
_time_delay_internal                              ..\..\..\..\..\..\..\lib\twrk70f120m.kds\debug\psp\psp.a(time.o)
                                                  ..\..\..\..\..\..\..\lib\twrk70f120m.kds\debug\psp\psp.a(lwsem.o)
_time_delay_ticks                                 ..\..\..\..\..\..\..\lib\twrk70f120m.kds\debug\psp\psp.a(time.o)
_time_delay_until                                 ..\..\..\..\..\..\..\lib\twrk70f120m.kds\debug\psp\psp.a(time.o)
                                                  ..\..\..\..\..\..\..\lib\twrk70f120m.kds\debug\psp\psp.a(lwevent.o)
_time_dequeue                                     ..\..\..\..\..\..\..\lib\twrk70f120m.kds\debug\psp\psp.a(time.o)
_time_dequeue_td                                  ..\..\..\..\..\..\..\lib\twrk70f120m.kds\debug\psp\psp.a(time.o)
_time_diff                                        ..\..\..\..\..\..\..\lib\twrk70f120m.kds\debug\psp\psp.a(time.o)
_time_diff_days                                   ..\..\..\..\..\..\..\lib\twrk70f120m.kds\debug\psp\psp.a(time.o)
_time_diff_hours                                  ..\..\..\..\..\..\..\lib\twrk70f120m.kds\debug\psp\psp.a(time.o)
_time_diff_microseconds                           ..\..\..\..\..\..\..\lib\twrk70f120m.kds\debug\psp\psp.a(time.o)
_time_diff_milliseconds                           ..\..\..\..\..\..\..\lib\twrk70f120m.kds\debug\psp\psp.a(time.o)
                                                  ..\..\..\..\..\..\..\lib\twrk70f120m.kds\debug\bsp\bsp.a(esdhc.o)
_time_diff_minutes                                ..\..\..\..\..\..\..\lib\twrk70f120m.kds\debug\psp\psp.a(time.o)
_time_diff_nanoseconds                            ..\..\..\..\..\..\..\lib\twrk70f120m.kds\debug\psp\psp.a(time.o)
_time_diff_picoseconds                            ..\..\..\..\..\..\..\lib\twrk70f120m.kds\debug\psp\psp.a(time.o)
_time_diff_seconds                                ..\..\..\..\..\..\..\lib\twrk70f120m.kds\debug\psp\psp.a(time.o)
_time_diff_ticks                                  ..\..\..\..\..\..\..\lib\twrk70f120m.kds\debug\psp\psp.a(time.o)
_time_diff_ticks_int32                            ..\..\..\..\..\..\..\lib\twrk70f120m.kds\debug\psp\psp.a(time.o)
_time_from_date                                   ..\..\..\..\..\..\..\lib\twrk70f120m.kds\debug\psp\psp.a(time.o)
_time_get                                         ..\..\..\..\..\..\..\lib\twrk70f120m.kds\debug\psp\psp.a(time.o)
_time_get_elapsed                                 ..\..\..\..\..\..\..\lib\twrk70f120m.kds\debug\psp\psp.a(time.o)
_time_get_elapsed_ticks                           ..\..\..\..\..\..\..\lib\twrk70f120m.kds\debug\psp\psp.a(time.o)
_time_get_elapsed_ticks_fast                      ..\..\..\..\..\..\..\lib\twrk70f120m.kds\debug\psp\psp.a(time.o)
_time_get_hwticks                                 ..\..\..\..\..\..\..\lib\twrk70f120m.kds\debug\psp\psp.a(time.o)
                                                  ..\..\..\..\..\..\..\lib\twrk70f120m.kds\debug\psp\psp.a(lwlog.o)
_time_get_hwticks_per_tick                        ..\..\..\..\..\..\..\lib\twrk70f120m.kds\debug\psp\psp.a(time.o)
_time_get_microseconds                            ..\..\..\..\..\..\..\lib\twrk70f120m.kds\debug\psp\psp.a(time.o)
_time_get_nanoseconds                             ..\..\..\..\..\..\..\lib\twrk70f120m.kds\debug\psp\psp.a(time.o)
_time_get_resolution                              ..\..\..\..\..\..\..\lib\twrk70f120m.kds\debug\psp\psp.a(time.o)
_time_get_ticks                                   ..\..\..\..\..\..\..\lib\twrk70f120m.kds\debug\psp\psp.a(time.o)
                                                  ..\..\..\..\..\..\..\lib\twrk70f120m.kds\debug\bsp\bsp.a(esdhc.o)
_time_get_ticks_per_sec                           ..\..\..\..\..\..\..\lib\twrk70f120m.kds\debug\psp\psp.a(time.o)
_time_init_ticks                                  ..\..\..\..\..\..\..\lib\twrk70f120m.kds\debug\psp\psp.a(time.o)
_time_notify_kernel                               ..\..\..\..\..\..\..\lib\twrk70f120m.kds\debug\psp\psp.a(time.o)
                                                  ..\..\..\..\..\..\..\lib\twrk70f120m.kds\debug\bsp\bsp.a(init_bsp.o)
_time_set                                         ..\..\..\..\..\..\..\lib\twrk70f120m.kds\debug\psp\psp.a(time.o)
_time_set_hwtick_function                         ..\..\..\..\..\..\..\lib\twrk70f120m.kds\debug\psp\psp.a(time.o)
                                                  ..\..\..\..\..\..\..\lib\twrk70f120m.kds\debug\bsp\bsp.a(init_bsp.o)
_time_set_hwticks_per_tick                        ..\..\..\..\..\..\..\lib\twrk70f120m.kds\debug\psp\psp.a(time.o)
                                                  ..\..\..\..\..\..\..\lib\twrk70f120m.kds\debug\bsp\bsp.a(init_bsp.o)
_time_set_resolution                              ..\..\..\..\..\..\..\lib\twrk70f120m.kds\debug\psp\psp.a(time.o)
_time_set_ticks                                   ..\..\..\..\..\..\..\lib\twrk70f120m.kds\debug\psp\psp.a(time.o)
_time_set_ticks_per_sec                           ..\..\..\..\..\..\..\lib\twrk70f120m.kds\debug\psp\psp.a(time.o)
                                                  ..\..\..\..\..\..\..\lib\twrk70f120m.kds\debug\bsp\bsp.a(init_bsp.o)
_time_set_timer_vector                            ..\..\..\..\..\..\..\lib\twrk70f120m.kds\debug\psp\psp.a(time.o)
_time_to_date                                     ..\..\..\..\..\..\..\lib\twrk70f120m.kds\debug\psp\psp.a(time.o)
_time_to_ticks                                    ..\..\..\..\..\..\..\lib\twrk70f120m.kds\debug\psp\psp.a(time.o)
_timezone                                         ..\..\..\..\..\..\..\lib\twrk70f120m.kds\debug\psp\psp.a(time.o)
adc_bundle                                        ..\..\..\..\..\..\..\lib\twrk70f120m.kds\debug\bsp\bsp.a(adc_kadc.o)
                                                  ..\..\..\..\..\..\..\lib\twrk70f120m.kds\debug\bsp\bsp.a(adt_kpdb.o)
adc_process_all_data                              ..\..\..\..\..\..\..\lib\twrk70f120m.kds\debug\bsp\bsp.a(adc_kadc.o)
                                                  ..\..\..\..\..\..\..\lib\twrk70f120m.kds\debug\bsp\bsp.a(adt_kpdb.o)
atexit                                            ..\..\..\..\..\..\..\..\KDS_v3\toolchain\arm-none-eabi\lib\armv7e-m\fpu\libc.a(lib_a-atexit.o)
                                                  ..\..\..\..\..\..\..\..\KDS_v3\toolchain\arm-none-eabi\lib\armv7e-m\fpu\libc.a(lib_a-__call_atexit.o)
                                                  ..\..\..\..\..\..\..\lib\twrk70f120m.kds\debug\psp\psp.a(comp.o)
calloc                                            ..\..\..\..\..\..\..\lib\twrk70f120m.kds\debug\psp\psp.a(comp.o)
data_startup                                      ..\..\..\..\..\..\..\lib\twrk70f120m.kds\debug\psp\psp.a(comp.o)
dma_callback_reg                                  ..\..\..\..\..\..\..\lib\twrk70f120m.kds\debug\bsp\bsp.a(dma.o)
                                                  ..\..\..\..\..\..\..\lib\twrk70f120m.kds\debug\bsp\bsp.a(sai_dma_ksai.o)
dma_channel_claim                                 ..\..\..\..\..\..\..\lib\twrk70f120m.kds\debug\bsp\bsp.a(dma.o)
                                                  ..\..\..\..\..\..\..\lib\twrk70f120m.kds\debug\bsp\bsp.a(sai_dma_ksai.o)
dma_channel_release                               ..\..\..\..\..\..\..\lib\twrk70f120m.kds\debug\bsp\bsp.a(dma.o)
                                                  ..\..\..\..\..\..\..\lib\twrk70f120m.kds\debug\bsp\bsp.a(sai_dma_ksai.o)
dma_channel_reset                                 ..\..\..\..\..\..\..\lib\twrk70f120m.kds\debug\bsp\bsp.a(dma.o)
dma_channel_setup                                 ..\..\..\..\..\..\..\lib\twrk70f120m.kds\debug\bsp\bsp.a(dma.o)
                                                  ..\..\..\..\..\..\..\lib\twrk70f120m.kds\debug\bsp\bsp.a(sai_dma_ksai.o)
dma_channel_status                                ..\..\..\..\..\..\..\lib\twrk70f120m.kds\debug\bsp\bsp.a(dma.o)
                                                  ..\..\..\..\..\..\..\lib\twrk70f120m.kds\debug\bsp\bsp.a(sai_dma_ksai.o)
dma_deinit                                        ..\..\..\..\..\..\..\lib\twrk70f120m.kds\debug\bsp\bsp.a(dma.o)
dma_init                                          ..\..\..\..\..\..\..\lib\twrk70f120m.kds\debug\bsp\bsp.a(dma.o)
                                                  ..\..\..\..\..\..\..\lib\twrk70f120m.kds\debug\bsp\bsp.a(init_bsp.o)
dma_request_disable                               ..\..\..\..\..\..\..\lib\twrk70f120m.kds\debug\bsp\bsp.a(dma.o)
                                                  ..\..\..\..\..\..\..\lib\twrk70f120m.kds\debug\bsp\bsp.a(sai_dma_ksai.o)
dma_request_enable                                ..\..\..\..\..\..\..\lib\twrk70f120m.kds\debug\bsp\bsp.a(dma.o)
                                                  ..\..\..\..\..\..\..\lib\twrk70f120m.kds\debug\bsp\bsp.a(sai_dma_ksai.o)
dma_request_source                                ..\..\..\..\..\..\..\lib\twrk70f120m.kds\debug\bsp\bsp.a(dma.o)
                                                  ..\..\..\..\..\..\..\lib\twrk70f120m.kds\debug\bsp\bsp.a(sai_dma_ksai.o)
dma_tcd_mem2reg                                   ..\..\..\..\..\..\..\lib\twrk70f120m.kds\debug\bsp\bsp.a(dma.o)
                                                  ..\..\..\..\..\..\..\lib\twrk70f120m.kds\debug\bsp\bsp.a(sai_dma_ksai.o)
dma_tcd_memcpy                                    ..\..\..\..\..\..\..\lib\twrk70f120m.kds\debug\bsp\bsp.a(dma.o)
dma_tcd_reg2mem                                   ..\..\..\..\..\..\..\lib\twrk70f120m.kds\debug\bsp\bsp.a(dma.o)
                                                  ..\..\..\..\..\..\..\lib\twrk70f120m.kds\debug\bsp\bsp.a(sai_dma_ksai.o)
dma_transfer_submit                               ..\..\..\..\..\..\..\lib\twrk70f120m.kds\debug\bsp\bsp.a(dma.o)
                                                  ..\..\..\..\..\..\..\lib\twrk70f120m.kds\debug\bsp\bsp.a(sai_dma_ksai.o)
edma_devif                                        ..\..\..\..\..\..\..\lib\twrk70f120m.kds\debug\bsp\bsp.a(edma.o)
                                                  ..\..\..\..\..\..\..\lib\twrk70f120m.kds\debug\bsp\bsp.a(init_dma.o)
exit                                              ..\..\..\..\..\..\..\..\KDS_v3\toolchain\arm-none-eabi\lib\armv7e-m\fpu\libc.a(lib_a-exit.o)
                                                  ..\..\..\..\..\..\..\lib\twrk70f120m.kds\debug\psp\psp.a(comp.o)
free                                              ..\..\..\..\..\..\..\lib\twrk70f120m.kds\debug\psp\psp.a(comp.o)
                                                  ..\..\..\..\..\..\..\..\KDS_v3\toolchain\arm-none-eabi\lib\armv7e-m\fpu\libc.a(lib_a-__call_atexit.o)
gmtime_r                                          ..\..\..\..\..\..\..\lib\twrk70f120m.kds\debug\psp\psp.a(time.o)
hwtimer_callback_block                            ..\..\..\..\..\..\..\lib\twrk70f120m.kds\debug\bsp\bsp.a(hwtimer.o)
hwtimer_callback_cancel                           ..\..\..\..\..\..\..\lib\twrk70f120m.kds\debug\bsp\bsp.a(hwtimer.o)
hwtimer_callback_reg                              ..\..\..\..\..\..\..\lib\twrk70f120m.kds\debug\bsp\bsp.a(hwtimer.o)
                                                  ..\..\..\..\..\..\..\lib\twrk70f120m.kds\debug\bsp\bsp.a(init_bsp.o)
hwtimer_callback_unblock                          ..\..\..\..\..\..\..\lib\twrk70f120m.kds\debug\bsp\bsp.a(hwtimer.o)
hwtimer_deinit                                    ..\..\..\..\..\..\..\lib\twrk70f120m.kds\debug\bsp\bsp.a(hwtimer.o)
                                                  ..\..\..\..\..\..\..\lib\twrk70f120m.kds\debug\bsp\bsp.a(init_bsp.o)
hwtimer_get_freq                                  ..\..\..\..\..\..\..\lib\twrk70f120m.kds\debug\bsp\bsp.a(hwtimer.o)
hwtimer_get_modulo                                ..\..\..\..\..\..\..\lib\twrk70f120m.kds\debug\bsp\bsp.a(hwtimer.o)
                                                  ..\..\..\..\..\..\..\lib\twrk70f120m.kds\debug\bsp\bsp.a(init_bsp.o)
hwtimer_get_period                                ..\..\..\..\..\..\..\lib\twrk70f120m.kds\debug\bsp\bsp.a(hwtimer.o)
hwtimer_get_ticks                                 ..\..\..\..\..\..\..\lib\twrk70f120m.kds\debug\bsp\bsp.a(hwtimer.o)
hwtimer_get_time                                  ..\..\..\..\..\..\..\lib\twrk70f120m.kds\debug\bsp\bsp.a(hwtimer.o)
                                                  ..\..\..\..\..\..\..\lib\twrk70f120m.kds\debug\bsp\bsp.a(init_bsp.o)
hwtimer_init                                      ..\..\..\..\..\..\..\lib\twrk70f120m.kds\debug\bsp\bsp.a(hwtimer.o)
                                                  ..\..\..\..\..\..\..\lib\twrk70f120m.kds\debug\bsp\bsp.a(init_bsp.o)
hwtimer_set_freq                                  ..\..\..\..\..\..\..\lib\twrk70f120m.kds\debug\bsp\bsp.a(hwtimer.o)
                                                  ..\..\..\..\..\..\..\lib\twrk70f120m.kds\debug\bsp\bsp.a(bsp_cm.o)
                                                  ..\..\..\..\..\..\..\lib\twrk70f120m.kds\debug\bsp\bsp.a(init_bsp.o)
hwtimer_set_period                                ..\..\..\..\..\..\..\lib\twrk70f120m.kds\debug\bsp\bsp.a(hwtimer.o)
hwtimer_start                                     ..\..\..\..\..\..\..\lib\twrk70f120m.kds\debug\bsp\bsp.a(hwtimer.o)
                                                  ..\..\..\..\..\..\..\lib\twrk70f120m.kds\debug\bsp\bsp.a(init_bsp.o)
hwtimer_stop                                      ..\..\..\..\..\..\..\lib\twrk70f120m.kds\debug\bsp\bsp.a(hwtimer.o)
init_hardware                                     ..\..\..\..\..\..\..\lib\twrk70f120m.kds\debug\bsp\bsp.a(init_hw.o)
                                                  ..\..\..\..\..\..\..\lib\twrk70f120m.kds\debug\psp\psp.a(comp.o)
int_service_routine                               Sources\gpio.o
localeconv                                        ..\..\..\..\..\..\..\..\KDS_v3\toolchain\arm-none-eabi\lib\armv7e-m\fpu\libc.a(lib_a-locale.o)
localtime_r                                       ..\..\..\..\..\..\..\lib\twrk70f120m.kds\debug\psp\psp.a(time.o)
lpt_get_base_address                              ..\..\..\..\..\..\..\lib\twrk70f120m.kds\debug\bsp\bsp.a(hwtimer_kinetis.o)
lpt_get_vector                                    ..\..\..\..\..\..\..\lib\twrk70f120m.kds\debug\bsp\bsp.a(hwtimer_kinetis.o)
lpt_io_init                                       ..\..\..\..\..\..\..\lib\twrk70f120m.kds\debug\bsp\bsp.a(hwtimer_kinetis.o)
lpt_pcsclk                                        ..\..\..\..\..\..\..\lib\twrk70f120m.kds\debug\bsp\bsp.a(hwtimer_kinetis.o)
lpt_validate_module                               ..\..\..\..\..\..\..\lib\twrk70f120m.kds\debug\bsp\bsp.a(hwtimer_kinetis.o)
lwgpio_get_functionality                          ..\..\..\..\..\..\..\lib\twrk70f120m.kds\debug\bsp\bsp.a(lwgpio_kgpio.o)
lwgpio_get_raw                                    ..\..\..\..\..\..\..\lib\twrk70f120m.kds\debug\bsp\bsp.a(lwgpio_kgpio.o)
lwgpio_get_value                                  ..\..\..\..\..\..\..\lib\twrk70f120m.kds\debug\bsp\bsp.a(lwgpio_kgpio.o)
                                                  Sources\gpio.o
lwgpio_init                                       ..\..\..\..\..\..\..\lib\twrk70f120m.kds\debug\bsp\bsp.a(lwgpio_kgpio.o)
                                                  Sources\gpio.o
lwgpio_int_clear_flag                             ..\..\..\..\..\..\..\lib\twrk70f120m.kds\debug\bsp\bsp.a(lwgpio_kgpio.o)
                                                  Sources\gpio.o
lwgpio_int_enable                                 ..\..\..\..\..\..\..\lib\twrk70f120m.kds\debug\bsp\bsp.a(lwgpio_kgpio.o)
                                                  Sources\gpio.o
lwgpio_int_get_flag                               ..\..\..\..\..\..\..\lib\twrk70f120m.kds\debug\bsp\bsp.a(lwgpio_kgpio.o)
lwgpio_int_get_vector                             ..\..\..\..\..\..\..\lib\twrk70f120m.kds\debug\bsp\bsp.a(lwgpio_kgpio.o)
                                                  Sources\gpio.o
lwgpio_int_init                                   ..\..\..\..\..\..\..\lib\twrk70f120m.kds\debug\bsp\bsp.a(lwgpio_kgpio.o)
                                                  Sources\gpio.o
lwgpio_set_attribute                              ..\..\..\..\..\..\..\lib\twrk70f120m.kds\debug\bsp\bsp.a(lwgpio_kgpio.o)
                                                  Sources\gpio.o
lwgpio_set_direction                              ..\..\..\..\..\..\..\lib\twrk70f120m.kds\debug\bsp\bsp.a(lwgpio_kgpio.o)
lwgpio_set_functionality                          ..\..\..\..\..\..\..\lib\twrk70f120m.kds\debug\bsp\bsp.a(lwgpio_kgpio.o)
                                                  Sources\gpio.o
lwgpio_set_value                                  ..\..\..\..\..\..\..\lib\twrk70f120m.kds\debug\bsp\bsp.a(lwgpio_kgpio.o)
                                                  Sources\gpio.o
lwgpio_toggle_value                               ..\..\..\..\..\..\..\lib\twrk70f120m.kds\debug\bsp\bsp.a(lwgpio_kgpio.o)
lwsem                                             Sources\gpio.o
main                                              ..\..\..\..\..\..\..\lib\twrk70f120m.kds\debug\bsp\bsp.a(mqx_main.o)
                                                  ..\..\..\..\..\..\..\lib\twrk70f120m.kds\debug\psp\psp.a(comp.o)
main_task                                         Sources\gpio.o
malloc                                            ..\..\..\..\..\..\..\lib\twrk70f120m.kds\debug\psp\psp.a(comp.o)
                                                  ..\..\..\..\..\..\..\..\KDS_v3\toolchain\arm-none-eabi\lib\armv7e-m\fpu\libc.a(lib_a-__atexit.o)
memcpy                                            ..\..\..\..\..\..\..\..\KDS_v3\toolchain\arm-none-eabi\lib\armv7e-m\fpu\libc.a(lib_a-memcpy.o)
                                                  ..\..\..\..\..\..\..\lib\twrk70f120m.kds\debug\bsp\bsp.a(sai_dma_ksai.o)
                                                  ..\..\..\..\..\..\..\lib\twrk70f120m.kds\debug\bsp\bsp.a(esdhc.o)
                                                  ..\..\..\..\..\..\..\..\KDS_v3\toolchain\arm-none-eabi\lib\armv7e-m\fpu\libc.a(lib_a-mprec.o)
                                                  ..\..\..\..\..\..\..\..\KDS_v3\toolchain\arm-none-eabi\lib\armv7e-m\fpu\libc.a(lib_a-gdtoa-gethex.o)
                                                  ..\..\..\..\..\..\..\..\KDS_v3\toolchain\arm-none-eabi\lib\armv7e-m\fpu\libc.a(lib_a-strtod.o)
                                                  ..\..\..\..\..\..\..\lib\twrk70f120m.kds\debug\psp\psp.a(mem.o)
                                                  ..\..\..\..\..\..\..\lib\twrk70f120m.kds\debug\psp\psp.a(mqx.o)
memset                                            ..\..\..\..\..\..\..\..\KDS_v3\toolchain\arm-none-eabi\lib\armv7e-m\fpu\libc.a(lib_a-memset.o)
                                                  ..\..\..\..\..\..\..\lib\twrk70f120m.kds\debug\bsp\bsp.a(sai_dma_ksai.o)
                                                  ..\..\..\..\..\..\..\lib\twrk70f120m.kds\debug\bsp\bsp.a(adc.o)
                                                  ..\..\..\..\..\..\..\lib\twrk70f120m.kds\debug\bsp\bsp.a(dma.o)
                                                  ..\..\..\..\..\..\..\..\KDS_v3\toolchain\arm-none-eabi\lib\armv7e-m\fpu\libc.a(lib_a-callocr.o)
                                                  ..\..\..\..\..\..\..\lib\twrk70f120m.kds\debug\psp\psp.a(lwlog.o)
                                                  ..\..\..\..\..\..\..\lib\twrk70f120m.kds\debug\psp\psp.a(stack_bu.o)
                                                  ..\..\..\..\..\..\..\lib\twrk70f120m.kds\debug\psp\psp.a(mem.o)
                                                  ..\..\..\..\..\..\..\lib\twrk70f120m.kds\debug\psp\psp.a(mqx.o)
                                                  ..\..\..\..\..\..\..\lib\twrk70f120m.kds\debug\psp\psp.a(task.o)
mktime                                            ..\..\..\..\..\..\..\lib\twrk70f120m.kds\debug\psp\psp.a(time.o)
modf                                              ..\..\..\..\..\..\..\..\KDS_v3\toolchain\arm-none-eabi\lib\armv7e-m\fpu\libc.a(lib_a-s_modf.o)
                                                  ..\..\..\..\..\..\..\lib\twrk70f120m.kds\debug\psp\psp.a(io_fp.o)
nanf                                              ..\..\..\..\..\..\..\..\KDS_v3\toolchain\arm-none-eabi\lib\armv7e-m\fpu\libc.a(lib_a-sf_nan.o)
                                                  ..\..\..\..\..\..\..\..\KDS_v3\toolchain\arm-none-eabi\lib\armv7e-m\fpu\libc.a(lib_a-strtod.o)
pcr_reg_arr                                       ..\..\..\..\..\..\..\lib\twrk70f120m.kds\debug\bsp\bsp.a(lwgpio_kgpio.o)
pit_get_hwtimers_array                            ..\..\..\..\..\..\..\lib\twrk70f120m.kds\debug\bsp\bsp.a(hwtimer_kinetis.o)
pit_get_vectors                                   ..\..\..\..\..\..\..\lib\twrk70f120m.kds\debug\bsp\bsp.a(hwtimer_kinetis.o)
pit_io_init                                       ..\..\..\..\..\..\..\lib\twrk70f120m.kds\debug\bsp\bsp.a(hwtimer_kinetis.o)
pit_vectors_table                                 ..\..\..\..\..\..\..\lib\twrk70f120m.kds\debug\bsp\bsp.a(hwtimer_kinetis.o)
realloc                                           ..\..\..\..\..\..\..\lib\twrk70f120m.kds\debug\psp\psp.a(comp.o)
setlocale                                         ..\..\..\..\..\..\..\..\KDS_v3\toolchain\arm-none-eabi\lib\armv7e-m\fpu\libc.a(lib_a-locale.o)
strcmp                                            ..\..\..\..\..\..\..\..\KDS_v3\toolchain\arm-none-eabi\lib\armv7e-m\fpu\libc.a(lib_a-strcmp.o)
                                                  ..\..\..\..\..\..\..\lib\twrk70f120m.kds\debug\bsp\bsp.a(adc.o)
                                                  ..\..\..\..\..\..\..\..\KDS_v3\toolchain\arm-none-eabi\lib\armv7e-m\fpu\libc.a(lib_a-locale.o)
strlen                                            ..\..\..\..\..\..\..\..\KDS_v3\toolchain\arm-none-eabi\lib\armv7e-m\fpu\libc.a(lib_a-strlen.o)
                                                  ..\..\..\..\..\..\..\lib\twrk70f120m.kds\debug\bsp\bsp.a(adc.o)
                                                  ..\..\..\..\..\..\..\..\KDS_v3\toolchain\arm-none-eabi\lib\armv7e-m\fpu\libc.a(lib_a-gdtoa-gethex.o)
                                                  ..\..\..\..\..\..\..\..\KDS_v3\toolchain\arm-none-eabi\lib\armv7e-m\fpu\libc.a(lib_a-strtod.o)
strncmp                                           ..\..\..\..\..\..\..\..\KDS_v3\toolchain\arm-none-eabi\lib\armv7e-m\fpu\libc.a(lib_a-strncmp.o)
                                                  ..\..\..\..\..\..\..\lib\twrk70f120m.kds\debug\psp\psp.a(io_instx.o)
                                                  ..\..\..\..\..\..\..\..\KDS_v3\toolchain\arm-none-eabi\lib\armv7e-m\fpu\libc.a(lib_a-gdtoa-gethex.o)
                                                  ..\..\..\..\..\..\..\..\KDS_v3\toolchain\arm-none-eabi\lib\armv7e-m\fpu\libc.a(lib_a-strtod.o)
                                                  ..\..\..\..\..\..\..\lib\twrk70f120m.kds\debug\psp\psp.a(task.o)
strtod                                            ..\..\..\..\..\..\..\..\KDS_v3\toolchain\arm-none-eabi\lib\armv7e-m\fpu\libc.a(lib_a-strtod.o)
                                                  ..\..\..\..\..\..\..\lib\twrk70f120m.kds\debug\psp\psp.a(io_fp.o)
strtof                                            ..\..\..\..\..\..\..\..\KDS_v3\toolchain\arm-none-eabi\lib\armv7e-m\fpu\libc.a(lib_a-strtod.o)
systick_devif                                     ..\..\..\..\..\..\..\lib\twrk70f120m.kds\debug\bsp\bsp.a(hwtimer_systick.o)
                                                  ..\..\..\..\..\..\..\lib\twrk70f120m.kds\debug\bsp\bsp.a(init_bsp.o)
systick_get_vector                                ..\..\..\..\..\..\..\lib\twrk70f120m.kds\debug\bsp\bsp.a(hwtimer_kinetis.o)
                                                  ..\..\..\..\..\..\..\lib\twrk70f120m.kds\debug\bsp\bsp.a(hwtimer_systick.o)
systimer                                          ..\..\..\..\..\..\..\lib\twrk70f120m.kds\debug\bsp\bsp.a(bsp_cm.o)
                                                  ..\..\..\..\..\..\..\lib\twrk70f120m.kds\debug\bsp\bsp.a(init_bsp.o)
timegm                                            ..\..\..\..\..\..\..\lib\twrk70f120m.kds\debug\psp\psp.a(time.o)
toolchain_startup                                 ..\..\..\..\..\..\..\lib\twrk70f120m.kds\debug\psp\psp.a(comp.o)
                                                  ..\..\..\..\..\..\..\lib\twrk70f120m.kds\debug\psp\psp.a(boot.o)
